;******************************************************************************
;* TI ARM C/C++ Codegen                                        PC v18.1.2.LTS *
;* Date/Time created: Thu Aug 23 17:26:17 2018                                *
;******************************************************************************
	.compiler_opts --abi=eabi --arm_vmrs_si_workaround=off --code_state=16 --diag_wrap=off --embedded_constants=on --endian=little --float_support=FPv4SPD16 --hll_source=on --object_format=elf --quiet --silicon_version=7M4 --symdebug:dwarf --symdebug:dwarf_version=3 --unaligned_access=on 
	.thumb

$C$DW$CU	.dwtag  DW_TAG_compile_unit
	.dwattr $C$DW$CU, DW_AT_name("../Source/tasks.c")
	.dwattr $C$DW$CU, DW_AT_producer("TI TI ARM C/C++ Codegen PC v18.1.2.LTS Copyright (c) 1996-2017 Texas Instruments Incorporated")
	.dwattr $C$DW$CU, DW_AT_TI_version(0x01)
	.dwattr $C$DW$CU, DW_AT_comp_dir("C:\Projects\EECS_388_Test_Workspace\EECS_388_Base_Project_Fa18\Debug")
	.global	pxCurrentTCB
	.data
	.align	4
	.elfsym	pxCurrentTCB,SYM_SIZE(4)
pxCurrentTCB:
	.bits	0,32			; pxCurrentTCB @ 0

$C$DW$1	.dwtag  DW_TAG_variable
	.dwattr $C$DW$1, DW_AT_name("pxCurrentTCB")
	.dwattr $C$DW$1, DW_AT_TI_symbol_name("pxCurrentTCB")
	.dwattr $C$DW$1, DW_AT_location[DW_OP_addr pxCurrentTCB]
	.dwattr $C$DW$1, DW_AT_type(*$C$DW$T$326)
	.dwattr $C$DW$1, DW_AT_external
	.dwattr $C$DW$1, DW_AT_decl_file("../Source/tasks.c")
	.dwattr $C$DW$1, DW_AT_decl_line(0xd4)
	.dwattr $C$DW$1, DW_AT_decl_column(0x22)

pxReadyTasksLists:	.usect	".bss:pxReadyTasksLists",100,4
	.clink ".bss:pxReadyTasksLists"
$C$DW$2	.dwtag  DW_TAG_variable
	.dwattr $C$DW$2, DW_AT_name("pxReadyTasksLists")
	.dwattr $C$DW$2, DW_AT_TI_symbol_name("pxReadyTasksLists")
	.dwattr $C$DW$2, DW_AT_type(*$C$DW$T$328)
	.dwattr $C$DW$2, DW_AT_location[DW_OP_addr pxReadyTasksLists]
	.dwattr $C$DW$2, DW_AT_decl_file("../Source/tasks.c")
	.dwattr $C$DW$2, DW_AT_decl_line(0xd7)
	.dwattr $C$DW$2, DW_AT_decl_column(0x1f)

xDelayedTaskList1:	.usect	".bss:xDelayedTaskList1",20,4
	.clink ".bss:xDelayedTaskList1"
$C$DW$3	.dwtag  DW_TAG_variable
	.dwattr $C$DW$3, DW_AT_name("xDelayedTaskList1")
	.dwattr $C$DW$3, DW_AT_TI_symbol_name("xDelayedTaskList1")
	.dwattr $C$DW$3, DW_AT_type(*$C$DW$T$97)
	.dwattr $C$DW$3, DW_AT_location[DW_OP_addr xDelayedTaskList1]
	.dwattr $C$DW$3, DW_AT_decl_file("../Source/tasks.c")
	.dwattr $C$DW$3, DW_AT_decl_line(0xd8)
	.dwattr $C$DW$3, DW_AT_decl_column(0x1f)

xDelayedTaskList2:	.usect	".bss:xDelayedTaskList2",20,4
	.clink ".bss:xDelayedTaskList2"
$C$DW$4	.dwtag  DW_TAG_variable
	.dwattr $C$DW$4, DW_AT_name("xDelayedTaskList2")
	.dwattr $C$DW$4, DW_AT_TI_symbol_name("xDelayedTaskList2")
	.dwattr $C$DW$4, DW_AT_type(*$C$DW$T$97)
	.dwattr $C$DW$4, DW_AT_location[DW_OP_addr xDelayedTaskList2]
	.dwattr $C$DW$4, DW_AT_decl_file("../Source/tasks.c")
	.dwattr $C$DW$4, DW_AT_decl_line(0xd9)
	.dwattr $C$DW$4, DW_AT_decl_column(0x1f)

	.bss	pxDelayedTaskList,4,4
$C$DW$5	.dwtag  DW_TAG_variable
	.dwattr $C$DW$5, DW_AT_name("pxDelayedTaskList")
	.dwattr $C$DW$5, DW_AT_TI_symbol_name("pxDelayedTaskList")
	.dwattr $C$DW$5, DW_AT_type(*$C$DW$T$327)
	.dwattr $C$DW$5, DW_AT_location[DW_OP_addr pxDelayedTaskList]
	.dwattr $C$DW$5, DW_AT_decl_file("../Source/tasks.c")
	.dwattr $C$DW$5, DW_AT_decl_line(0xda)
	.dwattr $C$DW$5, DW_AT_decl_column(0x2a)

	.bss	pxOverflowDelayedTaskList,4,4
$C$DW$6	.dwtag  DW_TAG_variable
	.dwattr $C$DW$6, DW_AT_name("pxOverflowDelayedTaskList")
	.dwattr $C$DW$6, DW_AT_TI_symbol_name("pxOverflowDelayedTaskList")
	.dwattr $C$DW$6, DW_AT_type(*$C$DW$T$327)
	.dwattr $C$DW$6, DW_AT_location[DW_OP_addr pxOverflowDelayedTaskList]
	.dwattr $C$DW$6, DW_AT_decl_file("../Source/tasks.c")
	.dwattr $C$DW$6, DW_AT_decl_line(0xdb)
	.dwattr $C$DW$6, DW_AT_decl_column(0x2a)

xPendingReadyList:	.usect	".bss:xPendingReadyList",20,4
	.clink ".bss:xPendingReadyList"
$C$DW$7	.dwtag  DW_TAG_variable
	.dwattr $C$DW$7, DW_AT_name("xPendingReadyList")
	.dwattr $C$DW$7, DW_AT_TI_symbol_name("xPendingReadyList")
	.dwattr $C$DW$7, DW_AT_type(*$C$DW$T$97)
	.dwattr $C$DW$7, DW_AT_location[DW_OP_addr xPendingReadyList]
	.dwattr $C$DW$7, DW_AT_decl_file("../Source/tasks.c")
	.dwattr $C$DW$7, DW_AT_decl_line(0xdc)
	.dwattr $C$DW$7, DW_AT_decl_column(0x1f)

xTasksWaitingTermination:	.usect	".bss:xTasksWaitingTermination",20,4
	.clink ".bss:xTasksWaitingTermination"
$C$DW$8	.dwtag  DW_TAG_variable
	.dwattr $C$DW$8, DW_AT_name("xTasksWaitingTermination")
	.dwattr $C$DW$8, DW_AT_TI_symbol_name("xTasksWaitingTermination")
	.dwattr $C$DW$8, DW_AT_type(*$C$DW$T$97)
	.dwattr $C$DW$8, DW_AT_location[DW_OP_addr xTasksWaitingTermination]
	.dwattr $C$DW$8, DW_AT_decl_file("../Source/tasks.c")
	.dwattr $C$DW$8, DW_AT_decl_line(0xe0)
	.dwattr $C$DW$8, DW_AT_decl_column(0x20)

	.data
	.align	4
	.elfsym	uxTasksDeleted,SYM_SIZE(4)
uxTasksDeleted:
	.bits	0,32			; uxTasksDeleted @ 0

$C$DW$9	.dwtag  DW_TAG_variable
	.dwattr $C$DW$9, DW_AT_name("uxTasksDeleted")
	.dwattr $C$DW$9, DW_AT_TI_symbol_name("uxTasksDeleted")
	.dwattr $C$DW$9, DW_AT_type(*$C$DW$T$259)
	.dwattr $C$DW$9, DW_AT_location[DW_OP_addr uxTasksDeleted]
	.dwattr $C$DW$9, DW_AT_decl_file("../Source/tasks.c")
	.dwattr $C$DW$9, DW_AT_decl_line(0xe1)
	.dwattr $C$DW$9, DW_AT_decl_column(0x2e)

xSuspendedTaskList:	.usect	".bss:xSuspendedTaskList",20,4
	.clink ".bss:xSuspendedTaskList"
$C$DW$10	.dwtag  DW_TAG_variable
	.dwattr $C$DW$10, DW_AT_name("xSuspendedTaskList")
	.dwattr $C$DW$10, DW_AT_TI_symbol_name("xSuspendedTaskList")
	.dwattr $C$DW$10, DW_AT_type(*$C$DW$T$97)
	.dwattr $C$DW$10, DW_AT_location[DW_OP_addr xSuspendedTaskList]
	.dwattr $C$DW$10, DW_AT_decl_file("../Source/tasks.c")
	.dwattr $C$DW$10, DW_AT_decl_line(0xe7)
	.dwattr $C$DW$10, DW_AT_decl_column(0x20)

	.data
	.align	4
	.elfsym	uxCurrentNumberOfTasks,SYM_SIZE(4)
uxCurrentNumberOfTasks:
	.bits	0,32			; uxCurrentNumberOfTasks @ 0

$C$DW$11	.dwtag  DW_TAG_variable
	.dwattr $C$DW$11, DW_AT_name("uxCurrentNumberOfTasks")
	.dwattr $C$DW$11, DW_AT_TI_symbol_name("uxCurrentNumberOfTasks")
	.dwattr $C$DW$11, DW_AT_type(*$C$DW$T$259)
	.dwattr $C$DW$11, DW_AT_location[DW_OP_addr uxCurrentNumberOfTasks]
	.dwattr $C$DW$11, DW_AT_decl_file("../Source/tasks.c")
	.dwattr $C$DW$11, DW_AT_decl_line(0xf2)
	.dwattr $C$DW$11, DW_AT_decl_column(0x2d)

	.data
	.align	4
	.elfsym	xTickCount,SYM_SIZE(4)
xTickCount:
	.bits	0,32			; xTickCount @ 0

$C$DW$12	.dwtag  DW_TAG_variable
	.dwattr $C$DW$12, DW_AT_name("xTickCount")
	.dwattr $C$DW$12, DW_AT_TI_symbol_name("xTickCount")
	.dwattr $C$DW$12, DW_AT_type(*$C$DW$T$257)
	.dwattr $C$DW$12, DW_AT_location[DW_OP_addr xTickCount]
	.dwattr $C$DW$12, DW_AT_decl_file("../Source/tasks.c")
	.dwattr $C$DW$12, DW_AT_decl_line(0xf3)
	.dwattr $C$DW$12, DW_AT_decl_column(0x2c)

	.data
	.align	4
	.elfsym	uxTopReadyPriority,SYM_SIZE(4)
uxTopReadyPriority:
	.bits	0,32			; uxTopReadyPriority @ 0

$C$DW$13	.dwtag  DW_TAG_variable
	.dwattr $C$DW$13, DW_AT_name("uxTopReadyPriority")
	.dwattr $C$DW$13, DW_AT_TI_symbol_name("uxTopReadyPriority")
	.dwattr $C$DW$13, DW_AT_type(*$C$DW$T$259)
	.dwattr $C$DW$13, DW_AT_location[DW_OP_addr uxTopReadyPriority]
	.dwattr $C$DW$13, DW_AT_decl_file("../Source/tasks.c")
	.dwattr $C$DW$13, DW_AT_decl_line(0xf4)
	.dwattr $C$DW$13, DW_AT_decl_column(0x2d)

	.data
	.align	4
	.elfsym	xSchedulerRunning,SYM_SIZE(4)
xSchedulerRunning:
	.bits	0,32			; xSchedulerRunning @ 0

$C$DW$14	.dwtag  DW_TAG_variable
	.dwattr $C$DW$14, DW_AT_name("xSchedulerRunning")
	.dwattr $C$DW$14, DW_AT_TI_symbol_name("xSchedulerRunning")
	.dwattr $C$DW$14, DW_AT_type(*$C$DW$T$204)
	.dwattr $C$DW$14, DW_AT_location[DW_OP_addr xSchedulerRunning]
	.dwattr $C$DW$14, DW_AT_decl_file("../Source/tasks.c")
	.dwattr $C$DW$14, DW_AT_decl_line(0xf5)
	.dwattr $C$DW$14, DW_AT_decl_column(0x2c)

	.data
	.align	4
	.elfsym	uxPendedTicks,SYM_SIZE(4)
uxPendedTicks:
	.bits	0,32			; uxPendedTicks @ 0

$C$DW$15	.dwtag  DW_TAG_variable
	.dwattr $C$DW$15, DW_AT_name("uxPendedTicks")
	.dwattr $C$DW$15, DW_AT_TI_symbol_name("uxPendedTicks")
	.dwattr $C$DW$15, DW_AT_type(*$C$DW$T$259)
	.dwattr $C$DW$15, DW_AT_location[DW_OP_addr uxPendedTicks]
	.dwattr $C$DW$15, DW_AT_decl_file("../Source/tasks.c")
	.dwattr $C$DW$15, DW_AT_decl_line(0xf6)
	.dwattr $C$DW$15, DW_AT_decl_column(0x2d)

	.data
	.align	4
	.elfsym	xYieldPending,SYM_SIZE(4)
xYieldPending:
	.bits	0,32			; xYieldPending @ 0

$C$DW$16	.dwtag  DW_TAG_variable
	.dwattr $C$DW$16, DW_AT_name("xYieldPending")
	.dwattr $C$DW$16, DW_AT_TI_symbol_name("xYieldPending")
	.dwattr $C$DW$16, DW_AT_type(*$C$DW$T$204)
	.dwattr $C$DW$16, DW_AT_location[DW_OP_addr xYieldPending]
	.dwattr $C$DW$16, DW_AT_decl_file("../Source/tasks.c")
	.dwattr $C$DW$16, DW_AT_decl_line(0xf7)
	.dwattr $C$DW$16, DW_AT_decl_column(0x2c)

	.data
	.align	4
	.elfsym	xNumOfOverflows,SYM_SIZE(4)
xNumOfOverflows:
	.bits	0,32			; xNumOfOverflows @ 0

$C$DW$17	.dwtag  DW_TAG_variable
	.dwattr $C$DW$17, DW_AT_name("xNumOfOverflows")
	.dwattr $C$DW$17, DW_AT_TI_symbol_name("xNumOfOverflows")
	.dwattr $C$DW$17, DW_AT_type(*$C$DW$T$204)
	.dwattr $C$DW$17, DW_AT_location[DW_OP_addr xNumOfOverflows]
	.dwattr $C$DW$17, DW_AT_decl_file("../Source/tasks.c")
	.dwattr $C$DW$17, DW_AT_decl_line(0xf8)
	.dwattr $C$DW$17, DW_AT_decl_column(0x2c)

	.data
	.align	4
	.elfsym	uxTaskNumber,SYM_SIZE(4)
uxTaskNumber:
	.bits	0,32			; uxTaskNumber @ 0

$C$DW$18	.dwtag  DW_TAG_variable
	.dwattr $C$DW$18, DW_AT_name("uxTaskNumber")
	.dwattr $C$DW$18, DW_AT_TI_symbol_name("uxTaskNumber")
	.dwattr $C$DW$18, DW_AT_type(*$C$DW$T$37)
	.dwattr $C$DW$18, DW_AT_location[DW_OP_addr uxTaskNumber]
	.dwattr $C$DW$18, DW_AT_decl_file("../Source/tasks.c")
	.dwattr $C$DW$18, DW_AT_decl_line(0xf9)
	.dwattr $C$DW$18, DW_AT_decl_column(0x24)

	.data
	.align	4
	.elfsym	xNextTaskUnblockTime,SYM_SIZE(4)
xNextTaskUnblockTime:
	.bits	0,32			; xNextTaskUnblockTime @ 0

$C$DW$19	.dwtag  DW_TAG_variable
	.dwattr $C$DW$19, DW_AT_name("xNextTaskUnblockTime")
	.dwattr $C$DW$19, DW_AT_TI_symbol_name("xNextTaskUnblockTime")
	.dwattr $C$DW$19, DW_AT_type(*$C$DW$T$257)
	.dwattr $C$DW$19, DW_AT_location[DW_OP_addr xNextTaskUnblockTime]
	.dwattr $C$DW$19, DW_AT_decl_file("../Source/tasks.c")
	.dwattr $C$DW$19, DW_AT_decl_line(0xfa)
	.dwattr $C$DW$19, DW_AT_decl_column(0x2c)

	.data
	.align	4
	.elfsym	uxSchedulerSuspended,SYM_SIZE(4)
uxSchedulerSuspended:
	.bits	0,32			; uxSchedulerSuspended @ 0

$C$DW$20	.dwtag  DW_TAG_variable
	.dwattr $C$DW$20, DW_AT_name("uxSchedulerSuspended")
	.dwattr $C$DW$20, DW_AT_TI_symbol_name("uxSchedulerSuspended")
	.dwattr $C$DW$20, DW_AT_type(*$C$DW$T$259)
	.dwattr $C$DW$20, DW_AT_location[DW_OP_addr uxSchedulerSuspended]
	.dwattr $C$DW$20, DW_AT_decl_file("../Source/tasks.c")
	.dwattr $C$DW$20, DW_AT_decl_line(0x104)
	.dwattr $C$DW$20, DW_AT_decl_column(0x2d)


$C$DW$21	.dwtag  DW_TAG_subprogram
	.dwattr $C$DW$21, DW_AT_name("pxPortInitialiseStack")
	.dwattr $C$DW$21, DW_AT_TI_symbol_name("pxPortInitialiseStack")
	.dwattr $C$DW$21, DW_AT_type(*$C$DW$T$38)
	.dwattr $C$DW$21, DW_AT_declaration
	.dwattr $C$DW$21, DW_AT_external
	.dwattr $C$DW$21, DW_AT_decl_file("C:\Projects\EECS_388_Test_Workspace\EECS_388_Base_Project_Fa18\Source\include\portable.h")
	.dwattr $C$DW$21, DW_AT_decl_line(0x90)
	.dwattr $C$DW$21, DW_AT_decl_column(0x0f)
$C$DW$22	.dwtag  DW_TAG_formal_parameter
	.dwattr $C$DW$22, DW_AT_type(*$C$DW$T$38)

$C$DW$23	.dwtag  DW_TAG_formal_parameter
	.dwattr $C$DW$23, DW_AT_type(*$C$DW$T$56)

$C$DW$24	.dwtag  DW_TAG_formal_parameter
	.dwattr $C$DW$24, DW_AT_type(*$C$DW$T$3)

	.dwendtag $C$DW$21


$C$DW$25	.dwtag  DW_TAG_subprogram
	.dwattr $C$DW$25, DW_AT_name("vPortEnterCritical")
	.dwattr $C$DW$25, DW_AT_TI_symbol_name("vPortEnterCritical")
	.dwattr $C$DW$25, DW_AT_declaration
	.dwattr $C$DW$25, DW_AT_external
	.dwattr $C$DW$25, DW_AT_decl_file("C:\Projects\EECS_388_Test_Workspace\EECS_388_Base_Project_Fa18/Source/portable/CCS/ARM_CM4F/portmacro.h")
	.dwattr $C$DW$25, DW_AT_decl_line(0xa7)
	.dwattr $C$DW$25, DW_AT_decl_column(0x0d)
	.dwendtag $C$DW$25


$C$DW$26	.dwtag  DW_TAG_subprogram
	.dwattr $C$DW$26, DW_AT_name("vListInsertEnd")
	.dwattr $C$DW$26, DW_AT_TI_symbol_name("vListInsertEnd")
	.dwattr $C$DW$26, DW_AT_declaration
	.dwattr $C$DW$26, DW_AT_external
	.dwattr $C$DW$26, DW_AT_decl_file("C:\Projects\EECS_388_Test_Workspace\EECS_388_Base_Project_Fa18\Source\include\list.h")
	.dwattr $C$DW$26, DW_AT_decl_line(0x1af)
	.dwattr $C$DW$26, DW_AT_decl_column(0x06)
$C$DW$27	.dwtag  DW_TAG_formal_parameter
	.dwattr $C$DW$27, DW_AT_type(*$C$DW$T$99)

$C$DW$28	.dwtag  DW_TAG_formal_parameter
	.dwattr $C$DW$28, DW_AT_type(*$C$DW$T$102)

	.dwendtag $C$DW$26


$C$DW$29	.dwtag  DW_TAG_subprogram
	.dwattr $C$DW$29, DW_AT_name("vPortExitCritical")
	.dwattr $C$DW$29, DW_AT_TI_symbol_name("vPortExitCritical")
	.dwattr $C$DW$29, DW_AT_declaration
	.dwattr $C$DW$29, DW_AT_external
	.dwattr $C$DW$29, DW_AT_decl_file("C:\Projects\EECS_388_Test_Workspace\EECS_388_Base_Project_Fa18/Source/portable/CCS/ARM_CM4F/portmacro.h")
	.dwattr $C$DW$29, DW_AT_decl_line(0xa8)
	.dwattr $C$DW$29, DW_AT_decl_column(0x0d)
	.dwendtag $C$DW$29


$C$DW$30	.dwtag  DW_TAG_subprogram
	.dwattr $C$DW$30, DW_AT_name("uxListRemove")
	.dwattr $C$DW$30, DW_AT_TI_symbol_name("uxListRemove")
	.dwattr $C$DW$30, DW_AT_type(*$C$DW$T$37)
	.dwattr $C$DW$30, DW_AT_declaration
	.dwattr $C$DW$30, DW_AT_external
	.dwattr $C$DW$30, DW_AT_decl_file("C:\Projects\EECS_388_Test_Workspace\EECS_388_Base_Project_Fa18\Source\include\list.h")
	.dwattr $C$DW$30, DW_AT_decl_line(0x1be)
	.dwattr $C$DW$30, DW_AT_decl_column(0x0d)
$C$DW$31	.dwtag  DW_TAG_formal_parameter
	.dwattr $C$DW$31, DW_AT_type(*$C$DW$T$102)

	.dwendtag $C$DW$30


$C$DW$32	.dwtag  DW_TAG_subprogram
	.dwattr $C$DW$32, DW_AT_name("xTimerCreateTimerTask")
	.dwattr $C$DW$32, DW_AT_TI_symbol_name("xTimerCreateTimerTask")
	.dwattr $C$DW$32, DW_AT_type(*$C$DW$T$71)
	.dwattr $C$DW$32, DW_AT_declaration
	.dwattr $C$DW$32, DW_AT_external
	.dwattr $C$DW$32, DW_AT_decl_file("C:\Projects\EECS_388_Test_Workspace\EECS_388_Base_Project_Fa18/Source/include/timers.h")
	.dwattr $C$DW$32, DW_AT_decl_line(0x471)
	.dwattr $C$DW$32, DW_AT_decl_column(0x0c)
	.dwendtag $C$DW$32


$C$DW$33	.dwtag  DW_TAG_subprogram
	.dwattr $C$DW$33, DW_AT_name("xPortStartScheduler")
	.dwattr $C$DW$33, DW_AT_TI_symbol_name("xPortStartScheduler")
	.dwattr $C$DW$33, DW_AT_type(*$C$DW$T$71)
	.dwattr $C$DW$33, DW_AT_declaration
	.dwattr $C$DW$33, DW_AT_external
	.dwattr $C$DW$33, DW_AT_decl_file("C:\Projects\EECS_388_Test_Workspace\EECS_388_Base_Project_Fa18\Source\include\portable.h")
	.dwattr $C$DW$33, DW_AT_decl_line(0xb5)
	.dwattr $C$DW$33, DW_AT_decl_column(0x0c)
	.dwendtag $C$DW$33


$C$DW$34	.dwtag  DW_TAG_subprogram
	.dwattr $C$DW$34, DW_AT_name("vPortEndScheduler")
	.dwattr $C$DW$34, DW_AT_TI_symbol_name("vPortEndScheduler")
	.dwattr $C$DW$34, DW_AT_declaration
	.dwattr $C$DW$34, DW_AT_external
	.dwattr $C$DW$34, DW_AT_decl_file("C:\Projects\EECS_388_Test_Workspace\EECS_388_Base_Project_Fa18\Source\include\portable.h")
	.dwattr $C$DW$34, DW_AT_decl_line(0xbc)
	.dwattr $C$DW$34, DW_AT_decl_column(0x06)
	.dwendtag $C$DW$34


$C$DW$35	.dwtag  DW_TAG_subprogram
	.dwattr $C$DW$35, DW_AT_name("vListInsert")
	.dwattr $C$DW$35, DW_AT_TI_symbol_name("vListInsert")
	.dwattr $C$DW$35, DW_AT_declaration
	.dwattr $C$DW$35, DW_AT_external
	.dwattr $C$DW$35, DW_AT_decl_file("C:\Projects\EECS_388_Test_Workspace\EECS_388_Base_Project_Fa18\Source\include\list.h")
	.dwattr $C$DW$35, DW_AT_decl_line(0x19a)
	.dwattr $C$DW$35, DW_AT_decl_column(0x06)
$C$DW$36	.dwtag  DW_TAG_formal_parameter
	.dwattr $C$DW$36, DW_AT_type(*$C$DW$T$99)

$C$DW$37	.dwtag  DW_TAG_formal_parameter
	.dwattr $C$DW$37, DW_AT_type(*$C$DW$T$102)

	.dwendtag $C$DW$35


$C$DW$38	.dwtag  DW_TAG_subprogram
	.dwattr $C$DW$38, DW_AT_name("vListInitialiseItem")
	.dwattr $C$DW$38, DW_AT_TI_symbol_name("vListInitialiseItem")
	.dwattr $C$DW$38, DW_AT_declaration
	.dwattr $C$DW$38, DW_AT_external
	.dwattr $C$DW$38, DW_AT_decl_file("C:\Projects\EECS_388_Test_Workspace\EECS_388_Base_Project_Fa18\Source\include\list.h")
	.dwattr $C$DW$38, DW_AT_decl_line(0x18d)
	.dwattr $C$DW$38, DW_AT_decl_column(0x06)
$C$DW$39	.dwtag  DW_TAG_formal_parameter
	.dwattr $C$DW$39, DW_AT_type(*$C$DW$T$102)

	.dwendtag $C$DW$38


$C$DW$40	.dwtag  DW_TAG_subprogram
	.dwattr $C$DW$40, DW_AT_name("vListInitialise")
	.dwattr $C$DW$40, DW_AT_TI_symbol_name("vListInitialise")
	.dwattr $C$DW$40, DW_AT_declaration
	.dwattr $C$DW$40, DW_AT_external
	.dwattr $C$DW$40, DW_AT_decl_file("C:\Projects\EECS_388_Test_Workspace\EECS_388_Base_Project_Fa18\Source\include\list.h")
	.dwattr $C$DW$40, DW_AT_decl_line(0x182)
	.dwattr $C$DW$40, DW_AT_decl_column(0x06)
$C$DW$41	.dwtag  DW_TAG_formal_parameter
	.dwattr $C$DW$41, DW_AT_type(*$C$DW$T$99)

	.dwendtag $C$DW$40


$C$DW$42	.dwtag  DW_TAG_subprogram
	.dwattr $C$DW$42, DW_AT_name("pvPortMalloc")
	.dwattr $C$DW$42, DW_AT_TI_symbol_name("pvPortMalloc")
	.dwattr $C$DW$42, DW_AT_type(*$C$DW$T$3)
	.dwattr $C$DW$42, DW_AT_declaration
	.dwattr $C$DW$42, DW_AT_external
	.dwattr $C$DW$42, DW_AT_decl_file("C:\Projects\EECS_388_Test_Workspace\EECS_388_Base_Project_Fa18\Source\include\portable.h")
	.dwattr $C$DW$42, DW_AT_decl_line(0xab)
	.dwattr $C$DW$42, DW_AT_decl_column(0x07)
$C$DW$43	.dwtag  DW_TAG_formal_parameter
	.dwattr $C$DW$43, DW_AT_type(*$C$DW$T$28)

	.dwendtag $C$DW$42


$C$DW$44	.dwtag  DW_TAG_subprogram
	.dwattr $C$DW$44, DW_AT_name("vPortFree")
	.dwattr $C$DW$44, DW_AT_TI_symbol_name("vPortFree")
	.dwattr $C$DW$44, DW_AT_declaration
	.dwattr $C$DW$44, DW_AT_external
	.dwattr $C$DW$44, DW_AT_decl_file("C:\Projects\EECS_388_Test_Workspace\EECS_388_Base_Project_Fa18\Source\include\portable.h")
	.dwattr $C$DW$44, DW_AT_decl_line(0xac)
	.dwattr $C$DW$44, DW_AT_decl_column(0x06)
$C$DW$45	.dwtag  DW_TAG_formal_parameter
	.dwattr $C$DW$45, DW_AT_type(*$C$DW$T$3)

	.dwendtag $C$DW$44


$C$DW$46	.dwtag  DW_TAG_subprogram
	.dwattr $C$DW$46, DW_AT_name("memset")
	.dwattr $C$DW$46, DW_AT_TI_symbol_name("memset")
	.dwattr $C$DW$46, DW_AT_type(*$C$DW$T$3)
	.dwattr $C$DW$46, DW_AT_declaration
	.dwattr $C$DW$46, DW_AT_external
	.dwattr $C$DW$46, DW_AT_decl_file("C:/TI_CodeComposer/ccsv8/tools/compiler/ti-cgt-arm_18.1.2.LTS/include/string.h")
	.dwattr $C$DW$46, DW_AT_decl_line(0x7a)
	.dwattr $C$DW$46, DW_AT_decl_column(0x16)
$C$DW$47	.dwtag  DW_TAG_formal_parameter
	.dwattr $C$DW$47, DW_AT_type(*$C$DW$T$3)

$C$DW$48	.dwtag  DW_TAG_formal_parameter
	.dwattr $C$DW$48, DW_AT_type(*$C$DW$T$10)

$C$DW$49	.dwtag  DW_TAG_formal_parameter
	.dwattr $C$DW$49, DW_AT_type(*$C$DW$T$28)

	.dwendtag $C$DW$46

;	C:\TI_CodeComposer\ccsv8\tools\compiler\ti-cgt-arm_18.1.2.LTS\bin\armacpia.exe -@C:\\Users\\gminden\\AppData\\Local\\Temp\\{D247E805-0C1A-4BE5-9EA1-2C1F8D2443BF} 
	.sect	".text"
	.clink
	.thumbfunc xTaskGenericCreate
	.thumb
	.global	xTaskGenericCreate

$C$DW$50	.dwtag  DW_TAG_subprogram
	.dwattr $C$DW$50, DW_AT_name("xTaskGenericCreate")
	.dwattr $C$DW$50, DW_AT_low_pc(xTaskGenericCreate)
	.dwattr $C$DW$50, DW_AT_high_pc(0x00)
	.dwattr $C$DW$50, DW_AT_TI_symbol_name("xTaskGenericCreate")
	.dwattr $C$DW$50, DW_AT_external
	.dwattr $C$DW$50, DW_AT_type(*$C$DW$T$71)
	.dwattr $C$DW$50, DW_AT_TI_begin_file("../Source/tasks.c")
	.dwattr $C$DW$50, DW_AT_TI_begin_line(0x227)
	.dwattr $C$DW$50, DW_AT_TI_begin_column(0x0c)
	.dwattr $C$DW$50, DW_AT_decl_file("../Source/tasks.c")
	.dwattr $C$DW$50, DW_AT_decl_line(0x227)
	.dwattr $C$DW$50, DW_AT_decl_column(0x0c)
	.dwattr $C$DW$50, DW_AT_TI_max_frame_size(0x28)
	.dwpsn	file "../Source/tasks.c",line 552,column 1,is_stmt,address xTaskGenericCreate,isa 1

	.dwfde $C$DW$CIE, xTaskGenericCreate
$C$DW$51	.dwtag  DW_TAG_formal_parameter
	.dwattr $C$DW$51, DW_AT_name("pxTaskCode")
	.dwattr $C$DW$51, DW_AT_TI_symbol_name("pxTaskCode")
	.dwattr $C$DW$51, DW_AT_type(*$C$DW$T$56)
	.dwattr $C$DW$51, DW_AT_location[DW_OP_reg0]

$C$DW$52	.dwtag  DW_TAG_formal_parameter
	.dwattr $C$DW$52, DW_AT_name("pcName")
	.dwattr $C$DW$52, DW_AT_TI_symbol_name("pcName")
	.dwattr $C$DW$52, DW_AT_type(*$C$DW$T$59)
	.dwattr $C$DW$52, DW_AT_location[DW_OP_reg1]

$C$DW$53	.dwtag  DW_TAG_formal_parameter
	.dwattr $C$DW$53, DW_AT_name("usStackDepth")
	.dwattr $C$DW$53, DW_AT_TI_symbol_name("usStackDepth")
	.dwattr $C$DW$53, DW_AT_type(*$C$DW$T$133)
	.dwattr $C$DW$53, DW_AT_location[DW_OP_reg2]

$C$DW$54	.dwtag  DW_TAG_formal_parameter
	.dwattr $C$DW$54, DW_AT_name("pvParameters")
	.dwattr $C$DW$54, DW_AT_TI_symbol_name("pvParameters")
	.dwattr $C$DW$54, DW_AT_type(*$C$DW$T$91)
	.dwattr $C$DW$54, DW_AT_location[DW_OP_reg3]

$C$DW$55	.dwtag  DW_TAG_formal_parameter
	.dwattr $C$DW$55, DW_AT_name("uxPriority")
	.dwattr $C$DW$55, DW_AT_TI_symbol_name("uxPriority")
	.dwattr $C$DW$55, DW_AT_type(*$C$DW$T$37)
	.dwattr $C$DW$55, DW_AT_location[DW_OP_breg13 40]

$C$DW$56	.dwtag  DW_TAG_formal_parameter
	.dwattr $C$DW$56, DW_AT_name("pxCreatedTask")
	.dwattr $C$DW$56, DW_AT_TI_symbol_name("pxCreatedTask")
	.dwattr $C$DW$56, DW_AT_type(*$C$DW$T$84)
	.dwattr $C$DW$56, DW_AT_location[DW_OP_breg13 44]

$C$DW$57	.dwtag  DW_TAG_formal_parameter
	.dwattr $C$DW$57, DW_AT_name("puxStackBuffer")
	.dwattr $C$DW$57, DW_AT_TI_symbol_name("puxStackBuffer")
	.dwattr $C$DW$57, DW_AT_type(*$C$DW$T$207)
	.dwattr $C$DW$57, DW_AT_location[DW_OP_breg13 48]

$C$DW$58	.dwtag  DW_TAG_formal_parameter
	.dwattr $C$DW$58, DW_AT_name("xRegions")
	.dwattr $C$DW$58, DW_AT_TI_symbol_name("xRegions")
	.dwattr $C$DW$58, DW_AT_type(*$C$DW$T$132)
	.dwattr $C$DW$58, DW_AT_location[DW_OP_breg13 52]

;----------------------------------------------------------------------
; 551 | BaseType_t xTaskGenericCreate( TaskFunction_t pxTaskCode, const char *
;     | const pcName, const uint16_t usStackDepth, void * const pvParameters, U
;     | BaseType_t uxPriority, TaskHandle_t * const pxCreatedTask, StackType_t 
;     | * const puxStackBuffer, const MemoryRegion_t * const xRegions ) /*lint 
;     | !e971 Unqualified char types are allowed for strings and single charact
;     | ers only. */                                                           
;----------------------------------------------------------------------

;*****************************************************************************
;* FUNCTION NAME: xTaskGenericCreate                                         *
;*                                                                           *
;*   Regs Modified     : A1,A2,A3,A4,V1,V9,SP,LR,SR,D0,D0_hi,D1,D1_hi,D2,    *
;*                           D2_hi,D3,D3_hi,D4,D4_hi,D5,D5_hi,D6,D6_hi,D7,   *
;*                           D7_hi,FPEXC,FPSCR                               *
;*   Regs Used         : A1,A2,A3,A4,V1,V9,SP,LR,SR,D0,D0_hi,D1,D1_hi,D2,    *
;*                           D2_hi,D3,D3_hi,D4,D4_hi,D5,D5_hi,D6,D6_hi,D7,   *
;*                           D7_hi,FPEXC,FPSCR                               *
;*   Local Frame Size  : 4 Args + 28 Auto + 8 Save = 40 byte                 *
;*****************************************************************************
xTaskGenericCreate:
;* --------------------------------------------------------------------------*
	.dwcfi	cfa_offset, 0
        PUSH      {V1, LR}              ; [DPU_V7M3_PIPE] 
	.dwcfi	cfa_offset, 8
	.dwcfi	save_reg_to_mem, 14, -4
	.dwcfi	save_reg_to_mem, 4, -8
        SUB       SP, SP, #32           ; [DPU_V7M3_PIPE] 
	.dwcfi	cfa_offset, 40
$C$DW$59	.dwtag  DW_TAG_variable
	.dwattr $C$DW$59, DW_AT_name("pxTaskCode")
	.dwattr $C$DW$59, DW_AT_TI_symbol_name("pxTaskCode")
	.dwattr $C$DW$59, DW_AT_type(*$C$DW$T$56)
	.dwattr $C$DW$59, DW_AT_location[DW_OP_breg13 4]

$C$DW$60	.dwtag  DW_TAG_variable
	.dwattr $C$DW$60, DW_AT_name("pcName")
	.dwattr $C$DW$60, DW_AT_TI_symbol_name("pcName")
	.dwattr $C$DW$60, DW_AT_type(*$C$DW$T$59)
	.dwattr $C$DW$60, DW_AT_location[DW_OP_breg13 8]

$C$DW$61	.dwtag  DW_TAG_variable
	.dwattr $C$DW$61, DW_AT_name("pvParameters")
	.dwattr $C$DW$61, DW_AT_TI_symbol_name("pvParameters")
	.dwattr $C$DW$61, DW_AT_type(*$C$DW$T$91)
	.dwattr $C$DW$61, DW_AT_location[DW_OP_breg13 12]

$C$DW$62	.dwtag  DW_TAG_variable
	.dwattr $C$DW$62, DW_AT_name("xReturn")
	.dwattr $C$DW$62, DW_AT_TI_symbol_name("xReturn")
	.dwattr $C$DW$62, DW_AT_type(*$C$DW$T$71)
	.dwattr $C$DW$62, DW_AT_location[DW_OP_breg13 16]

$C$DW$63	.dwtag  DW_TAG_variable
	.dwattr $C$DW$63, DW_AT_name("pxNewTCB")
	.dwattr $C$DW$63, DW_AT_TI_symbol_name("pxNewTCB")
	.dwattr $C$DW$63, DW_AT_type(*$C$DW$T$128)
	.dwattr $C$DW$63, DW_AT_location[DW_OP_breg13 20]

$C$DW$64	.dwtag  DW_TAG_variable
	.dwattr $C$DW$64, DW_AT_name("pxTopOfStack")
	.dwattr $C$DW$64, DW_AT_TI_symbol_name("pxTopOfStack")
	.dwattr $C$DW$64, DW_AT_type(*$C$DW$T$38)
	.dwattr $C$DW$64, DW_AT_location[DW_OP_breg13 24]

$C$DW$65	.dwtag  DW_TAG_variable
	.dwattr $C$DW$65, DW_AT_name("usStackDepth")
	.dwattr $C$DW$65, DW_AT_TI_symbol_name("usStackDepth")
	.dwattr $C$DW$65, DW_AT_type(*$C$DW$T$133)
	.dwattr $C$DW$65, DW_AT_location[DW_OP_breg13 28]

;----------------------------------------------------------------------
; 553 | BaseType_t xReturn;                                                    
; 554 | TCB_t * pxNewTCB;                                                      
; 555 | StackType_t *pxTopOfStack;                                             
; 557 | configASSERT( pxTaskCode );                                            
; 558 | configASSERT( ( ( uxPriority & ( UBaseType_t ) ( ~portPRIVILEGE_BIT ) )
;     |  < ( UBaseType_t ) configMAX_PRIORITIES ) );                           
;----------------------------------------------------------------------
        STR       A4, [SP, #12]         ; [DPU_V7M3_PIPE] |552| 
        STRH      A3, [SP, #28]         ; [DPU_V7M3_PIPE] |552| 
        STR       A2, [SP, #8]          ; [DPU_V7M3_PIPE] |552| 
        STR       A1, [SP, #4]          ; [DPU_V7M3_PIPE] |552| 
	.dwpsn	file "../Source/tasks.c",line 562,column 2,is_stmt,isa 1
;----------------------------------------------------------------------
; 562 | pxNewTCB = prvAllocateTCBAndStack( usStackDepth, puxStackBuffer );     
;----------------------------------------------------------------------
        LDR       A2, [SP, #48]         ; [DPU_V7M3_PIPE] |562| 
        LDRH      A1, [SP, #28]         ; [DPU_V7M3_PIPE] |562| 
$C$DW$66	.dwtag  DW_TAG_TI_branch
	.dwattr $C$DW$66, DW_AT_low_pc(0x00)
	.dwattr $C$DW$66, DW_AT_name("prvAllocateTCBAndStack")
	.dwattr $C$DW$66, DW_AT_TI_call

        BL        prvAllocateTCBAndStack ; [DPU_V7M3_PIPE] |562| 
        ; CALL OCCURS {prvAllocateTCBAndStack }  ; [] |562| 
        STR       A1, [SP, #20]         ; [DPU_V7M3_PIPE] |562| 
	.dwpsn	file "../Source/tasks.c",line 564,column 2,is_stmt,isa 1
;----------------------------------------------------------------------
; 564 | if( pxNewTCB != NULL )                                                 
; 566 |         #if( portUSING_MPU_WRAPPERS == 1 )                             
; 568 |                 BaseType_t xRunPrivileged;                             
; 569 |                 if( ( uxPriority & portPRIVILEGE_BIT ) != 0U )         
; 571 |                         xRunPrivileged = pdTRUE;                       
; 573 |                 else                                                   
; 575 |                         xRunPrivileged = pdFALSE;                      
; 577 |                 uxPriority &= ~portPRIVILEGE_BIT;                      
; 579 |                 if( puxStackBuffer != NULL )                           
; 584 |                         pxNewTCB->xUsingStaticallyAllocatedStack = pdTR
;     | UE;                                                                    
; 586 |                 else                                                   
; 590 |                         pxNewTCB->xUsingStaticallyAllocatedStack = pdFA
;     | LSE;                                                                   
; 592 |         #endif /* portUSING_MPU_WRAPPERS == 1 */                       
; 598 |         #if( portSTACK_GROWTH < 0 )                                    
;----------------------------------------------------------------------
        LDR       A1, [SP, #20]         ; [DPU_V7M3_PIPE] |564| 
        CMP       A1, #0                ; [DPU_V7M3_PIPE] |564| 
        BEQ       ||$C$L4||             ; [DPU_V7M3_PIPE] |564| 
        ; BRANCHCC OCCURS {||$C$L4||}    ; [] |564| 
;* --------------------------------------------------------------------------*
	.dwpsn	file "../Source/tasks.c",line 600,column 4,is_stmt,isa 1
;----------------------------------------------------------------------
; 600 | pxTopOfStack = pxNewTCB->pxStack + ( usStackDepth - ( uint16_t ) 1 );  
;----------------------------------------------------------------------
        LDR       A2, [SP, #20]         ; [DPU_V7M3_PIPE] |600| 
        LDRH      A1, [SP, #28]         ; [DPU_V7M3_PIPE] |600| 
        LDR       A2, [A2, #48]         ; [DPU_V7M3_PIPE] |600| 
        SUBS      A1, A1, #1            ; [DPU_V7M3_PIPE] |600| 
        ADD       A2, A2, A1, LSL #2    ; [DPU_V7M3_PIPE] |600| 
        STR       A2, [SP, #24]         ; [DPU_V7M3_PIPE] |600| 
	.dwpsn	file "../Source/tasks.c",line 601,column 4,is_stmt,isa 1
;----------------------------------------------------------------------
; 601 | pxTopOfStack = ( StackType_t * ) ( ( ( portPOINTER_SIZE_TYPE ) pxTopOfS
;     | tack ) & ( ~( ( portPOINTER_SIZE_TYPE ) portBYTE_ALIGNMENT_MASK ) ) ); 
;     | /*lint !e923 MISRA exception.  Avoiding casts between pointers and inte
;     | gers is not practical.  Size differences accounted for using portPOINTE
;     | R_SIZE_TYPE type. */                                                   
; 604 | configASSERT( ( ( ( portPOINTER_SIZE_TYPE ) pxTopOfStack & ( portPOINTE
;     | R_SIZE_TYPE ) portBYTE_ALIGNMENT_MASK ) == 0UL ) );                    
; 606 | #else /* portSTACK_GROWTH */                                           
; 608 | pxTopOfStack = pxNewTCB->pxStack;                                      
; 611 | configASSERT( ( ( ( portPOINTER_SIZE_TYPE ) pxNewTCB->pxStack & ( portP
;     | OINTER_SIZE_TYPE ) portBYTE_ALIGNMENT_MASK ) == 0UL ) );               
; 616 | pxNewTCB->pxEndOfStack = pxNewTCB->pxStack + ( usStackDepth - 1 );     
; 618 | #endif /* portSTACK_GROWTH */                                          
;----------------------------------------------------------------------
        LDR       A1, [SP, #24]         ; [DPU_V7M3_PIPE] |601| 
        BIC       A1, A1, #7            ; [DPU_V7M3_PIPE] |601| 
        STR       A1, [SP, #24]         ; [DPU_V7M3_PIPE] |601| 
	.dwpsn	file "../Source/tasks.c",line 621,column 3,is_stmt,isa 1
;----------------------------------------------------------------------
; 621 | prvInitialiseTCBVariables( pxNewTCB, pcName, uxPriority, xRegions, usSt
;     | ackDepth );                                                            
; 627 | #if( portUSING_MPU_WRAPPERS == 1 )                                     
; 629 |         pxNewTCB->pxTopOfStack = pxPortInitialiseStack( pxTopOfStack, p
;     | xTaskCode, pvParameters, xRunPrivileged );                             
; 631 | #else /* portUSING_MPU_WRAPPERS */                                     
;----------------------------------------------------------------------
        LDRH      A1, [SP, #28]         ; [DPU_V7M3_PIPE] |621| 
        LDR       A3, [SP, #40]         ; [DPU_V7M3_PIPE] |621| 
        LDR       A4, [SP, #52]         ; [DPU_V7M3_PIPE] |621| 
        STR       A1, [SP, #0]          ; [DPU_V7M3_PIPE] |621| 
        LDR       A2, [SP, #8]          ; [DPU_V7M3_PIPE] |621| 
        LDR       A1, [SP, #20]         ; [DPU_V7M3_PIPE] |621| 
$C$DW$67	.dwtag  DW_TAG_TI_branch
	.dwattr $C$DW$67, DW_AT_low_pc(0x00)
	.dwattr $C$DW$67, DW_AT_name("prvInitialiseTCBVariables")
	.dwattr $C$DW$67, DW_AT_TI_call

        BL        prvInitialiseTCBVariables ; [DPU_V7M3_PIPE] |621| 
        ; CALL OCCURS {prvInitialiseTCBVariables }  ; [] |621| 
	.dwpsn	file "../Source/tasks.c",line 633,column 4,is_stmt,isa 1
;----------------------------------------------------------------------
; 633 | pxNewTCB->pxTopOfStack = pxPortInitialiseStack( pxTopOfStack, pxTaskCod
;     | e, pvParameters );                                                     
; 635 | #endif /* portUSING_MPU_WRAPPERS */                                    
;----------------------------------------------------------------------
        LDR       A1, [SP, #24]         ; [DPU_V7M3_PIPE] |633| 
        LDR       A2, [SP, #4]          ; [DPU_V7M3_PIPE] |633| 
        LDR       A3, [SP, #12]         ; [DPU_V7M3_PIPE] |633| 
$C$DW$68	.dwtag  DW_TAG_TI_branch
	.dwattr $C$DW$68, DW_AT_low_pc(0x00)
	.dwattr $C$DW$68, DW_AT_name("pxPortInitialiseStack")
	.dwattr $C$DW$68, DW_AT_TI_call

        BL        pxPortInitialiseStack ; [DPU_V7M3_PIPE] |633| 
        ; CALL OCCURS {pxPortInitialiseStack }  ; [] |633| 
        LDR       A2, [SP, #20]         ; [DPU_V7M3_PIPE] |633| 
        STR       A1, [A2, #0]          ; [DPU_V7M3_PIPE] |633| 
	.dwpsn	file "../Source/tasks.c",line 637,column 3,is_stmt,isa 1
;----------------------------------------------------------------------
; 637 | if( ( void * ) pxCreatedTask != NULL )                                 
;----------------------------------------------------------------------
        LDR       A1, [SP, #44]         ; [DPU_V7M3_PIPE] |637| 
        CBZ       A1, ||$C$L1||         ; [] 
        ; BRANCHCC OCCURS {||$C$L1||}    ; [] |637| 
;* --------------------------------------------------------------------------*
	.dwpsn	file "../Source/tasks.c",line 642,column 4,is_stmt,isa 1
;----------------------------------------------------------------------
; 642 | *pxCreatedTask = ( TaskHandle_t ) pxNewTCB;                            
;----------------------------------------------------------------------
        LDR       A1, [SP, #20]         ; [DPU_V7M3_PIPE] |642| 
        LDR       A2, [SP, #44]         ; [DPU_V7M3_PIPE] |642| 
        STR       A1, [A2, #0]          ; [DPU_V7M3_PIPE] |642| 
	.dwpsn	file "../Source/tasks.c",line 643,column 3,is_stmt,isa 1
;----------------------------------------------------------------------
; 644 | else                                                                   
; 646 |         mtCOVERAGE_TEST_MARKER();                                      
;----------------------------------------------------------------------
;* --------------------------------------------------------------------------*
||$C$L1||:    
	.dwpsn	file "../Source/tasks.c",line 651,column 3,is_stmt,isa 1
;----------------------------------------------------------------------
; 651 | taskENTER_CRITICAL();                                                  
;----------------------------------------------------------------------
$C$DW$69	.dwtag  DW_TAG_TI_branch
	.dwattr $C$DW$69, DW_AT_low_pc(0x00)
	.dwattr $C$DW$69, DW_AT_name("vPortEnterCritical")
	.dwattr $C$DW$69, DW_AT_TI_call

        BL        vPortEnterCritical    ; [DPU_V7M3_PIPE] |651| 
        ; CALL OCCURS {vPortEnterCritical }  ; [] |651| 
	.dwpsn	file "../Source/tasks.c",line 653,column 4,is_stmt,isa 1
;----------------------------------------------------------------------
; 653 | uxCurrentNumberOfTasks++;                                              
;----------------------------------------------------------------------
        LDR       A2, $C$CON1           ; [DPU_V7M3_PIPE] |653| 
        LDR       A1, [A2, #0]          ; [DPU_V7M3_PIPE] |653| 
        ADDS      A1, A1, #1            ; [DPU_V7M3_PIPE] |653| 
        STR       A1, [A2, #0]          ; [DPU_V7M3_PIPE] |653| 
	.dwpsn	file "../Source/tasks.c",line 654,column 4,is_stmt,isa 1
;----------------------------------------------------------------------
; 654 | if( pxCurrentTCB == NULL )                                             
;----------------------------------------------------------------------
        LDR       A1, $C$CON2           ; [DPU_V7M3_PIPE] |654| 
        LDR       A1, [A1, #0]          ; [DPU_V7M3_PIPE] |654| 
        CBNZ      A1, ||$C$L2||         ; [] 
        ; BRANCHCC OCCURS {||$C$L2||}    ; [] |654| 
;* --------------------------------------------------------------------------*
	.dwpsn	file "../Source/tasks.c",line 658,column 5,is_stmt,isa 1
;----------------------------------------------------------------------
; 658 | pxCurrentTCB =  pxNewTCB;                                              
;----------------------------------------------------------------------
        LDR       A1, [SP, #20]         ; [DPU_V7M3_PIPE] |658| 
        LDR       A2, $C$CON2           ; [DPU_V7M3_PIPE] |658| 
        STR       A1, [A2, #0]          ; [DPU_V7M3_PIPE] |658| 
	.dwpsn	file "../Source/tasks.c",line 660,column 5,is_stmt,isa 1
;----------------------------------------------------------------------
; 660 | if( uxCurrentNumberOfTasks == ( UBaseType_t ) 1 )                      
;----------------------------------------------------------------------
        LDR       A1, $C$CON1           ; [DPU_V7M3_PIPE] |660| 
        LDR       A1, [A1, #0]          ; [DPU_V7M3_PIPE] |660| 
        CMP       A1, #1                ; [DPU_V7M3_PIPE] |660| 
        BNE       ||$C$L3||             ; [DPU_V7M3_PIPE] |660| 
        ; BRANCHCC OCCURS {||$C$L3||}    ; [] |660| 
;* --------------------------------------------------------------------------*
	.dwpsn	file "../Source/tasks.c",line 665,column 6,is_stmt,isa 1
;----------------------------------------------------------------------
; 665 | prvInitialiseTaskLists();                                              
;----------------------------------------------------------------------
$C$DW$70	.dwtag  DW_TAG_TI_branch
	.dwattr $C$DW$70, DW_AT_low_pc(0x00)
	.dwattr $C$DW$70, DW_AT_name("prvInitialiseTaskLists")
	.dwattr $C$DW$70, DW_AT_TI_call

        BL        prvInitialiseTaskLists ; [DPU_V7M3_PIPE] |665| 
        ; CALL OCCURS {prvInitialiseTaskLists }  ; [] |665| 
	.dwpsn	file "../Source/tasks.c",line 666,column 5,is_stmt,isa 1
;----------------------------------------------------------------------
; 667 | else                                                                   
; 669 |         mtCOVERAGE_TEST_MARKER();                                      
; 672 | else                                                                   
;----------------------------------------------------------------------
        B         ||$C$L3||             ; [DPU_V7M3_PIPE] |666| 
        ; BRANCH OCCURS {||$C$L3||}      ; [] |666| 
;* --------------------------------------------------------------------------*
;* --------------------------------------------------------------------------*
||$C$L2||:    
	.dwpsn	file "../Source/tasks.c",line 677,column 5,is_stmt,isa 1
;----------------------------------------------------------------------
; 677 | if( xSchedulerRunning == pdFALSE )                                     
;----------------------------------------------------------------------
        LDR       A1, $C$CON3           ; [DPU_V7M3_PIPE] |677| 
        LDR       A1, [A1, #0]          ; [DPU_V7M3_PIPE] |677| 
        CBNZ      A1, ||$C$L3||         ; [] 
        ; BRANCHCC OCCURS {||$C$L3||}    ; [] |677| 
;* --------------------------------------------------------------------------*
	.dwpsn	file "../Source/tasks.c",line 679,column 6,is_stmt,isa 1
;----------------------------------------------------------------------
; 679 | if( pxCurrentTCB->uxPriority <= uxPriority )                           
;----------------------------------------------------------------------
        LDR       A1, $C$CON2           ; [DPU_V7M3_PIPE] |679| 
        LDR       A2, [A1, #0]          ; [DPU_V7M3_PIPE] |679| 
        LDR       A1, [SP, #40]         ; [DPU_V7M3_PIPE] |679| 
        LDR       A2, [A2, #44]         ; [DPU_V7M3_PIPE] |679| 
        CMP       A1, A2                ; [DPU_V7M3_PIPE] |679| 
        BCC       ||$C$L3||             ; [DPU_V7M3_PIPE] |679| 
        ; BRANCHCC OCCURS {||$C$L3||}    ; [] |679| 
;* --------------------------------------------------------------------------*
	.dwpsn	file "../Source/tasks.c",line 681,column 7,is_stmt,isa 1
;----------------------------------------------------------------------
; 681 | pxCurrentTCB = pxNewTCB;                                               
;----------------------------------------------------------------------
        LDR       A1, [SP, #20]         ; [DPU_V7M3_PIPE] |681| 
        LDR       A2, $C$CON2           ; [DPU_V7M3_PIPE] |681| 
        STR       A1, [A2, #0]          ; [DPU_V7M3_PIPE] |681| 
	.dwpsn	file "../Source/tasks.c",line 682,column 6,is_stmt,isa 1
;----------------------------------------------------------------------
; 683 | else                                                                   
; 685 |         mtCOVERAGE_TEST_MARKER();                                      
; 688 | else                                                                   
; 690 | mtCOVERAGE_TEST_MARKER();                                              
;----------------------------------------------------------------------
        B         ||$C$L3||             ; [DPU_V7M3_PIPE] |682| 
        ; BRANCH OCCURS {||$C$L3||}      ; [] |682| 
;* --------------------------------------------------------------------------*
;* --------------------------------------------------------------------------*
||$C$L3||:    
	.dwpsn	file "../Source/tasks.c",line 694,column 4,is_stmt,isa 1
;----------------------------------------------------------------------
; 694 | uxTaskNumber++;                                                        
; 696 | #if ( configUSE_TRACE_FACILITY == 1 )                                  
;----------------------------------------------------------------------
        LDR       A2, $C$CON4           ; [DPU_V7M3_PIPE] |694| 
        LDR       A1, [A2, #0]          ; [DPU_V7M3_PIPE] |694| 
        ADDS      A1, A1, #1            ; [DPU_V7M3_PIPE] |694| 
        STR       A1, [A2, #0]          ; [DPU_V7M3_PIPE] |694| 
	.dwpsn	file "../Source/tasks.c",line 699,column 5,is_stmt,isa 1
;----------------------------------------------------------------------
; 699 | pxNewTCB->uxTCBNumber = uxTaskNumber;                                  
; 701 | #endif /* configUSE_TRACE_FACILITY */                                  
; 702 | traceTASK_CREATE( pxNewTCB );                                          
;----------------------------------------------------------------------
        LDR       A1, $C$CON4           ; [DPU_V7M3_PIPE] |699| 
        LDR       A2, [SP, #20]         ; [DPU_V7M3_PIPE] |699| 
        LDR       A1, [A1, #0]          ; [DPU_V7M3_PIPE] |699| 
        STR       A1, [A2, #68]         ; [DPU_V7M3_PIPE] |699| 
	.dwpsn	file "../Source/tasks.c",line 704,column 4,is_stmt,isa 1
;----------------------------------------------------------------------
; 704 | prvAddTaskToReadyList( pxNewTCB );                                     
;----------------------------------------------------------------------
        LDR       A3, $C$CON5           ; [DPU_V7M3_PIPE] |704| 
        LDR       A1, [SP, #20]         ; [DPU_V7M3_PIPE] |704| 
        LDR       A4, [A3, #0]          ; [DPU_V7M3_PIPE] |704| 
        LDR       A2, [SP, #20]         ; [DPU_V7M3_PIPE] |704| 
        LDR       V1, [A1, #44]         ; [DPU_V7M3_PIPE] |704| 
        MOVS      A1, #1                ; [DPU_V7M3_PIPE] |704| 
        LSLS      A1, A1, V1            ; [DPU_V7M3_PIPE] |704| 
        ORRS      A1, A1, A4            ; [DPU_V7M3_PIPE] |704| 
        STR       A1, [A3, #0]          ; [DPU_V7M3_PIPE] |704| 
        LDR       A4, $C$CON6           ; [DPU_V7M3_PIPE] |704| 
        LDR       A3, [A2, #44]         ; [DPU_V7M3_PIPE] |704| 
        LDR       A2, [SP, #20]         ; [DPU_V7M3_PIPE] |704| 
        LSLS      A1, A3, #2            ; [DPU_V7M3_PIPE] |704| 
        ADD       A1, A1, A3, LSL #4    ; [DPU_V7M3_PIPE] |704| 
        ADDS      A2, A2, #4            ; [DPU_V7M3_PIPE] |704| 
        ADDS      A1, A1, A4            ; [DPU_V7M3_PIPE] |704| 
$C$DW$71	.dwtag  DW_TAG_TI_branch
	.dwattr $C$DW$71, DW_AT_low_pc(0x00)
	.dwattr $C$DW$71, DW_AT_name("vListInsertEnd")
	.dwattr $C$DW$71, DW_AT_TI_call

        BL        vListInsertEnd        ; [DPU_V7M3_PIPE] |704| 
        ; CALL OCCURS {vListInsertEnd }  ; [] |704| 
	.dwpsn	file "../Source/tasks.c",line 706,column 4,is_stmt,isa 1
;----------------------------------------------------------------------
; 706 | xReturn = pdPASS;                                                      
;----------------------------------------------------------------------
        MOVS      A1, #1                ; [DPU_V7M3_PIPE] |706| 
        STR       A1, [SP, #16]         ; [DPU_V7M3_PIPE] |706| 
	.dwpsn	file "../Source/tasks.c",line 707,column 4,is_stmt,isa 1
;----------------------------------------------------------------------
; 707 | portSETUP_TCB( pxNewTCB );                                             
;----------------------------------------------------------------------
	.dwpsn	file "../Source/tasks.c",line 709,column 3,is_stmt,isa 1
;----------------------------------------------------------------------
; 709 | taskEXIT_CRITICAL();                                                   
;----------------------------------------------------------------------
$C$DW$72	.dwtag  DW_TAG_TI_branch
	.dwattr $C$DW$72, DW_AT_low_pc(0x00)
	.dwattr $C$DW$72, DW_AT_name("vPortExitCritical")
	.dwattr $C$DW$72, DW_AT_TI_call

        BL        vPortExitCritical     ; [DPU_V7M3_PIPE] |709| 
        ; CALL OCCURS {vPortExitCritical }  ; [] |709| 
	.dwpsn	file "../Source/tasks.c",line 710,column 2,is_stmt,isa 1
;----------------------------------------------------------------------
; 711 | else                                                                   
;----------------------------------------------------------------------
        B         ||$C$L5||             ; [DPU_V7M3_PIPE] |710| 
        ; BRANCH OCCURS {||$C$L5||}      ; [] |710| 
;* --------------------------------------------------------------------------*
||$C$L4||:    
	.dwpsn	file "../Source/tasks.c",line 713,column 3,is_stmt,isa 1
;----------------------------------------------------------------------
; 713 | xReturn = errCOULD_NOT_ALLOCATE_REQUIRED_MEMORY;                       
; 714 | traceTASK_CREATE_FAILED();                                             
;----------------------------------------------------------------------
        MOV       A1, #-1               ; [DPU_V7M3_PIPE] |713| 
        STR       A1, [SP, #16]         ; [DPU_V7M3_PIPE] |713| 
;* --------------------------------------------------------------------------*
||$C$L5||:    
	.dwpsn	file "../Source/tasks.c",line 717,column 2,is_stmt,isa 1
;----------------------------------------------------------------------
; 717 | if( xReturn == pdPASS )                                                
;----------------------------------------------------------------------
        LDR       A1, [SP, #16]         ; [DPU_V7M3_PIPE] |717| 
        CMP       A1, #1                ; [DPU_V7M3_PIPE] |717| 
        BNE       ||$C$L6||             ; [DPU_V7M3_PIPE] |717| 
        ; BRANCHCC OCCURS {||$C$L6||}    ; [] |717| 
;* --------------------------------------------------------------------------*
	.dwpsn	file "../Source/tasks.c",line 719,column 3,is_stmt,isa 1
;----------------------------------------------------------------------
; 719 | if( xSchedulerRunning != pdFALSE )                                     
;----------------------------------------------------------------------
        LDR       A1, $C$CON3           ; [DPU_V7M3_PIPE] |719| 
        LDR       A1, [A1, #0]          ; [DPU_V7M3_PIPE] |719| 
        CBZ       A1, ||$C$L6||         ; [] 
        ; BRANCHCC OCCURS {||$C$L6||}    ; [] |719| 
;* --------------------------------------------------------------------------*
	.dwpsn	file "../Source/tasks.c",line 723,column 4,is_stmt,isa 1
;----------------------------------------------------------------------
; 723 | if( pxCurrentTCB->uxPriority < uxPriority )                            
; 725 |         taskYIELD_IF_USING_PREEMPTION();                               
;----------------------------------------------------------------------
        LDR       A1, $C$CON2           ; [DPU_V7M3_PIPE] |723| 
        LDR       A2, [A1, #0]          ; [DPU_V7M3_PIPE] |723| 
        LDR       A1, [SP, #40]         ; [DPU_V7M3_PIPE] |723| 
        LDR       A2, [A2, #44]         ; [DPU_V7M3_PIPE] |723| 
        CMP       A1, A2                ; [DPU_V7M3_PIPE] |723| 
        BHI       ||$C$L6||             ; [DPU_V7M3_PIPE] |723| 
        ; BRANCHCC OCCURS {||$C$L6||}    ; [] |723| 
;* --------------------------------------------------------------------------*
	.dwpsn	file "../Source/tasks.c",line 726,column 4,is_stmt,isa 1
;----------------------------------------------------------------------
; 727 | else                                                                   
; 729 |         mtCOVERAGE_TEST_MARKER();                                      
;----------------------------------------------------------------------
	.dwpsn	file "../Source/tasks.c",line 731,column 3,is_stmt,isa 1
;----------------------------------------------------------------------
; 732 | else                                                                   
; 734 |         mtCOVERAGE_TEST_MARKER();                                      
;----------------------------------------------------------------------
;* --------------------------------------------------------------------------*
||$C$L6||:    
	.dwpsn	file "../Source/tasks.c",line 738,column 2,is_stmt,isa 1
;----------------------------------------------------------------------
; 738 | return xReturn;                                                        
;----------------------------------------------------------------------
        LDR       A1, [SP, #16]         ; [DPU_V7M3_PIPE] |738| 
	.dwpsn	file "../Source/tasks.c",line 739,column 1,is_stmt,isa 1
        ADD       SP, SP, #32           ; [DPU_V7M3_PIPE] 
	.dwcfi	cfa_offset, 8
$C$DW$73	.dwtag  DW_TAG_TI_branch
	.dwattr $C$DW$73, DW_AT_low_pc(0x00)
	.dwattr $C$DW$73, DW_AT_TI_return

        POP       {V1, PC}              ; [DPU_V7M3_PIPE] 
	.dwcfi	cfa_offset, 0
	.dwcfi	restore_reg, 4
        ; BRANCH OCCURS                  ; [] 
	.dwattr $C$DW$50, DW_AT_TI_end_file("../Source/tasks.c")
	.dwattr $C$DW$50, DW_AT_TI_end_line(0x2e3)
	.dwattr $C$DW$50, DW_AT_TI_end_column(0x01)
	.dwendentry
	.dwendtag $C$DW$50

	.sect	".text"
	.clink
	.thumbfunc vTaskDelete
	.thumb
	.global	vTaskDelete

$C$DW$74	.dwtag  DW_TAG_subprogram
	.dwattr $C$DW$74, DW_AT_name("vTaskDelete")
	.dwattr $C$DW$74, DW_AT_low_pc(vTaskDelete)
	.dwattr $C$DW$74, DW_AT_high_pc(0x00)
	.dwattr $C$DW$74, DW_AT_TI_symbol_name("vTaskDelete")
	.dwattr $C$DW$74, DW_AT_external
	.dwattr $C$DW$74, DW_AT_TI_begin_file("../Source/tasks.c")
	.dwattr $C$DW$74, DW_AT_TI_begin_line(0x2e8)
	.dwattr $C$DW$74, DW_AT_TI_begin_column(0x07)
	.dwattr $C$DW$74, DW_AT_decl_file("../Source/tasks.c")
	.dwattr $C$DW$74, DW_AT_decl_line(0x2e8)
	.dwattr $C$DW$74, DW_AT_decl_column(0x07)
	.dwattr $C$DW$74, DW_AT_TI_max_frame_size(0x10)
	.dwpsn	file "../Source/tasks.c",line 745,column 2,is_stmt,address vTaskDelete,isa 1

	.dwfde $C$DW$CIE, vTaskDelete
$C$DW$75	.dwtag  DW_TAG_formal_parameter
	.dwattr $C$DW$75, DW_AT_name("xTaskToDelete")
	.dwattr $C$DW$75, DW_AT_TI_symbol_name("xTaskToDelete")
	.dwattr $C$DW$75, DW_AT_type(*$C$DW$T$65)
	.dwattr $C$DW$75, DW_AT_location[DW_OP_reg0]

;----------------------------------------------------------------------
; 744 | void vTaskDelete( TaskHandle_t xTaskToDelete )                         
;----------------------------------------------------------------------

;*****************************************************************************
;* FUNCTION NAME: vTaskDelete                                                *
;*                                                                           *
;*   Regs Modified     : A1,A2,A3,A4,V9,SP,LR,SR,D0,D0_hi,D1,D1_hi,D2,D2_hi, *
;*                           D3,D3_hi,D4,D4_hi,D5,D5_hi,D6,D6_hi,D7,D7_hi,   *
;*                           FPEXC,FPSCR                                     *
;*   Regs Used         : A1,A2,A3,A4,V9,SP,LR,SR,D0,D0_hi,D1,D1_hi,D2,D2_hi, *
;*                           D3,D3_hi,D4,D4_hi,D5,D5_hi,D6,D6_hi,D7,D7_hi,   *
;*                           FPEXC,FPSCR                                     *
;*   Local Frame Size  : 0 Args + 8 Auto + 4 Save = 12 byte                  *
;*****************************************************************************
vTaskDelete:
;* --------------------------------------------------------------------------*
	.dwcfi	cfa_offset, 0
        PUSH      {A2, A3, A4, LR}      ; [DPU_V7M3_PIPE] 
	.dwcfi	cfa_offset, 16
	.dwcfi	save_reg_to_mem, 14, -4
	.dwcfi	save_reg_to_mem, 3, -8
	.dwcfi	save_reg_to_mem, 2, -12
	.dwcfi	save_reg_to_mem, 1, -16
$C$DW$76	.dwtag  DW_TAG_variable
	.dwattr $C$DW$76, DW_AT_name("xTaskToDelete")
	.dwattr $C$DW$76, DW_AT_TI_symbol_name("xTaskToDelete")
	.dwattr $C$DW$76, DW_AT_type(*$C$DW$T$65)
	.dwattr $C$DW$76, DW_AT_location[DW_OP_breg13 0]

$C$DW$77	.dwtag  DW_TAG_variable
	.dwattr $C$DW$77, DW_AT_name("pxTCB")
	.dwattr $C$DW$77, DW_AT_TI_symbol_name("pxTCB")
	.dwattr $C$DW$77, DW_AT_type(*$C$DW$T$128)
	.dwattr $C$DW$77, DW_AT_location[DW_OP_breg13 4]

;----------------------------------------------------------------------
; 746 | TCB_t *pxTCB;                                                          
;----------------------------------------------------------------------
        STR       A1, [SP, #0]          ; [DPU_V7M3_PIPE] |745| 
	.dwpsn	file "../Source/tasks.c",line 748,column 3,is_stmt,isa 1
;----------------------------------------------------------------------
; 748 | taskENTER_CRITICAL();                                                  
;----------------------------------------------------------------------
$C$DW$78	.dwtag  DW_TAG_TI_branch
	.dwattr $C$DW$78, DW_AT_low_pc(0x00)
	.dwattr $C$DW$78, DW_AT_name("vPortEnterCritical")
	.dwattr $C$DW$78, DW_AT_TI_call

        BL        vPortEnterCritical    ; [DPU_V7M3_PIPE] |748| 
        ; CALL OCCURS {vPortEnterCritical }  ; [] |748| 
	.dwpsn	file "../Source/tasks.c",line 752,column 4,is_stmt,isa 1
;----------------------------------------------------------------------
; 752 | pxTCB = prvGetTCBFromHandle( xTaskToDelete );                          
;----------------------------------------------------------------------
        LDR       A1, [SP, #0]          ; [DPU_V7M3_PIPE] |752| 
        CBNZ      A1, ||$C$L7||         ; [] 
        ; BRANCHCC OCCURS {||$C$L7||}    ; [] |752| 
;* --------------------------------------------------------------------------*
        LDR       A1, $C$CON2           ; [DPU_V7M3_PIPE] |752| 
        LDR       A1, [A1, #0]          ; [DPU_V7M3_PIPE] |752| 
        B         ||$C$L8||             ; [DPU_V7M3_PIPE] |752| 
        ; BRANCH OCCURS {||$C$L8||}      ; [] |752| 
;* --------------------------------------------------------------------------*
||$C$L7||:    
        LDR       A1, [SP, #0]          ; [DPU_V7M3_PIPE] |752| 
;* --------------------------------------------------------------------------*
||$C$L8||:    
        STR       A1, [SP, #4]          ; [DPU_V7M3_PIPE] |752| 
	.dwpsn	file "../Source/tasks.c",line 758,column 4,is_stmt,isa 1
;----------------------------------------------------------------------
; 758 | if( uxListRemove( &( pxTCB->xGenericListItem ) ) == ( UBaseType_t ) 0 )
;----------------------------------------------------------------------
        LDR       A1, [SP, #4]          ; [DPU_V7M3_PIPE] |758| 
        ADDS      A1, A1, #4            ; [DPU_V7M3_PIPE] |758| 
$C$DW$79	.dwtag  DW_TAG_TI_branch
	.dwattr $C$DW$79, DW_AT_low_pc(0x00)
	.dwattr $C$DW$79, DW_AT_name("uxListRemove")
	.dwattr $C$DW$79, DW_AT_TI_call

        BL        uxListRemove          ; [DPU_V7M3_PIPE] |758| 
        ; CALL OCCURS {uxListRemove }    ; [] |758| 
        CBNZ      A1, ||$C$L9||         ; [] 
        ; BRANCHCC OCCURS {||$C$L9||}    ; [] |758| 
;* --------------------------------------------------------------------------*
	.dwpsn	file "../Source/tasks.c",line 760,column 5,is_stmt,isa 1
;----------------------------------------------------------------------
; 760 | taskRESET_READY_PRIORITY( pxTCB->uxPriority );                         
;----------------------------------------------------------------------
        LDR       A1, [SP, #4]          ; [DPU_V7M3_PIPE] |760| 
        LDR       A2, $C$CON6           ; [DPU_V7M3_PIPE] |760| 
        LDR       A3, [A1, #44]         ; [DPU_V7M3_PIPE] |760| 
        LSLS      A1, A3, #2            ; [DPU_V7M3_PIPE] |760| 
        ADD       A1, A1, A3, LSL #4    ; [DPU_V7M3_PIPE] |760| 
        LDR       A1, [A2, +A1]         ; [DPU_V7M3_PIPE] |760| 
        CBNZ      A1, ||$C$L9||         ; [] 
        ; BRANCHCC OCCURS {||$C$L9||}    ; [] |760| 
;* --------------------------------------------------------------------------*
        LDR       A1, [SP, #4]          ; [DPU_V7M3_PIPE] |760| 
        LDR       A3, $C$CON5           ; [DPU_V7M3_PIPE] |760| 
        LDR       A4, [A1, #44]         ; [DPU_V7M3_PIPE] |760| 
        LDR       A2, [A3, #0]          ; [DPU_V7M3_PIPE] |760| 
        MOVS      A1, #1                ; [DPU_V7M3_PIPE] |760| 
        LSLS      A1, A1, A4            ; [DPU_V7M3_PIPE] |760| 
        BICS      A2, A2, A1            ; [DPU_V7M3_PIPE] |760| 
        STR       A2, [A3, #0]          ; [DPU_V7M3_PIPE] |760| 
	.dwpsn	file "../Source/tasks.c",line 761,column 4,is_stmt,isa 1
;----------------------------------------------------------------------
; 762 | else                                                                   
; 764 |         mtCOVERAGE_TEST_MARKER();                                      
;----------------------------------------------------------------------
;* --------------------------------------------------------------------------*
||$C$L9||:    
	.dwpsn	file "../Source/tasks.c",line 768,column 4,is_stmt,isa 1
;----------------------------------------------------------------------
; 768 | if( listLIST_ITEM_CONTAINER( &( pxTCB->xEventListItem ) ) != NULL )    
;----------------------------------------------------------------------
        LDR       A1, [SP, #4]          ; [DPU_V7M3_PIPE] |768| 
        LDR       A1, [A1, #40]         ; [DPU_V7M3_PIPE] |768| 
        CBZ       A1, ||$C$L10||        ; [] 
        ; BRANCHCC OCCURS {||$C$L10||}   ; [] |768| 
;* --------------------------------------------------------------------------*
	.dwpsn	file "../Source/tasks.c",line 770,column 5,is_stmt,isa 1
;----------------------------------------------------------------------
; 770 | ( void ) uxListRemove( &( pxTCB->xEventListItem ) );                   
;----------------------------------------------------------------------
        LDR       A1, [SP, #4]          ; [DPU_V7M3_PIPE] |770| 
        ADDS      A1, A1, #24           ; [DPU_V7M3_PIPE] |770| 
$C$DW$80	.dwtag  DW_TAG_TI_branch
	.dwattr $C$DW$80, DW_AT_low_pc(0x00)
	.dwattr $C$DW$80, DW_AT_name("uxListRemove")
	.dwattr $C$DW$80, DW_AT_TI_call

        BL        uxListRemove          ; [DPU_V7M3_PIPE] |770| 
        ; CALL OCCURS {uxListRemove }    ; [] |770| 
	.dwpsn	file "../Source/tasks.c",line 771,column 4,is_stmt,isa 1
;----------------------------------------------------------------------
; 772 | else                                                                   
; 774 |         mtCOVERAGE_TEST_MARKER();                                      
;----------------------------------------------------------------------
;* --------------------------------------------------------------------------*
||$C$L10||:    
	.dwpsn	file "../Source/tasks.c",line 777,column 4,is_stmt,isa 1
;----------------------------------------------------------------------
; 777 | vListInsertEnd( &xTasksWaitingTermination, &( pxTCB->xGenericListItem )
;     |  );                                                                    
;----------------------------------------------------------------------
        LDR       A2, [SP, #4]          ; [DPU_V7M3_PIPE] |777| 
        LDR       A1, $C$CON7           ; [DPU_V7M3_PIPE] |777| 
        ADDS      A2, A2, #4            ; [DPU_V7M3_PIPE] |777| 
$C$DW$81	.dwtag  DW_TAG_TI_branch
	.dwattr $C$DW$81, DW_AT_low_pc(0x00)
	.dwattr $C$DW$81, DW_AT_name("vListInsertEnd")
	.dwattr $C$DW$81, DW_AT_TI_call

        BL        vListInsertEnd        ; [DPU_V7M3_PIPE] |777| 
        ; CALL OCCURS {vListInsertEnd }  ; [] |777| 
	.dwpsn	file "../Source/tasks.c",line 782,column 4,is_stmt,isa 1
;----------------------------------------------------------------------
; 782 | ++uxTasksDeleted;                                                      
;----------------------------------------------------------------------
        LDR       A2, $C$CON8           ; [DPU_V7M3_PIPE] |782| 
        LDR       A1, [A2, #0]          ; [DPU_V7M3_PIPE] |782| 
        ADDS      A1, A1, #1            ; [DPU_V7M3_PIPE] |782| 
        STR       A1, [A2, #0]          ; [DPU_V7M3_PIPE] |782| 
	.dwpsn	file "../Source/tasks.c",line 786,column 4,is_stmt,isa 1
;----------------------------------------------------------------------
; 786 | uxTaskNumber++;                                                        
; 788 | traceTASK_DELETE( pxTCB );                                             
;----------------------------------------------------------------------
        LDR       A2, $C$CON4           ; [DPU_V7M3_PIPE] |786| 
        LDR       A1, [A2, #0]          ; [DPU_V7M3_PIPE] |786| 
        ADDS      A1, A1, #1            ; [DPU_V7M3_PIPE] |786| 
        STR       A1, [A2, #0]          ; [DPU_V7M3_PIPE] |786| 
	.dwpsn	file "../Source/tasks.c",line 790,column 3,is_stmt,isa 1
;----------------------------------------------------------------------
; 790 | taskEXIT_CRITICAL();                                                   
;----------------------------------------------------------------------
$C$DW$82	.dwtag  DW_TAG_TI_branch
	.dwattr $C$DW$82, DW_AT_low_pc(0x00)
	.dwattr $C$DW$82, DW_AT_name("vPortExitCritical")
	.dwattr $C$DW$82, DW_AT_TI_call

        BL        vPortExitCritical     ; [DPU_V7M3_PIPE] |790| 
        ; CALL OCCURS {vPortExitCritical }  ; [] |790| 
	.dwpsn	file "../Source/tasks.c",line 794,column 3,is_stmt,isa 1
;----------------------------------------------------------------------
; 794 | if( xSchedulerRunning != pdFALSE )                                     
;----------------------------------------------------------------------
        LDR       A1, $C$CON3           ; [DPU_V7M3_PIPE] |794| 
        LDR       A1, [A1, #0]          ; [DPU_V7M3_PIPE] |794| 
        CBZ       A1, ||$C$L12||        ; [] 
        ; BRANCHCC OCCURS {||$C$L12||}   ; [] |794| 
;* --------------------------------------------------------------------------*
	.dwpsn	file "../Source/tasks.c",line 796,column 4,is_stmt,isa 1
;----------------------------------------------------------------------
; 796 | if( pxTCB == pxCurrentTCB )                                            
; 798 |         configASSERT( uxSchedulerSuspended == 0 );                     
; 805 |         portPRE_TASK_DELETE_HOOK( pxTCB, &xYieldPending );             
;----------------------------------------------------------------------
        LDR       A1, $C$CON2           ; [DPU_V7M3_PIPE] |796| 
        LDR       A2, [SP, #4]          ; [DPU_V7M3_PIPE] |796| 
        LDR       A1, [A1, #0]          ; [DPU_V7M3_PIPE] |796| 
        CMP       A1, A2                ; [DPU_V7M3_PIPE] |796| 
        BNE       ||$C$L11||            ; [DPU_V7M3_PIPE] |796| 
        ; BRANCHCC OCCURS {||$C$L11||}   ; [] |796| 
;* --------------------------------------------------------------------------*
	.dwpsn	file "../Source/tasks.c",line 806,column 5,is_stmt,isa 1
;----------------------------------------------------------------------
; 806 | portYIELD_WITHIN_API();                                                
;----------------------------------------------------------------------
        LDR       A2, $C$CON9           ; [DPU_V7M3_PIPE] |806| 
        MOV       A1, #268435456        ; [DPU_V7M3_PIPE] |806| 
        STR       A1, [A2, #0]          ; [DPU_V7M3_PIPE] |806| 
	dsb
	isb
	.dwpsn	file "../Source/tasks.c",line 807,column 4,is_stmt,isa 1
;----------------------------------------------------------------------
; 808 | else                                                                   
;----------------------------------------------------------------------
        B         ||$C$L12||            ; [DPU_V7M3_PIPE] |807| 
        ; BRANCH OCCURS {||$C$L12||}     ; [] |807| 
;* --------------------------------------------------------------------------*
||$C$L11||:    
	.dwpsn	file "../Source/tasks.c",line 812,column 5,is_stmt,isa 1
;----------------------------------------------------------------------
; 812 | taskENTER_CRITICAL();                                                  
;----------------------------------------------------------------------
$C$DW$83	.dwtag  DW_TAG_TI_branch
	.dwattr $C$DW$83, DW_AT_low_pc(0x00)
	.dwattr $C$DW$83, DW_AT_name("vPortEnterCritical")
	.dwattr $C$DW$83, DW_AT_TI_call

        BL        vPortEnterCritical    ; [DPU_V7M3_PIPE] |812| 
        ; CALL OCCURS {vPortEnterCritical }  ; [] |812| 
	.dwpsn	file "../Source/tasks.c",line 814,column 6,is_stmt,isa 1
;----------------------------------------------------------------------
; 814 | prvResetNextTaskUnblockTime();                                         
;----------------------------------------------------------------------
$C$DW$84	.dwtag  DW_TAG_TI_branch
	.dwattr $C$DW$84, DW_AT_low_pc(0x00)
	.dwattr $C$DW$84, DW_AT_name("prvResetNextTaskUnblockTime")
	.dwattr $C$DW$84, DW_AT_TI_call

        BL        prvResetNextTaskUnblockTime ; [DPU_V7M3_PIPE] |814| 
        ; CALL OCCURS {prvResetNextTaskUnblockTime }  ; [] |814| 
	.dwpsn	file "../Source/tasks.c",line 816,column 5,is_stmt,isa 1
;----------------------------------------------------------------------
; 816 | taskEXIT_CRITICAL();                                                   
;----------------------------------------------------------------------
$C$DW$85	.dwtag  DW_TAG_TI_branch
	.dwattr $C$DW$85, DW_AT_low_pc(0x00)
	.dwattr $C$DW$85, DW_AT_name("vPortExitCritical")
	.dwattr $C$DW$85, DW_AT_TI_call

        BL        vPortExitCritical     ; [DPU_V7M3_PIPE] |816| 
        ; CALL OCCURS {vPortExitCritical }  ; [] |816| 
	.dwpsn	file "../Source/tasks.c",line 819,column 2,is_stmt,isa 1
;* --------------------------------------------------------------------------*
||$C$L12||:    
$C$DW$86	.dwtag  DW_TAG_TI_branch
	.dwattr $C$DW$86, DW_AT_low_pc(0x00)
	.dwattr $C$DW$86, DW_AT_TI_return

        POP       {A2, A3, A4, PC}      ; [DPU_V7M3_PIPE] 
	.dwcfi	cfa_offset, 0
	.dwcfi	restore_reg, 3
	.dwcfi	restore_reg, 2
	.dwcfi	restore_reg, 1
        ; BRANCH OCCURS                  ; [] 
	.dwattr $C$DW$74, DW_AT_TI_end_file("../Source/tasks.c")
	.dwattr $C$DW$74, DW_AT_TI_end_line(0x333)
	.dwattr $C$DW$74, DW_AT_TI_end_column(0x02)
	.dwendentry
	.dwendtag $C$DW$74

	.sect	".text"
	.clink
	.thumbfunc vTaskDelayUntil
	.thumb
	.global	vTaskDelayUntil

$C$DW$87	.dwtag  DW_TAG_subprogram
	.dwattr $C$DW$87, DW_AT_name("vTaskDelayUntil")
	.dwattr $C$DW$87, DW_AT_low_pc(vTaskDelayUntil)
	.dwattr $C$DW$87, DW_AT_high_pc(0x00)
	.dwattr $C$DW$87, DW_AT_TI_symbol_name("vTaskDelayUntil")
	.dwattr $C$DW$87, DW_AT_external
	.dwattr $C$DW$87, DW_AT_TI_begin_file("../Source/tasks.c")
	.dwattr $C$DW$87, DW_AT_TI_begin_line(0x33a)
	.dwattr $C$DW$87, DW_AT_TI_begin_column(0x07)
	.dwattr $C$DW$87, DW_AT_decl_file("../Source/tasks.c")
	.dwattr $C$DW$87, DW_AT_decl_line(0x33a)
	.dwattr $C$DW$87, DW_AT_decl_column(0x07)
	.dwattr $C$DW$87, DW_AT_TI_max_frame_size(0x20)
	.dwpsn	file "../Source/tasks.c",line 827,column 2,is_stmt,address vTaskDelayUntil,isa 1

	.dwfde $C$DW$CIE, vTaskDelayUntil
$C$DW$88	.dwtag  DW_TAG_formal_parameter
	.dwattr $C$DW$88, DW_AT_name("pxPreviousWakeTime")
	.dwattr $C$DW$88, DW_AT_TI_symbol_name("pxPreviousWakeTime")
	.dwattr $C$DW$88, DW_AT_type(*$C$DW$T$109)
	.dwattr $C$DW$88, DW_AT_location[DW_OP_reg0]

$C$DW$89	.dwtag  DW_TAG_formal_parameter
	.dwattr $C$DW$89, DW_AT_name("xTimeIncrement")
	.dwattr $C$DW$89, DW_AT_TI_symbol_name("xTimeIncrement")
	.dwattr $C$DW$89, DW_AT_type(*$C$DW$T$110)
	.dwattr $C$DW$89, DW_AT_location[DW_OP_reg1]

;----------------------------------------------------------------------
; 826 | void vTaskDelayUntil( TickType_t * const pxPreviousWakeTime, const Tick
;     | Type_t xTimeIncrement )                                                
;----------------------------------------------------------------------

;*****************************************************************************
;* FUNCTION NAME: vTaskDelayUntil                                            *
;*                                                                           *
;*   Regs Modified     : A1,A2,A3,A4,V9,SP,LR,SR,D0,D0_hi,D1,D1_hi,D2,D2_hi, *
;*                           D3,D3_hi,D4,D4_hi,D5,D5_hi,D6,D6_hi,D7,D7_hi,   *
;*                           FPEXC,FPSCR                                     *
;*   Regs Used         : A1,A2,A3,A4,V9,SP,LR,SR,D0,D0_hi,D1,D1_hi,D2,D2_hi, *
;*                           D3,D3_hi,D4,D4_hi,D5,D5_hi,D6,D6_hi,D7,D7_hi,   *
;*                           FPEXC,FPSCR                                     *
;*   Local Frame Size  : 0 Args + 24 Auto + 4 Save = 28 byte                 *
;*****************************************************************************
vTaskDelayUntil:
;* --------------------------------------------------------------------------*
	.dwcfi	cfa_offset, 0
        PUSH      {LR}                  ; [DPU_V7M3_PIPE] 
	.dwcfi	cfa_offset, 4
	.dwcfi	save_reg_to_mem, 14, -4
        SUB       SP, SP, #28           ; [DPU_V7M3_PIPE] 
	.dwcfi	cfa_offset, 32
$C$DW$90	.dwtag  DW_TAG_variable
	.dwattr $C$DW$90, DW_AT_name("pxPreviousWakeTime")
	.dwattr $C$DW$90, DW_AT_TI_symbol_name("pxPreviousWakeTime")
	.dwattr $C$DW$90, DW_AT_type(*$C$DW$T$109)
	.dwattr $C$DW$90, DW_AT_location[DW_OP_breg13 0]

$C$DW$91	.dwtag  DW_TAG_variable
	.dwattr $C$DW$91, DW_AT_name("xTimeIncrement")
	.dwattr $C$DW$91, DW_AT_TI_symbol_name("xTimeIncrement")
	.dwattr $C$DW$91, DW_AT_type(*$C$DW$T$110)
	.dwattr $C$DW$91, DW_AT_location[DW_OP_breg13 4]

$C$DW$92	.dwtag  DW_TAG_variable
	.dwattr $C$DW$92, DW_AT_name("xTimeToWake")
	.dwattr $C$DW$92, DW_AT_TI_symbol_name("xTimeToWake")
	.dwattr $C$DW$92, DW_AT_type(*$C$DW$T$49)
	.dwattr $C$DW$92, DW_AT_location[DW_OP_breg13 8]

$C$DW$93	.dwtag  DW_TAG_variable
	.dwattr $C$DW$93, DW_AT_name("xAlreadyYielded")
	.dwattr $C$DW$93, DW_AT_TI_symbol_name("xAlreadyYielded")
	.dwattr $C$DW$93, DW_AT_type(*$C$DW$T$71)
	.dwattr $C$DW$93, DW_AT_location[DW_OP_breg13 12]

$C$DW$94	.dwtag  DW_TAG_variable
	.dwattr $C$DW$94, DW_AT_name("xShouldDelay")
	.dwattr $C$DW$94, DW_AT_TI_symbol_name("xShouldDelay")
	.dwattr $C$DW$94, DW_AT_type(*$C$DW$T$71)
	.dwattr $C$DW$94, DW_AT_location[DW_OP_breg13 16]

;----------------------------------------------------------------------
; 828 | TickType_t xTimeToWake;                                                
;----------------------------------------------------------------------
        STR       A2, [SP, #4]          ; [DPU_V7M3_PIPE] |827| 
        STR       A1, [SP, #0]          ; [DPU_V7M3_PIPE] |827| 
	.dwpsn	file "../Source/tasks.c",line 829,column 43,is_stmt,isa 1
;----------------------------------------------------------------------
; 829 | BaseType_t xAlreadyYielded, xShouldDelay = pdFALSE;                    
; 831 |         configASSERT( pxPreviousWakeTime );                            
; 832 |         configASSERT( ( xTimeIncrement > 0U ) );                       
; 833 |         configASSERT( uxSchedulerSuspended == 0 );                     
;----------------------------------------------------------------------
        MOVS      A1, #0                ; [DPU_V7M3_PIPE] |829| 
        STR       A1, [SP, #16]         ; [DPU_V7M3_PIPE] |829| 
	.dwpsn	file "../Source/tasks.c",line 835,column 3,is_stmt,isa 1
;----------------------------------------------------------------------
; 835 | vTaskSuspendAll();                                                     
;----------------------------------------------------------------------
$C$DW$95	.dwtag  DW_TAG_TI_branch
	.dwattr $C$DW$95, DW_AT_low_pc(0x00)
	.dwattr $C$DW$95, DW_AT_name("vTaskSuspendAll")
	.dwattr $C$DW$95, DW_AT_TI_call

        BL        vTaskSuspendAll       ; [DPU_V7M3_PIPE] |835| 
        ; CALL OCCURS {vTaskSuspendAll }  ; [] |835| 

$C$DW$96	.dwtag  DW_TAG_lexical_block
	.dwattr $C$DW$96, DW_AT_low_pc(0x00)
	.dwattr $C$DW$96, DW_AT_high_pc(0x00)
$C$DW$97	.dwtag  DW_TAG_variable
	.dwattr $C$DW$97, DW_AT_name("xConstTickCount")
	.dwattr $C$DW$97, DW_AT_TI_symbol_name("xConstTickCount")
	.dwattr $C$DW$97, DW_AT_type(*$C$DW$T$110)
	.dwattr $C$DW$97, DW_AT_location[DW_OP_breg13 20]

	.dwpsn	file "../Source/tasks.c",line 839,column 37,is_stmt,isa 1
;----------------------------------------------------------------------
; 839 | const TickType_t xConstTickCount = xTickCount;                         
;----------------------------------------------------------------------
        LDR       A1, $C$CON10          ; [DPU_V7M3_PIPE] |839| 
        LDR       A1, [A1, #0]          ; [DPU_V7M3_PIPE] |839| 
        STR       A1, [SP, #20]         ; [DPU_V7M3_PIPE] |839| 
	.dwpsn	file "../Source/tasks.c",line 842,column 4,is_stmt,isa 1
;----------------------------------------------------------------------
; 842 | xTimeToWake = *pxPreviousWakeTime + xTimeIncrement;                    
;----------------------------------------------------------------------
        LDR       A1, [SP, #0]          ; [DPU_V7M3_PIPE] |842| 
        LDR       A2, [SP, #4]          ; [DPU_V7M3_PIPE] |842| 
        LDR       A1, [A1, #0]          ; [DPU_V7M3_PIPE] |842| 
        ADDS      A1, A1, A2            ; [DPU_V7M3_PIPE] |842| 
        STR       A1, [SP, #8]          ; [DPU_V7M3_PIPE] |842| 
	.dwpsn	file "../Source/tasks.c",line 844,column 4,is_stmt,isa 1
;----------------------------------------------------------------------
; 844 | if( xConstTickCount < *pxPreviousWakeTime )                            
;----------------------------------------------------------------------
        LDR       A1, [SP, #0]          ; [DPU_V7M3_PIPE] |844| 
        LDR       A2, [SP, #20]         ; [DPU_V7M3_PIPE] |844| 
        LDR       A1, [A1, #0]          ; [DPU_V7M3_PIPE] |844| 
        CMP       A1, A2                ; [DPU_V7M3_PIPE] |844| 
        BLS       ||$C$L13||            ; [DPU_V7M3_PIPE] |844| 
        ; BRANCHCC OCCURS {||$C$L13||}   ; [] |844| 
;* --------------------------------------------------------------------------*
	.dwpsn	file "../Source/tasks.c",line 851,column 5,is_stmt,isa 1
;----------------------------------------------------------------------
; 851 | if( ( xTimeToWake < *pxPreviousWakeTime ) && ( xTimeToWake > xConstTick
;     | Count ) )                                                              
;----------------------------------------------------------------------
        LDR       A1, [SP, #0]          ; [DPU_V7M3_PIPE] |851| 
        LDR       A2, [SP, #8]          ; [DPU_V7M3_PIPE] |851| 
        LDR       A1, [A1, #0]          ; [DPU_V7M3_PIPE] |851| 
        CMP       A1, A2                ; [DPU_V7M3_PIPE] |851| 
        BLS       ||$C$L15||            ; [DPU_V7M3_PIPE] |851| 
        ; BRANCHCC OCCURS {||$C$L15||}   ; [] |851| 
;* --------------------------------------------------------------------------*
        LDR       A1, [SP, #20]         ; [DPU_V7M3_PIPE] |851| 
        LDR       A2, [SP, #8]          ; [DPU_V7M3_PIPE] |851| 
        CMP       A1, A2                ; [DPU_V7M3_PIPE] |851| 
        BCS       ||$C$L15||            ; [DPU_V7M3_PIPE] |851| 
        ; BRANCHCC OCCURS {||$C$L15||}   ; [] |851| 
;* --------------------------------------------------------------------------*
	.dwpsn	file "../Source/tasks.c",line 853,column 6,is_stmt,isa 1
;----------------------------------------------------------------------
; 853 | xShouldDelay = pdTRUE;                                                 
;----------------------------------------------------------------------
        MOVS      A1, #1                ; [DPU_V7M3_PIPE] |853| 
        STR       A1, [SP, #16]         ; [DPU_V7M3_PIPE] |853| 
	.dwpsn	file "../Source/tasks.c",line 854,column 5,is_stmt,isa 1
;----------------------------------------------------------------------
; 855 | else                                                                   
; 857 |         mtCOVERAGE_TEST_MARKER();                                      
; 860 | else                                                                   
;----------------------------------------------------------------------
        B         ||$C$L15||            ; [DPU_V7M3_PIPE] |854| 
        ; BRANCH OCCURS {||$C$L15||}     ; [] |854| 
;* --------------------------------------------------------------------------*
;* --------------------------------------------------------------------------*
||$C$L13||:    
	.dwpsn	file "../Source/tasks.c",line 865,column 5,is_stmt,isa 1
;----------------------------------------------------------------------
; 865 | if( ( xTimeToWake < *pxPreviousWakeTime ) || ( xTimeToWake > xConstTick
;     | Count ) )                                                              
;----------------------------------------------------------------------
        LDR       A1, [SP, #0]          ; [DPU_V7M3_PIPE] |865| 
        LDR       A2, [SP, #8]          ; [DPU_V7M3_PIPE] |865| 
        LDR       A1, [A1, #0]          ; [DPU_V7M3_PIPE] |865| 
        CMP       A1, A2                ; [DPU_V7M3_PIPE] |865| 
        BHI       ||$C$L14||            ; [DPU_V7M3_PIPE] |865| 
        ; BRANCHCC OCCURS {||$C$L14||}   ; [] |865| 
;* --------------------------------------------------------------------------*
        LDR       A1, [SP, #20]         ; [DPU_V7M3_PIPE] |865| 
        LDR       A2, [SP, #8]          ; [DPU_V7M3_PIPE] |865| 
        CMP       A1, A2                ; [DPU_V7M3_PIPE] |865| 
        BCS       ||$C$L15||            ; [DPU_V7M3_PIPE] |865| 
        ; BRANCHCC OCCURS {||$C$L15||}   ; [] |865| 
;* --------------------------------------------------------------------------*
||$C$L14||:    
	.dwpsn	file "../Source/tasks.c",line 867,column 6,is_stmt,isa 1
;----------------------------------------------------------------------
; 867 | xShouldDelay = pdTRUE;                                                 
;----------------------------------------------------------------------
        MOVS      A1, #1                ; [DPU_V7M3_PIPE] |867| 
        STR       A1, [SP, #16]         ; [DPU_V7M3_PIPE] |867| 
	.dwpsn	file "../Source/tasks.c",line 868,column 5,is_stmt,isa 1
;----------------------------------------------------------------------
; 869 | else                                                                   
; 871 |         mtCOVERAGE_TEST_MARKER();                                      
;----------------------------------------------------------------------
;* --------------------------------------------------------------------------*
||$C$L15||:    
	.dwpsn	file "../Source/tasks.c",line 876,column 4,is_stmt,isa 1
;----------------------------------------------------------------------
; 876 | *pxPreviousWakeTime = xTimeToWake;                                     
;----------------------------------------------------------------------
        LDR       A1, [SP, #8]          ; [DPU_V7M3_PIPE] |876| 
        LDR       A2, [SP, #0]          ; [DPU_V7M3_PIPE] |876| 
        STR       A1, [A2, #0]          ; [DPU_V7M3_PIPE] |876| 
	.dwpsn	file "../Source/tasks.c",line 878,column 4,is_stmt,isa 1
;----------------------------------------------------------------------
; 878 | if( xShouldDelay != pdFALSE )                                          
; 880 |         traceTASK_DELAY_UNTIL();                                       
;----------------------------------------------------------------------
        LDR       A1, [SP, #16]         ; [DPU_V7M3_PIPE] |878| 
        CBZ       A1, ||$C$L17||        ; [] 
        ; BRANCHCC OCCURS {||$C$L17||}   ; [] |878| 
;* --------------------------------------------------------------------------*
	.dwpsn	file "../Source/tasks.c",line 884,column 5,is_stmt,isa 1
;----------------------------------------------------------------------
; 884 | if( uxListRemove( &( pxCurrentTCB->xGenericListItem ) ) == ( UBaseType_
;     | t ) 0 )                                                                
;----------------------------------------------------------------------
        LDR       A1, $C$CON2           ; [DPU_V7M3_PIPE] |884| 
        LDR       A1, [A1, #0]          ; [DPU_V7M3_PIPE] |884| 
        ADDS      A1, A1, #4            ; [DPU_V7M3_PIPE] |884| 
$C$DW$98	.dwtag  DW_TAG_TI_branch
	.dwattr $C$DW$98, DW_AT_low_pc(0x00)
	.dwattr $C$DW$98, DW_AT_name("uxListRemove")
	.dwattr $C$DW$98, DW_AT_TI_call

        BL        uxListRemove          ; [DPU_V7M3_PIPE] |884| 
        ; CALL OCCURS {uxListRemove }    ; [] |884| 
        CBNZ      A1, ||$C$L16||        ; [] 
        ; BRANCHCC OCCURS {||$C$L16||}   ; [] |884| 
;* --------------------------------------------------------------------------*
	.dwpsn	file "../Source/tasks.c",line 889,column 6,is_stmt,isa 1
;----------------------------------------------------------------------
; 889 | portRESET_READY_PRIORITY( pxCurrentTCB->uxPriority, uxTopReadyPriority
;     | );                                                                     
;----------------------------------------------------------------------
        LDR       A1, $C$CON2           ; [DPU_V7M3_PIPE] |889| 
        LDR       A1, [A1, #0]          ; [DPU_V7M3_PIPE] |889| 
        LDR       A3, $C$CON5           ; [DPU_V7M3_PIPE] |889| 
        LDR       A4, [A1, #44]         ; [DPU_V7M3_PIPE] |889| 
        LDR       A2, [A3, #0]          ; [DPU_V7M3_PIPE] |889| 
        MOVS      A1, #1                ; [DPU_V7M3_PIPE] |889| 
        LSLS      A1, A1, A4            ; [DPU_V7M3_PIPE] |889| 
        BICS      A2, A2, A1            ; [DPU_V7M3_PIPE] |889| 
        STR       A2, [A3, #0]          ; [DPU_V7M3_PIPE] |889| 
	.dwpsn	file "../Source/tasks.c",line 890,column 5,is_stmt,isa 1
;----------------------------------------------------------------------
; 891 | else                                                                   
; 893 |         mtCOVERAGE_TEST_MARKER();                                      
;----------------------------------------------------------------------
;* --------------------------------------------------------------------------*
||$C$L16||:    
	.dwpsn	file "../Source/tasks.c",line 896,column 5,is_stmt,isa 1
;----------------------------------------------------------------------
; 896 | prvAddCurrentTaskToDelayedList( xTimeToWake );                         
;----------------------------------------------------------------------
        LDR       A1, [SP, #8]          ; [DPU_V7M3_PIPE] |896| 
$C$DW$99	.dwtag  DW_TAG_TI_branch
	.dwattr $C$DW$99, DW_AT_low_pc(0x00)
	.dwattr $C$DW$99, DW_AT_name("prvAddCurrentTaskToDelayedList")
	.dwattr $C$DW$99, DW_AT_TI_call

        BL        prvAddCurrentTaskToDelayedList ; [DPU_V7M3_PIPE] |896| 
        ; CALL OCCURS {prvAddCurrentTaskToDelayedList }  ; [] |896| 
	.dwpsn	file "../Source/tasks.c",line 897,column 4,is_stmt,isa 1
;----------------------------------------------------------------------
; 898 | else                                                                   
; 900 |         mtCOVERAGE_TEST_MARKER();                                      
;----------------------------------------------------------------------
;* --------------------------------------------------------------------------*
||$C$L17||:    
	.dwendtag $C$DW$96

	.dwpsn	file "../Source/tasks.c",line 903,column 3,is_stmt,isa 1
;----------------------------------------------------------------------
; 903 | xAlreadyYielded = xTaskResumeAll();                                    
;----------------------------------------------------------------------
$C$DW$100	.dwtag  DW_TAG_TI_branch
	.dwattr $C$DW$100, DW_AT_low_pc(0x00)
	.dwattr $C$DW$100, DW_AT_name("xTaskResumeAll")
	.dwattr $C$DW$100, DW_AT_TI_call

        BL        xTaskResumeAll        ; [DPU_V7M3_PIPE] |903| 
        ; CALL OCCURS {xTaskResumeAll }  ; [] |903| 
        STR       A1, [SP, #12]         ; [DPU_V7M3_PIPE] |903| 
	.dwpsn	file "../Source/tasks.c",line 907,column 3,is_stmt,isa 1
;----------------------------------------------------------------------
; 907 | if( xAlreadyYielded == pdFALSE )                                       
;----------------------------------------------------------------------
        LDR       A1, [SP, #12]         ; [DPU_V7M3_PIPE] |907| 
        CBNZ      A1, ||$C$L18||        ; [] 
        ; BRANCHCC OCCURS {||$C$L18||}   ; [] |907| 
;* --------------------------------------------------------------------------*
	.dwpsn	file "../Source/tasks.c",line 909,column 4,is_stmt,isa 1
;----------------------------------------------------------------------
; 909 | portYIELD_WITHIN_API();                                                
;----------------------------------------------------------------------
        LDR       A2, $C$CON9           ; [DPU_V7M3_PIPE] |909| 
        MOV       A1, #268435456        ; [DPU_V7M3_PIPE] |909| 
        STR       A1, [A2, #0]          ; [DPU_V7M3_PIPE] |909| 
	dsb
	isb
	.dwpsn	file "../Source/tasks.c",line 910,column 3,is_stmt,isa 1
;----------------------------------------------------------------------
; 911 | else                                                                   
; 913 |         mtCOVERAGE_TEST_MARKER();                                      
;----------------------------------------------------------------------
        B         ||$C$L18||            ; [DPU_V7M3_PIPE] |910| 
        ; BRANCH OCCURS {||$C$L18||}     ; [] |910| 
;* --------------------------------------------------------------------------*
;* --------------------------------------------------------------------------*
||$C$L18||:    
        ADD       SP, SP, #28           ; [DPU_V7M3_PIPE] 
	.dwcfi	cfa_offset, 4
$C$DW$101	.dwtag  DW_TAG_TI_branch
	.dwattr $C$DW$101, DW_AT_low_pc(0x00)
	.dwattr $C$DW$101, DW_AT_TI_return

        POP       {PC}                  ; [DPU_V7M3_PIPE] 
	.dwcfi	cfa_offset, 0
        ; BRANCH OCCURS                  ; [] 
	.dwattr $C$DW$87, DW_AT_TI_end_file("../Source/tasks.c")
	.dwattr $C$DW$87, DW_AT_TI_end_line(0x393)
	.dwattr $C$DW$87, DW_AT_TI_end_column(0x02)
	.dwendentry
	.dwendtag $C$DW$87

	.sect	".text"
	.clink
	.thumbfunc vTaskDelay
	.thumb
	.global	vTaskDelay

$C$DW$102	.dwtag  DW_TAG_subprogram
	.dwattr $C$DW$102, DW_AT_name("vTaskDelay")
	.dwattr $C$DW$102, DW_AT_low_pc(vTaskDelay)
	.dwattr $C$DW$102, DW_AT_high_pc(0x00)
	.dwattr $C$DW$102, DW_AT_TI_symbol_name("vTaskDelay")
	.dwattr $C$DW$102, DW_AT_external
	.dwattr $C$DW$102, DW_AT_TI_begin_file("../Source/tasks.c")
	.dwattr $C$DW$102, DW_AT_TI_begin_line(0x39a)
	.dwattr $C$DW$102, DW_AT_TI_begin_column(0x07)
	.dwattr $C$DW$102, DW_AT_decl_file("../Source/tasks.c")
	.dwattr $C$DW$102, DW_AT_decl_line(0x39a)
	.dwattr $C$DW$102, DW_AT_decl_column(0x07)
	.dwattr $C$DW$102, DW_AT_TI_max_frame_size(0x10)
	.dwpsn	file "../Source/tasks.c",line 923,column 2,is_stmt,address vTaskDelay,isa 1

	.dwfde $C$DW$CIE, vTaskDelay
$C$DW$103	.dwtag  DW_TAG_formal_parameter
	.dwattr $C$DW$103, DW_AT_name("xTicksToDelay")
	.dwattr $C$DW$103, DW_AT_TI_symbol_name("xTicksToDelay")
	.dwattr $C$DW$103, DW_AT_type(*$C$DW$T$110)
	.dwattr $C$DW$103, DW_AT_location[DW_OP_reg0]

;----------------------------------------------------------------------
; 922 | void vTaskDelay( const TickType_t xTicksToDelay )                      
;----------------------------------------------------------------------

;*****************************************************************************
;* FUNCTION NAME: vTaskDelay                                                 *
;*                                                                           *
;*   Regs Modified     : A1,A2,A3,A4,V9,SP,LR,SR,D0,D0_hi,D1,D1_hi,D2,D2_hi, *
;*                           D3,D3_hi,D4,D4_hi,D5,D5_hi,D6,D6_hi,D7,D7_hi,   *
;*                           FPEXC,FPSCR                                     *
;*   Regs Used         : A1,A2,A3,A4,V9,SP,LR,SR,D0,D0_hi,D1,D1_hi,D2,D2_hi, *
;*                           D3,D3_hi,D4,D4_hi,D5,D5_hi,D6,D6_hi,D7,D7_hi,   *
;*                           FPEXC,FPSCR                                     *
;*   Local Frame Size  : 0 Args + 12 Auto + 4 Save = 16 byte                 *
;*****************************************************************************
vTaskDelay:
;* --------------------------------------------------------------------------*
	.dwcfi	cfa_offset, 0
        PUSH      {A2, A3, A4, LR}      ; [DPU_V7M3_PIPE] 
	.dwcfi	cfa_offset, 16
	.dwcfi	save_reg_to_mem, 14, -4
	.dwcfi	save_reg_to_mem, 3, -8
	.dwcfi	save_reg_to_mem, 2, -12
	.dwcfi	save_reg_to_mem, 1, -16
$C$DW$104	.dwtag  DW_TAG_variable
	.dwattr $C$DW$104, DW_AT_name("xTicksToDelay")
	.dwattr $C$DW$104, DW_AT_TI_symbol_name("xTicksToDelay")
	.dwattr $C$DW$104, DW_AT_type(*$C$DW$T$110)
	.dwattr $C$DW$104, DW_AT_location[DW_OP_breg13 0]

$C$DW$105	.dwtag  DW_TAG_variable
	.dwattr $C$DW$105, DW_AT_name("xTimeToWake")
	.dwattr $C$DW$105, DW_AT_TI_symbol_name("xTimeToWake")
	.dwattr $C$DW$105, DW_AT_type(*$C$DW$T$49)
	.dwattr $C$DW$105, DW_AT_location[DW_OP_breg13 4]

$C$DW$106	.dwtag  DW_TAG_variable
	.dwattr $C$DW$106, DW_AT_name("xAlreadyYielded")
	.dwattr $C$DW$106, DW_AT_TI_symbol_name("xAlreadyYielded")
	.dwattr $C$DW$106, DW_AT_type(*$C$DW$T$71)
	.dwattr $C$DW$106, DW_AT_location[DW_OP_breg13 8]

;----------------------------------------------------------------------
; 924 | TickType_t xTimeToWake;                                                
;----------------------------------------------------------------------
        STR       A1, [SP, #0]          ; [DPU_V7M3_PIPE] |923| 
	.dwpsn	file "../Source/tasks.c",line 925,column 29,is_stmt,isa 1
;----------------------------------------------------------------------
; 925 | BaseType_t xAlreadyYielded = pdFALSE;                                  
;----------------------------------------------------------------------
        MOVS      A1, #0                ; [DPU_V7M3_PIPE] |925| 
        STR       A1, [SP, #8]          ; [DPU_V7M3_PIPE] |925| 
	.dwpsn	file "../Source/tasks.c",line 929,column 3,is_stmt,isa 1
;----------------------------------------------------------------------
; 929 | if( xTicksToDelay > ( TickType_t ) 0U )                                
; 931 |         configASSERT( uxSchedulerSuspended == 0 );                     
;----------------------------------------------------------------------
        LDR       A1, [SP, #0]          ; [DPU_V7M3_PIPE] |929| 
        CBZ       A1, ||$C$L20||        ; [] 
        ; BRANCHCC OCCURS {||$C$L20||}   ; [] |929| 
;* --------------------------------------------------------------------------*
	.dwpsn	file "../Source/tasks.c",line 932,column 4,is_stmt,isa 1
;----------------------------------------------------------------------
; 932 | vTaskSuspendAll();                                                     
; 934 |         traceTASK_DELAY();                                             
;----------------------------------------------------------------------
$C$DW$107	.dwtag  DW_TAG_TI_branch
	.dwattr $C$DW$107, DW_AT_low_pc(0x00)
	.dwattr $C$DW$107, DW_AT_name("vTaskSuspendAll")
	.dwattr $C$DW$107, DW_AT_TI_call

        BL        vTaskSuspendAll       ; [DPU_V7M3_PIPE] |932| 
        ; CALL OCCURS {vTaskSuspendAll }  ; [] |932| 
	.dwpsn	file "../Source/tasks.c",line 946,column 5,is_stmt,isa 1
;----------------------------------------------------------------------
; 946 | xTimeToWake = xTickCount + xTicksToDelay;                              
;----------------------------------------------------------------------
        LDR       A1, $C$CON10          ; [DPU_V7M3_PIPE] |946| 
        LDR       A2, [SP, #0]          ; [DPU_V7M3_PIPE] |946| 
        LDR       A1, [A1, #0]          ; [DPU_V7M3_PIPE] |946| 
        ADDS      A1, A1, A2            ; [DPU_V7M3_PIPE] |946| 
        STR       A1, [SP, #4]          ; [DPU_V7M3_PIPE] |946| 
	.dwpsn	file "../Source/tasks.c",line 951,column 5,is_stmt,isa 1
;----------------------------------------------------------------------
; 951 | if( uxListRemove( &( pxCurrentTCB->xGenericListItem ) ) == ( UBaseType_
;     | t ) 0 )                                                                
;----------------------------------------------------------------------
        LDR       A1, $C$CON2           ; [DPU_V7M3_PIPE] |951| 
        LDR       A1, [A1, #0]          ; [DPU_V7M3_PIPE] |951| 
        ADDS      A1, A1, #4            ; [DPU_V7M3_PIPE] |951| 
$C$DW$108	.dwtag  DW_TAG_TI_branch
	.dwattr $C$DW$108, DW_AT_low_pc(0x00)
	.dwattr $C$DW$108, DW_AT_name("uxListRemove")
	.dwattr $C$DW$108, DW_AT_TI_call

        BL        uxListRemove          ; [DPU_V7M3_PIPE] |951| 
        ; CALL OCCURS {uxListRemove }    ; [] |951| 
        CBNZ      A1, ||$C$L19||        ; [] 
        ; BRANCHCC OCCURS {||$C$L19||}   ; [] |951| 
;* --------------------------------------------------------------------------*
	.dwpsn	file "../Source/tasks.c",line 956,column 6,is_stmt,isa 1
;----------------------------------------------------------------------
; 956 | portRESET_READY_PRIORITY( pxCurrentTCB->uxPriority, uxTopReadyPriority
;     | );                                                                     
;----------------------------------------------------------------------
        LDR       A1, $C$CON2           ; [DPU_V7M3_PIPE] |956| 
        LDR       A1, [A1, #0]          ; [DPU_V7M3_PIPE] |956| 
        LDR       A3, $C$CON5           ; [DPU_V7M3_PIPE] |956| 
        LDR       A4, [A1, #44]         ; [DPU_V7M3_PIPE] |956| 
        LDR       A2, [A3, #0]          ; [DPU_V7M3_PIPE] |956| 
        MOVS      A1, #1                ; [DPU_V7M3_PIPE] |956| 
        LSLS      A1, A1, A4            ; [DPU_V7M3_PIPE] |956| 
        BICS      A2, A2, A1            ; [DPU_V7M3_PIPE] |956| 
        STR       A2, [A3, #0]          ; [DPU_V7M3_PIPE] |956| 
	.dwpsn	file "../Source/tasks.c",line 957,column 5,is_stmt,isa 1
;----------------------------------------------------------------------
; 958 | else                                                                   
; 960 |         mtCOVERAGE_TEST_MARKER();                                      
;----------------------------------------------------------------------
;* --------------------------------------------------------------------------*
||$C$L19||:    
	.dwpsn	file "../Source/tasks.c",line 962,column 5,is_stmt,isa 1
;----------------------------------------------------------------------
; 962 | prvAddCurrentTaskToDelayedList( xTimeToWake );                         
;----------------------------------------------------------------------
        LDR       A1, [SP, #4]          ; [DPU_V7M3_PIPE] |962| 
$C$DW$109	.dwtag  DW_TAG_TI_branch
	.dwattr $C$DW$109, DW_AT_low_pc(0x00)
	.dwattr $C$DW$109, DW_AT_name("prvAddCurrentTaskToDelayedList")
	.dwattr $C$DW$109, DW_AT_TI_call

        BL        prvAddCurrentTaskToDelayedList ; [DPU_V7M3_PIPE] |962| 
        ; CALL OCCURS {prvAddCurrentTaskToDelayedList }  ; [] |962| 
	.dwpsn	file "../Source/tasks.c",line 964,column 4,is_stmt,isa 1
;----------------------------------------------------------------------
; 964 | xAlreadyYielded = xTaskResumeAll();                                    
;----------------------------------------------------------------------
$C$DW$110	.dwtag  DW_TAG_TI_branch
	.dwattr $C$DW$110, DW_AT_low_pc(0x00)
	.dwattr $C$DW$110, DW_AT_name("xTaskResumeAll")
	.dwattr $C$DW$110, DW_AT_TI_call

        BL        xTaskResumeAll        ; [DPU_V7M3_PIPE] |964| 
        ; CALL OCCURS {xTaskResumeAll }  ; [] |964| 
        STR       A1, [SP, #8]          ; [DPU_V7M3_PIPE] |964| 
	.dwpsn	file "../Source/tasks.c",line 965,column 3,is_stmt,isa 1
;----------------------------------------------------------------------
; 966 | else                                                                   
; 968 |         mtCOVERAGE_TEST_MARKER();                                      
;----------------------------------------------------------------------
;* --------------------------------------------------------------------------*
||$C$L20||:    
	.dwpsn	file "../Source/tasks.c",line 973,column 3,is_stmt,isa 1
;----------------------------------------------------------------------
; 973 | if( xAlreadyYielded == pdFALSE )                                       
;----------------------------------------------------------------------
        LDR       A1, [SP, #8]          ; [DPU_V7M3_PIPE] |973| 
        CBNZ      A1, ||$C$L21||        ; [] 
        ; BRANCHCC OCCURS {||$C$L21||}   ; [] |973| 
;* --------------------------------------------------------------------------*
	.dwpsn	file "../Source/tasks.c",line 975,column 4,is_stmt,isa 1
;----------------------------------------------------------------------
; 975 | portYIELD_WITHIN_API();                                                
;----------------------------------------------------------------------
        LDR       A2, $C$CON9           ; [DPU_V7M3_PIPE] |975| 
        MOV       A1, #268435456        ; [DPU_V7M3_PIPE] |975| 
        STR       A1, [A2, #0]          ; [DPU_V7M3_PIPE] |975| 
	dsb
	isb
	.dwpsn	file "../Source/tasks.c",line 976,column 3,is_stmt,isa 1
;----------------------------------------------------------------------
; 977 | else                                                                   
; 979 |         mtCOVERAGE_TEST_MARKER();                                      
;----------------------------------------------------------------------
        B         ||$C$L21||            ; [DPU_V7M3_PIPE] |976| 
        ; BRANCH OCCURS {||$C$L21||}     ; [] |976| 
;* --------------------------------------------------------------------------*
;* --------------------------------------------------------------------------*
||$C$L21||:    
$C$DW$111	.dwtag  DW_TAG_TI_branch
	.dwattr $C$DW$111, DW_AT_low_pc(0x00)
	.dwattr $C$DW$111, DW_AT_TI_return

        POP       {A2, A3, A4, PC}      ; [DPU_V7M3_PIPE] 
	.dwcfi	cfa_offset, 0
	.dwcfi	restore_reg, 3
	.dwcfi	restore_reg, 2
	.dwcfi	restore_reg, 1
        ; BRANCH OCCURS                  ; [] 
	.dwattr $C$DW$102, DW_AT_TI_end_file("../Source/tasks.c")
	.dwattr $C$DW$102, DW_AT_TI_end_line(0x3d5)
	.dwattr $C$DW$102, DW_AT_TI_end_column(0x02)
	.dwendentry
	.dwendtag $C$DW$102

	.sect	".text"
	.clink
	.thumbfunc uxTaskPriorityGet
	.thumb
	.global	uxTaskPriorityGet

$C$DW$112	.dwtag  DW_TAG_subprogram
	.dwattr $C$DW$112, DW_AT_name("uxTaskPriorityGet")
	.dwattr $C$DW$112, DW_AT_low_pc(uxTaskPriorityGet)
	.dwattr $C$DW$112, DW_AT_high_pc(0x00)
	.dwattr $C$DW$112, DW_AT_TI_symbol_name("uxTaskPriorityGet")
	.dwattr $C$DW$112, DW_AT_external
	.dwattr $C$DW$112, DW_AT_type(*$C$DW$T$37)
	.dwattr $C$DW$112, DW_AT_TI_begin_file("../Source/tasks.c")
	.dwattr $C$DW$112, DW_AT_TI_begin_line(0x422)
	.dwattr $C$DW$112, DW_AT_TI_begin_column(0x0e)
	.dwattr $C$DW$112, DW_AT_decl_file("../Source/tasks.c")
	.dwattr $C$DW$112, DW_AT_decl_line(0x422)
	.dwattr $C$DW$112, DW_AT_decl_column(0x0e)
	.dwattr $C$DW$112, DW_AT_TI_max_frame_size(0x10)
	.dwpsn	file "../Source/tasks.c",line 1059,column 2,is_stmt,address uxTaskPriorityGet,isa 1

	.dwfde $C$DW$CIE, uxTaskPriorityGet
$C$DW$113	.dwtag  DW_TAG_formal_parameter
	.dwattr $C$DW$113, DW_AT_name("xTask")
	.dwattr $C$DW$113, DW_AT_TI_symbol_name("xTask")
	.dwattr $C$DW$113, DW_AT_type(*$C$DW$T$65)
	.dwattr $C$DW$113, DW_AT_location[DW_OP_reg0]

;----------------------------------------------------------------------
; 1058 | UBaseType_t uxTaskPriorityGet( TaskHandle_t xTask )                    
;----------------------------------------------------------------------

;*****************************************************************************
;* FUNCTION NAME: uxTaskPriorityGet                                          *
;*                                                                           *
;*   Regs Modified     : A1,A2,A3,A4,V9,SP,LR,SR,D0,D0_hi,D1,D1_hi,D2,D2_hi, *
;*                           D3,D3_hi,D4,D4_hi,D5,D5_hi,D6,D6_hi,D7,D7_hi,   *
;*                           FPEXC,FPSCR                                     *
;*   Regs Used         : A1,A2,A3,A4,V9,SP,LR,SR,D0,D0_hi,D1,D1_hi,D2,D2_hi, *
;*                           D3,D3_hi,D4,D4_hi,D5,D5_hi,D6,D6_hi,D7,D7_hi,   *
;*                           FPEXC,FPSCR                                     *
;*   Local Frame Size  : 0 Args + 12 Auto + 4 Save = 16 byte                 *
;*****************************************************************************
uxTaskPriorityGet:
;* --------------------------------------------------------------------------*
	.dwcfi	cfa_offset, 0
        PUSH      {A2, A3, A4, LR}      ; [DPU_V7M3_PIPE] 
	.dwcfi	cfa_offset, 16
	.dwcfi	save_reg_to_mem, 14, -4
	.dwcfi	save_reg_to_mem, 3, -8
	.dwcfi	save_reg_to_mem, 2, -12
	.dwcfi	save_reg_to_mem, 1, -16
$C$DW$114	.dwtag  DW_TAG_variable
	.dwattr $C$DW$114, DW_AT_name("xTask")
	.dwattr $C$DW$114, DW_AT_TI_symbol_name("xTask")
	.dwattr $C$DW$114, DW_AT_type(*$C$DW$T$65)
	.dwattr $C$DW$114, DW_AT_location[DW_OP_breg13 0]

$C$DW$115	.dwtag  DW_TAG_variable
	.dwattr $C$DW$115, DW_AT_name("pxTCB")
	.dwattr $C$DW$115, DW_AT_TI_symbol_name("pxTCB")
	.dwattr $C$DW$115, DW_AT_type(*$C$DW$T$128)
	.dwattr $C$DW$115, DW_AT_location[DW_OP_breg13 4]

$C$DW$116	.dwtag  DW_TAG_variable
	.dwattr $C$DW$116, DW_AT_name("uxReturn")
	.dwattr $C$DW$116, DW_AT_TI_symbol_name("uxReturn")
	.dwattr $C$DW$116, DW_AT_type(*$C$DW$T$37)
	.dwattr $C$DW$116, DW_AT_location[DW_OP_breg13 8]

;----------------------------------------------------------------------
; 1060 | TCB_t *pxTCB;                                                          
; 1061 | UBaseType_t uxReturn;                                                  
;----------------------------------------------------------------------
        STR       A1, [SP, #0]          ; [DPU_V7M3_PIPE] |1059| 
	.dwpsn	file "../Source/tasks.c",line 1063,column 3,is_stmt,isa 1
;----------------------------------------------------------------------
; 1063 | taskENTER_CRITICAL();                                                  
;----------------------------------------------------------------------
$C$DW$117	.dwtag  DW_TAG_TI_branch
	.dwattr $C$DW$117, DW_AT_low_pc(0x00)
	.dwattr $C$DW$117, DW_AT_name("vPortEnterCritical")
	.dwattr $C$DW$117, DW_AT_TI_call

        BL        vPortEnterCritical    ; [DPU_V7M3_PIPE] |1063| 
        ; CALL OCCURS {vPortEnterCritical }  ; [] |1063| 
	.dwpsn	file "../Source/tasks.c",line 1067,column 4,is_stmt,isa 1
;----------------------------------------------------------------------
; 1067 | pxTCB = prvGetTCBFromHandle( xTask );                                  
;----------------------------------------------------------------------
        LDR       A1, [SP, #0]          ; [DPU_V7M3_PIPE] |1067| 
        CBNZ      A1, ||$C$L22||        ; [] 
        ; BRANCHCC OCCURS {||$C$L22||}   ; [] |1067| 
;* --------------------------------------------------------------------------*
        LDR       A1, $C$CON2           ; [DPU_V7M3_PIPE] |1067| 
        LDR       A1, [A1, #0]          ; [DPU_V7M3_PIPE] |1067| 
        B         ||$C$L23||            ; [DPU_V7M3_PIPE] |1067| 
        ; BRANCH OCCURS {||$C$L23||}     ; [] |1067| 
;* --------------------------------------------------------------------------*
||$C$L22||:    
        LDR       A1, [SP, #0]          ; [DPU_V7M3_PIPE] |1067| 
;* --------------------------------------------------------------------------*
||$C$L23||:    
        STR       A1, [SP, #4]          ; [DPU_V7M3_PIPE] |1067| 
	.dwpsn	file "../Source/tasks.c",line 1068,column 4,is_stmt,isa 1
;----------------------------------------------------------------------
; 1068 | uxReturn = pxTCB->uxPriority;                                          
;----------------------------------------------------------------------
        LDR       A1, [SP, #4]          ; [DPU_V7M3_PIPE] |1068| 
        LDR       A1, [A1, #44]         ; [DPU_V7M3_PIPE] |1068| 
        STR       A1, [SP, #8]          ; [DPU_V7M3_PIPE] |1068| 
	.dwpsn	file "../Source/tasks.c",line 1070,column 3,is_stmt,isa 1
;----------------------------------------------------------------------
; 1070 | taskEXIT_CRITICAL();                                                   
;----------------------------------------------------------------------
$C$DW$118	.dwtag  DW_TAG_TI_branch
	.dwattr $C$DW$118, DW_AT_low_pc(0x00)
	.dwattr $C$DW$118, DW_AT_name("vPortExitCritical")
	.dwattr $C$DW$118, DW_AT_TI_call

        BL        vPortExitCritical     ; [DPU_V7M3_PIPE] |1070| 
        ; CALL OCCURS {vPortExitCritical }  ; [] |1070| 
	.dwpsn	file "../Source/tasks.c",line 1072,column 3,is_stmt,isa 1
;----------------------------------------------------------------------
; 1072 | return uxReturn;                                                       
;----------------------------------------------------------------------
        LDR       A1, [SP, #8]          ; [DPU_V7M3_PIPE] |1072| 
	.dwpsn	file "../Source/tasks.c",line 1073,column 2,is_stmt,isa 1
$C$DW$119	.dwtag  DW_TAG_TI_branch
	.dwattr $C$DW$119, DW_AT_low_pc(0x00)
	.dwattr $C$DW$119, DW_AT_TI_return

        POP       {A2, A3, A4, PC}      ; [DPU_V7M3_PIPE] 
	.dwcfi	cfa_offset, 0
	.dwcfi	restore_reg, 3
	.dwcfi	restore_reg, 2
	.dwcfi	restore_reg, 1
        ; BRANCH OCCURS                  ; [] 
	.dwattr $C$DW$112, DW_AT_TI_end_file("../Source/tasks.c")
	.dwattr $C$DW$112, DW_AT_TI_end_line(0x431)
	.dwattr $C$DW$112, DW_AT_TI_end_column(0x02)
	.dwendentry
	.dwendtag $C$DW$112

;******************************************************************************
;* CONSTANT TABLE                                                             *
;******************************************************************************
	.sect	".text"
	.align	4
||$C$CON1||:	.bits	uxCurrentNumberOfTasks,32
	.align	4
||$C$CON2||:	.bits	pxCurrentTCB,32
	.sect	".text"
	.clink
	.thumbfunc uxTaskPriorityGetFromISR
	.thumb
	.global	uxTaskPriorityGetFromISR

$C$DW$120	.dwtag  DW_TAG_subprogram
	.dwattr $C$DW$120, DW_AT_name("uxTaskPriorityGetFromISR")
	.dwattr $C$DW$120, DW_AT_low_pc(uxTaskPriorityGetFromISR)
	.dwattr $C$DW$120, DW_AT_high_pc(0x00)
	.dwattr $C$DW$120, DW_AT_TI_symbol_name("uxTaskPriorityGetFromISR")
	.dwattr $C$DW$120, DW_AT_external
	.dwattr $C$DW$120, DW_AT_type(*$C$DW$T$37)
	.dwattr $C$DW$120, DW_AT_TI_begin_file("../Source/tasks.c")
	.dwattr $C$DW$120, DW_AT_TI_begin_line(0x438)
	.dwattr $C$DW$120, DW_AT_TI_begin_column(0x0e)
	.dwattr $C$DW$120, DW_AT_decl_file("../Source/tasks.c")
	.dwattr $C$DW$120, DW_AT_decl_line(0x438)
	.dwattr $C$DW$120, DW_AT_decl_column(0x0e)
	.dwattr $C$DW$120, DW_AT_TI_max_frame_size(0x10)
	.dwpsn	file "../Source/tasks.c",line 1081,column 2,is_stmt,address uxTaskPriorityGetFromISR,isa 1

	.dwfde $C$DW$CIE, uxTaskPriorityGetFromISR
$C$DW$121	.dwtag  DW_TAG_formal_parameter
	.dwattr $C$DW$121, DW_AT_name("xTask")
	.dwattr $C$DW$121, DW_AT_TI_symbol_name("xTask")
	.dwattr $C$DW$121, DW_AT_type(*$C$DW$T$65)
	.dwattr $C$DW$121, DW_AT_location[DW_OP_reg0]

;----------------------------------------------------------------------
; 1080 | UBaseType_t uxTaskPriorityGetFromISR( TaskHandle_t xTask )             
;----------------------------------------------------------------------

;*****************************************************************************
;* FUNCTION NAME: uxTaskPriorityGetFromISR                                   *
;*                                                                           *
;*   Regs Modified     : A1,A2,SP,SR                                         *
;*   Regs Used         : A1,A2,SP,LR,SR                                      *
;*   Local Frame Size  : 0 Args + 16 Auto + 0 Save = 16 byte                 *
;*****************************************************************************
uxTaskPriorityGetFromISR:
;* --------------------------------------------------------------------------*
	.dwcfi	cfa_offset, 0
        SUB       SP, SP, #16           ; [DPU_V7M3_PIPE] 
	.dwcfi	cfa_offset, 16
$C$DW$122	.dwtag  DW_TAG_variable
	.dwattr $C$DW$122, DW_AT_name("xTask")
	.dwattr $C$DW$122, DW_AT_TI_symbol_name("xTask")
	.dwattr $C$DW$122, DW_AT_type(*$C$DW$T$65)
	.dwattr $C$DW$122, DW_AT_location[DW_OP_breg13 0]

$C$DW$123	.dwtag  DW_TAG_variable
	.dwattr $C$DW$123, DW_AT_name("pxTCB")
	.dwattr $C$DW$123, DW_AT_TI_symbol_name("pxTCB")
	.dwattr $C$DW$123, DW_AT_type(*$C$DW$T$128)
	.dwattr $C$DW$123, DW_AT_location[DW_OP_breg13 4]

$C$DW$124	.dwtag  DW_TAG_variable
	.dwattr $C$DW$124, DW_AT_name("uxReturn")
	.dwattr $C$DW$124, DW_AT_TI_symbol_name("uxReturn")
	.dwattr $C$DW$124, DW_AT_type(*$C$DW$T$37)
	.dwattr $C$DW$124, DW_AT_location[DW_OP_breg13 8]

$C$DW$125	.dwtag  DW_TAG_variable
	.dwattr $C$DW$125, DW_AT_name("uxSavedInterruptState")
	.dwattr $C$DW$125, DW_AT_TI_symbol_name("uxSavedInterruptState")
	.dwattr $C$DW$125, DW_AT_type(*$C$DW$T$37)
	.dwattr $C$DW$125, DW_AT_location[DW_OP_breg13 12]

;----------------------------------------------------------------------
; 1082 | TCB_t *pxTCB;                                                          
; 1083 | UBaseType_t uxReturn, uxSavedInterruptState;                           
; 1101 |         portASSERT_IF_INTERRUPT_PRIORITY_INVALID();                    
;----------------------------------------------------------------------
        STR       A1, [SP, #0]          ; [DPU_V7M3_PIPE] |1081| 
	.dwpsn	file "../Source/tasks.c",line 1103,column 3,is_stmt,isa 1
;----------------------------------------------------------------------
; 1103 | uxSavedInterruptState = portSET_INTERRUPT_MASK_FROM_ISR();             
;----------------------------------------------------------------------
        MRS       A2, BASEPRI           ; [DPU_V7M3_PIPE] |1103| 
        MOVS      A1, #160              ; [DPU_V7M3_PIPE] |1103| 
        MSR       BASEPRI, A1           ; [DPU_V7M3_PIPE] |1103| 
        STR       A2, [SP, #12]         ; [DPU_V7M3_PIPE] |1103| 
	.dwpsn	file "../Source/tasks.c",line 1103,column 27,is_stmt,isa 1
	dsb
	isb
	.dwpsn	file "../Source/tasks.c",line 1107,column 4,is_stmt,isa 1
;----------------------------------------------------------------------
; 1107 | pxTCB = prvGetTCBFromHandle( xTask );                                  
;----------------------------------------------------------------------
        LDR       A1, [SP, #0]          ; [DPU_V7M3_PIPE] |1107| 
        CBNZ      A1, ||$C$L24||        ; [] 
        ; BRANCHCC OCCURS {||$C$L24||}   ; [] |1107| 
;* --------------------------------------------------------------------------*
        LDR       A1, $C$CON11          ; [DPU_V7M3_PIPE] |1107| 
        LDR       A1, [A1, #0]          ; [DPU_V7M3_PIPE] |1107| 
        B         ||$C$L25||            ; [DPU_V7M3_PIPE] |1107| 
        ; BRANCH OCCURS {||$C$L25||}     ; [] |1107| 
;* --------------------------------------------------------------------------*
||$C$L24||:    
        LDR       A1, [SP, #0]          ; [DPU_V7M3_PIPE] |1107| 
;* --------------------------------------------------------------------------*
||$C$L25||:    
        STR       A1, [SP, #4]          ; [DPU_V7M3_PIPE] |1107| 
	.dwpsn	file "../Source/tasks.c",line 1108,column 4,is_stmt,isa 1
;----------------------------------------------------------------------
; 1108 | uxReturn = pxTCB->uxPriority;                                          
;----------------------------------------------------------------------
        LDR       A1, [SP, #4]          ; [DPU_V7M3_PIPE] |1108| 
        LDR       A1, [A1, #44]         ; [DPU_V7M3_PIPE] |1108| 
        STR       A1, [SP, #8]          ; [DPU_V7M3_PIPE] |1108| 
	.dwpsn	file "../Source/tasks.c",line 1110,column 3,is_stmt,isa 1
;----------------------------------------------------------------------
; 1110 | portCLEAR_INTERRUPT_MASK_FROM_ISR( uxSavedInterruptState );            
;----------------------------------------------------------------------
        LDR       A1, [SP, #12]         ; [DPU_V7M3_PIPE] |1110| 
        MSR       BASEPRI, A1           ; [DPU_V7M3_PIPE] |1110| 
	.dwpsn	file "../Source/tasks.c",line 1112,column 3,is_stmt,isa 1
;----------------------------------------------------------------------
; 1112 | return uxReturn;                                                       
;----------------------------------------------------------------------
        LDR       A1, [SP, #8]          ; [DPU_V7M3_PIPE] |1112| 
	.dwpsn	file "../Source/tasks.c",line 1113,column 2,is_stmt,isa 1
        ADD       SP, SP, #16           ; [DPU_V7M3_PIPE] 
	.dwcfi	cfa_offset, 0
$C$DW$126	.dwtag  DW_TAG_TI_branch
	.dwattr $C$DW$126, DW_AT_low_pc(0x00)
	.dwattr $C$DW$126, DW_AT_TI_return

        BX        LR                    ; [DPU_V7M3_PIPE] 
        ; BRANCH OCCURS                  ; [] 
	.dwattr $C$DW$120, DW_AT_TI_end_file("../Source/tasks.c")
	.dwattr $C$DW$120, DW_AT_TI_end_line(0x459)
	.dwattr $C$DW$120, DW_AT_TI_end_column(0x02)
	.dwendentry
	.dwendtag $C$DW$120

;******************************************************************************
;* CONSTANT TABLE                                                             *
;******************************************************************************
	.sect	".text"
	.align	4
||$C$CON3||:	.bits	xSchedulerRunning,32
	.align	4
||$C$CON4||:	.bits	uxTaskNumber,32
	.align	4
||$C$CON5||:	.bits	uxTopReadyPriority,32
	.align	4
||$C$CON6||:	.bits	pxReadyTasksLists,32
	.align	4
||$C$CON7||:	.bits	xTasksWaitingTermination,32
	.align	4
||$C$CON8||:	.bits	uxTasksDeleted,32
	.align	4
||$C$CON9||:	.bits	-536810236,32
	.sect	".text"
	.clink
	.thumbfunc vTaskPrioritySet
	.thumb
	.global	vTaskPrioritySet

$C$DW$127	.dwtag  DW_TAG_subprogram
	.dwattr $C$DW$127, DW_AT_name("vTaskPrioritySet")
	.dwattr $C$DW$127, DW_AT_low_pc(vTaskPrioritySet)
	.dwattr $C$DW$127, DW_AT_high_pc(0x00)
	.dwattr $C$DW$127, DW_AT_TI_symbol_name("vTaskPrioritySet")
	.dwattr $C$DW$127, DW_AT_external
	.dwattr $C$DW$127, DW_AT_TI_begin_file("../Source/tasks.c")
	.dwattr $C$DW$127, DW_AT_TI_begin_line(0x460)
	.dwattr $C$DW$127, DW_AT_TI_begin_column(0x07)
	.dwattr $C$DW$127, DW_AT_decl_file("../Source/tasks.c")
	.dwattr $C$DW$127, DW_AT_decl_line(0x460)
	.dwattr $C$DW$127, DW_AT_decl_column(0x07)
	.dwattr $C$DW$127, DW_AT_TI_max_frame_size(0x20)
	.dwpsn	file "../Source/tasks.c",line 1121,column 2,is_stmt,address vTaskPrioritySet,isa 1

	.dwfde $C$DW$CIE, vTaskPrioritySet
$C$DW$128	.dwtag  DW_TAG_formal_parameter
	.dwattr $C$DW$128, DW_AT_name("xTask")
	.dwattr $C$DW$128, DW_AT_TI_symbol_name("xTask")
	.dwattr $C$DW$128, DW_AT_type(*$C$DW$T$65)
	.dwattr $C$DW$128, DW_AT_location[DW_OP_reg0]

$C$DW$129	.dwtag  DW_TAG_formal_parameter
	.dwattr $C$DW$129, DW_AT_name("uxNewPriority")
	.dwattr $C$DW$129, DW_AT_TI_symbol_name("uxNewPriority")
	.dwattr $C$DW$129, DW_AT_type(*$C$DW$T$37)
	.dwattr $C$DW$129, DW_AT_location[DW_OP_reg1]

;----------------------------------------------------------------------
; 1120 | void vTaskPrioritySet( TaskHandle_t xTask, UBaseType_t uxNewPriority ) 
;----------------------------------------------------------------------

;*****************************************************************************
;* FUNCTION NAME: vTaskPrioritySet                                           *
;*                                                                           *
;*   Regs Modified     : A1,A2,A3,A4,V1,V9,SP,LR,SR,D0,D0_hi,D1,D1_hi,D2,    *
;*                           D2_hi,D3,D3_hi,D4,D4_hi,D5,D5_hi,D6,D6_hi,D7,   *
;*                           D7_hi,FPEXC,FPSCR                               *
;*   Regs Used         : A1,A2,A3,A4,V1,V9,SP,LR,SR,D0,D0_hi,D1,D1_hi,D2,    *
;*                           D2_hi,D3,D3_hi,D4,D4_hi,D5,D5_hi,D6,D6_hi,D7,   *
;*                           D7_hi,FPEXC,FPSCR                               *
;*   Local Frame Size  : 0 Args + 24 Auto + 8 Save = 32 byte                 *
;*****************************************************************************
vTaskPrioritySet:
;* --------------------------------------------------------------------------*
	.dwcfi	cfa_offset, 0
        PUSH      {V1, LR}              ; [DPU_V7M3_PIPE] 
	.dwcfi	cfa_offset, 8
	.dwcfi	save_reg_to_mem, 14, -4
	.dwcfi	save_reg_to_mem, 4, -8
        SUB       SP, SP, #24           ; [DPU_V7M3_PIPE] 
	.dwcfi	cfa_offset, 32
$C$DW$130	.dwtag  DW_TAG_variable
	.dwattr $C$DW$130, DW_AT_name("xTask")
	.dwattr $C$DW$130, DW_AT_TI_symbol_name("xTask")
	.dwattr $C$DW$130, DW_AT_type(*$C$DW$T$65)
	.dwattr $C$DW$130, DW_AT_location[DW_OP_breg13 0]

$C$DW$131	.dwtag  DW_TAG_variable
	.dwattr $C$DW$131, DW_AT_name("uxNewPriority")
	.dwattr $C$DW$131, DW_AT_TI_symbol_name("uxNewPriority")
	.dwattr $C$DW$131, DW_AT_type(*$C$DW$T$37)
	.dwattr $C$DW$131, DW_AT_location[DW_OP_breg13 4]

$C$DW$132	.dwtag  DW_TAG_variable
	.dwattr $C$DW$132, DW_AT_name("pxTCB")
	.dwattr $C$DW$132, DW_AT_TI_symbol_name("pxTCB")
	.dwattr $C$DW$132, DW_AT_type(*$C$DW$T$128)
	.dwattr $C$DW$132, DW_AT_location[DW_OP_breg13 8]

$C$DW$133	.dwtag  DW_TAG_variable
	.dwattr $C$DW$133, DW_AT_name("uxCurrentBasePriority")
	.dwattr $C$DW$133, DW_AT_TI_symbol_name("uxCurrentBasePriority")
	.dwattr $C$DW$133, DW_AT_type(*$C$DW$T$37)
	.dwattr $C$DW$133, DW_AT_location[DW_OP_breg13 12]

$C$DW$134	.dwtag  DW_TAG_variable
	.dwattr $C$DW$134, DW_AT_name("uxPriorityUsedOnEntry")
	.dwattr $C$DW$134, DW_AT_TI_symbol_name("uxPriorityUsedOnEntry")
	.dwattr $C$DW$134, DW_AT_type(*$C$DW$T$37)
	.dwattr $C$DW$134, DW_AT_location[DW_OP_breg13 16]

$C$DW$135	.dwtag  DW_TAG_variable
	.dwattr $C$DW$135, DW_AT_name("xYieldRequired")
	.dwattr $C$DW$135, DW_AT_TI_symbol_name("xYieldRequired")
	.dwattr $C$DW$135, DW_AT_type(*$C$DW$T$71)
	.dwattr $C$DW$135, DW_AT_location[DW_OP_breg13 20]

;----------------------------------------------------------------------
; 1122 | TCB_t *pxTCB;                                                          
; 1123 | UBaseType_t uxCurrentBasePriority, uxPriorityUsedOnEntry;              
;----------------------------------------------------------------------
        STR       A2, [SP, #4]          ; [DPU_V7M3_PIPE] |1121| 
        STR       A1, [SP, #0]          ; [DPU_V7M3_PIPE] |1121| 
	.dwpsn	file "../Source/tasks.c",line 1124,column 28,is_stmt,isa 1
;----------------------------------------------------------------------
; 1124 | BaseType_t xYieldRequired = pdFALSE;                                   
; 1126 |         configASSERT( ( uxNewPriority < configMAX_PRIORITIES ) );      
;----------------------------------------------------------------------
        MOVS      A1, #0                ; [DPU_V7M3_PIPE] |1124| 
        STR       A1, [SP, #20]         ; [DPU_V7M3_PIPE] |1124| 
	.dwpsn	file "../Source/tasks.c",line 1129,column 3,is_stmt,isa 1
;----------------------------------------------------------------------
; 1129 | if( uxNewPriority >= ( UBaseType_t ) configMAX_PRIORITIES )            
;----------------------------------------------------------------------
        LDR       A1, [SP, #4]          ; [DPU_V7M3_PIPE] |1129| 
        CMP       A1, #5                ; [DPU_V7M3_PIPE] |1129| 
        BCC       ||$C$L26||            ; [DPU_V7M3_PIPE] |1129| 
        ; BRANCHCC OCCURS {||$C$L26||}   ; [] |1129| 
;* --------------------------------------------------------------------------*
	.dwpsn	file "../Source/tasks.c",line 1131,column 4,is_stmt,isa 1
;----------------------------------------------------------------------
; 1131 | uxNewPriority = ( UBaseType_t ) configMAX_PRIORITIES - ( UBaseType_t )
;     | 1U;                                                                    
;----------------------------------------------------------------------
        MOVS      A1, #4                ; [DPU_V7M3_PIPE] |1131| 
        STR       A1, [SP, #4]          ; [DPU_V7M3_PIPE] |1131| 
	.dwpsn	file "../Source/tasks.c",line 1132,column 3,is_stmt,isa 1
;----------------------------------------------------------------------
; 1133 | else                                                                   
; 1135 |         mtCOVERAGE_TEST_MARKER();                                      
;----------------------------------------------------------------------
;* --------------------------------------------------------------------------*
||$C$L26||:    
	.dwpsn	file "../Source/tasks.c",line 1138,column 3,is_stmt,isa 1
;----------------------------------------------------------------------
; 1138 | taskENTER_CRITICAL();                                                  
;----------------------------------------------------------------------
$C$DW$136	.dwtag  DW_TAG_TI_branch
	.dwattr $C$DW$136, DW_AT_low_pc(0x00)
	.dwattr $C$DW$136, DW_AT_name("vPortEnterCritical")
	.dwattr $C$DW$136, DW_AT_TI_call

        BL        vPortEnterCritical    ; [DPU_V7M3_PIPE] |1138| 
        ; CALL OCCURS {vPortEnterCritical }  ; [] |1138| 
	.dwpsn	file "../Source/tasks.c",line 1142,column 4,is_stmt,isa 1
;----------------------------------------------------------------------
; 1142 | pxTCB = prvGetTCBFromHandle( xTask );                                  
; 1144 | traceTASK_PRIORITY_SET( pxTCB, uxNewPriority );                        
; 1146 | #if ( configUSE_MUTEXES == 1 )                                         
;----------------------------------------------------------------------
        LDR       A1, [SP, #0]          ; [DPU_V7M3_PIPE] |1142| 
        CBNZ      A1, ||$C$L27||        ; [] 
        ; BRANCHCC OCCURS {||$C$L27||}   ; [] |1142| 
;* --------------------------------------------------------------------------*
        LDR       A1, $C$CON11          ; [DPU_V7M3_PIPE] |1142| 
        LDR       A1, [A1, #0]          ; [DPU_V7M3_PIPE] |1142| 
        B         ||$C$L28||            ; [DPU_V7M3_PIPE] |1142| 
        ; BRANCH OCCURS {||$C$L28||}     ; [] |1142| 
;* --------------------------------------------------------------------------*
||$C$L27||:    
        LDR       A1, [SP, #0]          ; [DPU_V7M3_PIPE] |1142| 
;* --------------------------------------------------------------------------*
||$C$L28||:    
        STR       A1, [SP, #8]          ; [DPU_V7M3_PIPE] |1142| 
	.dwpsn	file "../Source/tasks.c",line 1148,column 5,is_stmt,isa 1
;----------------------------------------------------------------------
; 1148 | uxCurrentBasePriority = pxTCB->uxBasePriority;                         
; 1150 | #else                                                                  
; 1152 | uxCurrentBasePriority = pxTCB->uxPriority;                             
; 1154 | #endif                                                                 
;----------------------------------------------------------------------
        LDR       A1, [SP, #8]          ; [DPU_V7M3_PIPE] |1148| 
        LDR       A1, [A1, #76]         ; [DPU_V7M3_PIPE] |1148| 
        STR       A1, [SP, #12]         ; [DPU_V7M3_PIPE] |1148| 
	.dwpsn	file "../Source/tasks.c",line 1156,column 4,is_stmt,isa 1
;----------------------------------------------------------------------
; 1156 | if( uxCurrentBasePriority != uxNewPriority )                           
;----------------------------------------------------------------------
        LDR       A2, [SP, #12]         ; [DPU_V7M3_PIPE] |1156| 
        LDR       A1, [SP, #4]          ; [DPU_V7M3_PIPE] |1156| 
        CMP       A1, A2                ; [DPU_V7M3_PIPE] |1156| 
        BEQ       ||$C$L37||            ; [DPU_V7M3_PIPE] |1156| 
        ; BRANCHCC OCCURS {||$C$L37||}   ; [] |1156| 
;* --------------------------------------------------------------------------*
	.dwpsn	file "../Source/tasks.c",line 1160,column 5,is_stmt,isa 1
;----------------------------------------------------------------------
; 1160 | if( uxNewPriority > uxCurrentBasePriority )                            
;----------------------------------------------------------------------
        LDR       A1, [SP, #12]         ; [DPU_V7M3_PIPE] |1160| 
        LDR       A2, [SP, #4]          ; [DPU_V7M3_PIPE] |1160| 
        CMP       A1, A2                ; [DPU_V7M3_PIPE] |1160| 
        BCS       ||$C$L29||            ; [DPU_V7M3_PIPE] |1160| 
        ; BRANCHCC OCCURS {||$C$L29||}   ; [] |1160| 
;* --------------------------------------------------------------------------*
	.dwpsn	file "../Source/tasks.c",line 1162,column 6,is_stmt,isa 1
;----------------------------------------------------------------------
; 1162 | if( pxTCB != pxCurrentTCB )                                            
;----------------------------------------------------------------------
        LDR       A1, $C$CON11          ; [DPU_V7M3_PIPE] |1162| 
        LDR       A2, [SP, #8]          ; [DPU_V7M3_PIPE] |1162| 
        LDR       A1, [A1, #0]          ; [DPU_V7M3_PIPE] |1162| 
        CMP       A1, A2                ; [DPU_V7M3_PIPE] |1162| 
        BEQ       ||$C$L30||            ; [DPU_V7M3_PIPE] |1162| 
        ; BRANCHCC OCCURS {||$C$L30||}   ; [] |1162| 
;* --------------------------------------------------------------------------*
	.dwpsn	file "../Source/tasks.c",line 1167,column 7,is_stmt,isa 1
;----------------------------------------------------------------------
; 1167 | if( uxNewPriority >= pxCurrentTCB->uxPriority )                        
;----------------------------------------------------------------------
        LDR       A1, $C$CON11          ; [DPU_V7M3_PIPE] |1167| 
        LDR       A1, [A1, #0]          ; [DPU_V7M3_PIPE] |1167| 
        LDR       A2, [SP, #4]          ; [DPU_V7M3_PIPE] |1167| 
        LDR       A1, [A1, #44]         ; [DPU_V7M3_PIPE] |1167| 
        CMP       A1, A2                ; [DPU_V7M3_PIPE] |1167| 
        BHI       ||$C$L30||            ; [DPU_V7M3_PIPE] |1167| 
        ; BRANCHCC OCCURS {||$C$L30||}   ; [] |1167| 
;* --------------------------------------------------------------------------*
	.dwpsn	file "../Source/tasks.c",line 1169,column 8,is_stmt,isa 1
;----------------------------------------------------------------------
; 1169 | xYieldRequired = pdTRUE;                                               
;----------------------------------------------------------------------
        MOVS      A1, #1                ; [DPU_V7M3_PIPE] |1169| 
        STR       A1, [SP, #20]         ; [DPU_V7M3_PIPE] |1169| 
	.dwpsn	file "../Source/tasks.c",line 1170,column 7,is_stmt,isa 1
;----------------------------------------------------------------------
; 1171 | else                                                                   
; 1173 |         mtCOVERAGE_TEST_MARKER();                                      
; 1176 | else                                                                   
;----------------------------------------------------------------------
        B         ||$C$L30||            ; [DPU_V7M3_PIPE] |1170| 
        ; BRANCH OCCURS {||$C$L30||}     ; [] |1170| 
;* --------------------------------------------------------------------------*
;* --------------------------------------------------------------------------*
||$C$L29||:    
	.dwpsn	file "../Source/tasks.c",line 1183,column 10,is_stmt,isa 1
;----------------------------------------------------------------------
; 1183 | else if( pxTCB == pxCurrentTCB )                                       
;----------------------------------------------------------------------
        LDR       A1, $C$CON11          ; [DPU_V7M3_PIPE] |1183| 
        LDR       A2, [SP, #8]          ; [DPU_V7M3_PIPE] |1183| 
        LDR       A1, [A1, #0]          ; [DPU_V7M3_PIPE] |1183| 
        CMP       A1, A2                ; [DPU_V7M3_PIPE] |1183| 
        BNE       ||$C$L30||            ; [DPU_V7M3_PIPE] |1183| 
        ; BRANCHCC OCCURS {||$C$L30||}   ; [] |1183| 
;* --------------------------------------------------------------------------*
	.dwpsn	file "../Source/tasks.c",line 1188,column 6,is_stmt,isa 1
;----------------------------------------------------------------------
; 1188 | xYieldRequired = pdTRUE;                                               
;----------------------------------------------------------------------
        MOVS      A1, #1                ; [DPU_V7M3_PIPE] |1188| 
        STR       A1, [SP, #20]         ; [DPU_V7M3_PIPE] |1188| 
	.dwpsn	file "../Source/tasks.c",line 1189,column 5,is_stmt,isa 1
;----------------------------------------------------------------------
; 1190 | else                                                                   
;----------------------------------------------------------------------
;* --------------------------------------------------------------------------*
||$C$L30||:    
	.dwpsn	file "../Source/tasks.c",line 1200,column 5,is_stmt,isa 1
;----------------------------------------------------------------------
; 1200 | uxPriorityUsedOnEntry = pxTCB->uxPriority;                             
; 1202 | #if ( configUSE_MUTEXES == 1 )                                         
;----------------------------------------------------------------------
        LDR       A1, [SP, #8]          ; [DPU_V7M3_PIPE] |1200| 
        LDR       A1, [A1, #44]         ; [DPU_V7M3_PIPE] |1200| 
        STR       A1, [SP, #16]         ; [DPU_V7M3_PIPE] |1200| 
	.dwpsn	file "../Source/tasks.c",line 1206,column 6,is_stmt,isa 1
;----------------------------------------------------------------------
; 1206 | if( pxTCB->uxBasePriority == pxTCB->uxPriority )                       
;----------------------------------------------------------------------
        LDR       A2, [SP, #8]          ; [DPU_V7M3_PIPE] |1206| 
        LDR       A1, [SP, #8]          ; [DPU_V7M3_PIPE] |1206| 
        LDR       A2, [A2, #76]         ; [DPU_V7M3_PIPE] |1206| 
        LDR       A1, [A1, #44]         ; [DPU_V7M3_PIPE] |1206| 
        CMP       A1, A2                ; [DPU_V7M3_PIPE] |1206| 
        BNE       ||$C$L31||            ; [DPU_V7M3_PIPE] |1206| 
        ; BRANCHCC OCCURS {||$C$L31||}   ; [] |1206| 
;* --------------------------------------------------------------------------*
	.dwpsn	file "../Source/tasks.c",line 1208,column 7,is_stmt,isa 1
;----------------------------------------------------------------------
; 1208 | pxTCB->uxPriority = uxNewPriority;                                     
;----------------------------------------------------------------------
        LDR       A1, [SP, #4]          ; [DPU_V7M3_PIPE] |1208| 
        LDR       A2, [SP, #8]          ; [DPU_V7M3_PIPE] |1208| 
        STR       A1, [A2, #44]         ; [DPU_V7M3_PIPE] |1208| 
	.dwpsn	file "../Source/tasks.c",line 1209,column 6,is_stmt,isa 1
;----------------------------------------------------------------------
; 1210 | else                                                                   
; 1212 |         mtCOVERAGE_TEST_MARKER();                                      
;----------------------------------------------------------------------
;* --------------------------------------------------------------------------*
||$C$L31||:    
	.dwpsn	file "../Source/tasks.c",line 1216,column 6,is_stmt,isa 1
;----------------------------------------------------------------------
; 1216 | pxTCB->uxBasePriority = uxNewPriority;                                 
; 1218 | #else                                                                  
; 1220 | pxTCB->uxPriority = uxNewPriority;                                     
; 1222 | #endif                                                                 
;----------------------------------------------------------------------
        LDR       A1, [SP, #4]          ; [DPU_V7M3_PIPE] |1216| 
        LDR       A2, [SP, #8]          ; [DPU_V7M3_PIPE] |1216| 
        STR       A1, [A2, #76]         ; [DPU_V7M3_PIPE] |1216| 
	.dwpsn	file "../Source/tasks.c",line 1226,column 5,is_stmt,isa 1
;----------------------------------------------------------------------
; 1226 | if( ( listGET_LIST_ITEM_VALUE( &( pxTCB->xEventListItem ) ) & taskEVENT
;     | _LIST_ITEM_VALUE_IN_USE ) == 0UL )                                     
;----------------------------------------------------------------------
        LDR       A1, [SP, #8]          ; [DPU_V7M3_PIPE] |1226| 
        LDR       A1, [A1, #24]         ; [DPU_V7M3_PIPE] |1226| 
        LSRS      A1, A1, #32           ; [DPU_V7M3_PIPE] |1226| 
        BCS       ||$C$L32||            ; [DPU_V7M3_PIPE] |1226| 
        ; BRANCHCC OCCURS {||$C$L32||}   ; [] |1226| 
;* --------------------------------------------------------------------------*
	.dwpsn	file "../Source/tasks.c",line 1228,column 6,is_stmt,isa 1
;----------------------------------------------------------------------
; 1228 | listSET_LIST_ITEM_VALUE( &( pxTCB->xEventListItem ), ( ( TickType_t ) c
;     | onfigMAX_PRIORITIES - ( TickType_t ) uxNewPriority ) ); /*lint !e961 MI
;     | SRA exception as the casts are only redundant for some ports. */       
;----------------------------------------------------------------------
        LDR       A1, [SP, #4]          ; [DPU_V7M3_PIPE] |1228| 
        LDR       A2, [SP, #8]          ; [DPU_V7M3_PIPE] |1228| 
        RSB       A1, A1, #5            ; [DPU_V7M3_PIPE] |1228| 
        STR       A1, [A2, #24]         ; [DPU_V7M3_PIPE] |1228| 
	.dwpsn	file "../Source/tasks.c",line 1229,column 5,is_stmt,isa 1
;----------------------------------------------------------------------
; 1230 | else                                                                   
; 1232 |         mtCOVERAGE_TEST_MARKER();                                      
;----------------------------------------------------------------------
;* --------------------------------------------------------------------------*
||$C$L32||:    
	.dwpsn	file "../Source/tasks.c",line 1239,column 5,is_stmt,isa 1
;----------------------------------------------------------------------
; 1239 | if( listIS_CONTAINED_WITHIN( &( pxReadyTasksLists[ uxPriorityUsedOnEntr
;     | y ] ), &( pxTCB->xGenericListItem ) ) != pdFALSE )                     
;----------------------------------------------------------------------
        LDR       A2, [SP, #8]          ; [DPU_V7M3_PIPE] |1239| 
        LDR       A4, [SP, #16]         ; [DPU_V7M3_PIPE] |1239| 
        LDR       A1, $C$CON12          ; [DPU_V7M3_PIPE] |1239| 
        LDR       A3, [A2, #20]         ; [DPU_V7M3_PIPE] |1239| 
        LSLS      A2, A4, #2            ; [DPU_V7M3_PIPE] |1239| 
        ADD       A2, A2, A4, LSL #4    ; [DPU_V7M3_PIPE] |1239| 
        ADDS      A2, A2, A1            ; [DPU_V7M3_PIPE] |1239| 
        MOVS      A1, #0                ; [DPU_V7M3_PIPE] |1239| 
        CMP       A2, A3                ; [DPU_V7M3_PIPE] |1239| 
        BNE       ||$C$L33||            ; [DPU_V7M3_PIPE] |1239| 
        ; BRANCHCC OCCURS {||$C$L33||}   ; [] |1239| 
;* --------------------------------------------------------------------------*
        MOVS      A1, #1                ; [DPU_V7M3_PIPE] |1239| 
;* --------------------------------------------------------------------------*
||$C$L33||:    
        CBZ       A1, ||$C$L35||        ; [] 
        ; BRANCHCC OCCURS {||$C$L35||}   ; [] |1239| 
;* --------------------------------------------------------------------------*
	.dwpsn	file "../Source/tasks.c",line 1244,column 6,is_stmt,isa 1
;----------------------------------------------------------------------
; 1244 | if( uxListRemove( &( pxTCB->xGenericListItem ) ) == ( UBaseType_t ) 0 )
;----------------------------------------------------------------------
        LDR       A1, [SP, #8]          ; [DPU_V7M3_PIPE] |1244| 
        ADDS      A1, A1, #4            ; [DPU_V7M3_PIPE] |1244| 
$C$DW$137	.dwtag  DW_TAG_TI_branch
	.dwattr $C$DW$137, DW_AT_low_pc(0x00)
	.dwattr $C$DW$137, DW_AT_name("uxListRemove")
	.dwattr $C$DW$137, DW_AT_TI_call

        BL        uxListRemove          ; [DPU_V7M3_PIPE] |1244| 
        ; CALL OCCURS {uxListRemove }    ; [] |1244| 
        CBNZ      A1, ||$C$L34||        ; [] 
        ; BRANCHCC OCCURS {||$C$L34||}   ; [] |1244| 
;* --------------------------------------------------------------------------*
	.dwpsn	file "../Source/tasks.c",line 1249,column 7,is_stmt,isa 1
;----------------------------------------------------------------------
; 1249 | portRESET_READY_PRIORITY( uxPriorityUsedOnEntry, uxTopReadyPriority ); 
;----------------------------------------------------------------------
        LDR       A3, $C$CON13          ; [DPU_V7M3_PIPE] |1249| 
        LDR       A4, [SP, #16]         ; [DPU_V7M3_PIPE] |1249| 
        LDR       A2, [A3, #0]          ; [DPU_V7M3_PIPE] |1249| 
        MOVS      A1, #1                ; [DPU_V7M3_PIPE] |1249| 
        LSLS      A1, A1, A4            ; [DPU_V7M3_PIPE] |1249| 
        BICS      A2, A2, A1            ; [DPU_V7M3_PIPE] |1249| 
        STR       A2, [A3, #0]          ; [DPU_V7M3_PIPE] |1249| 
	.dwpsn	file "../Source/tasks.c",line 1250,column 6,is_stmt,isa 1
;----------------------------------------------------------------------
; 1251 | else                                                                   
; 1253 |         mtCOVERAGE_TEST_MARKER();                                      
;----------------------------------------------------------------------
;* --------------------------------------------------------------------------*
||$C$L34||:    
	.dwpsn	file "../Source/tasks.c",line 1255,column 6,is_stmt,isa 1
;----------------------------------------------------------------------
; 1255 | prvAddTaskToReadyList( pxTCB );                                        
;----------------------------------------------------------------------
        LDR       A1, [SP, #8]          ; [DPU_V7M3_PIPE] |1255| 
        LDR       A3, $C$CON13          ; [DPU_V7M3_PIPE] |1255| 
        LDR       V1, [A1, #44]         ; [DPU_V7M3_PIPE] |1255| 
        LDR       A4, [A3, #0]          ; [DPU_V7M3_PIPE] |1255| 
        LDR       A2, [SP, #8]          ; [DPU_V7M3_PIPE] |1255| 
        MOVS      A1, #1                ; [DPU_V7M3_PIPE] |1255| 
        LSLS      A1, A1, V1            ; [DPU_V7M3_PIPE] |1255| 
        ORRS      A1, A1, A4            ; [DPU_V7M3_PIPE] |1255| 
        STR       A1, [A3, #0]          ; [DPU_V7M3_PIPE] |1255| 
        LDR       A4, $C$CON12          ; [DPU_V7M3_PIPE] |1255| 
        LDR       A3, [A2, #44]         ; [DPU_V7M3_PIPE] |1255| 
        LDR       A2, [SP, #8]          ; [DPU_V7M3_PIPE] |1255| 
        LSLS      A1, A3, #2            ; [DPU_V7M3_PIPE] |1255| 
        ADDS      A2, A2, #4            ; [DPU_V7M3_PIPE] |1255| 
        ADD       A1, A1, A3, LSL #4    ; [DPU_V7M3_PIPE] |1255| 
        ADDS      A1, A1, A4            ; [DPU_V7M3_PIPE] |1255| 
$C$DW$138	.dwtag  DW_TAG_TI_branch
	.dwattr $C$DW$138, DW_AT_low_pc(0x00)
	.dwattr $C$DW$138, DW_AT_name("vListInsertEnd")
	.dwattr $C$DW$138, DW_AT_TI_call

        BL        vListInsertEnd        ; [DPU_V7M3_PIPE] |1255| 
        ; CALL OCCURS {vListInsertEnd }  ; [] |1255| 
	.dwpsn	file "../Source/tasks.c",line 1256,column 5,is_stmt,isa 1
;----------------------------------------------------------------------
; 1257 | else                                                                   
; 1259 |         mtCOVERAGE_TEST_MARKER();                                      
;----------------------------------------------------------------------
;* --------------------------------------------------------------------------*
||$C$L35||:    
	.dwpsn	file "../Source/tasks.c",line 1262,column 5,is_stmt,isa 1
;----------------------------------------------------------------------
; 1262 | if( xYieldRequired == pdTRUE )                                         
; 1264 |         taskYIELD_IF_USING_PREEMPTION();                               
;----------------------------------------------------------------------
        LDR       A1, [SP, #20]         ; [DPU_V7M3_PIPE] |1262| 
        CMP       A1, #1                ; [DPU_V7M3_PIPE] |1262| 
        BEQ       ||$C$L36||            ; [DPU_V7M3_PIPE] |1262| 
        ; BRANCHCC OCCURS {||$C$L36||}   ; [] |1262| 
;* --------------------------------------------------------------------------*
	.dwpsn	file "../Source/tasks.c",line 1265,column 5,is_stmt,isa 1
;----------------------------------------------------------------------
; 1266 | else                                                                   
; 1268 |         mtCOVERAGE_TEST_MARKER();                                      
;----------------------------------------------------------------------
;* --------------------------------------------------------------------------*
||$C$L36||:    
	.dwpsn	file "../Source/tasks.c",line 1273,column 5,is_stmt,isa 1
;----------------------------------------------------------------------
; 1273 | ( void ) uxPriorityUsedOnEntry;                                        
;----------------------------------------------------------------------
;* --------------------------------------------------------------------------*
||$C$L37||:    
	.dwpsn	file "../Source/tasks.c",line 1276,column 3,is_stmt,isa 1
;----------------------------------------------------------------------
; 1276 | taskEXIT_CRITICAL();                                                   
;----------------------------------------------------------------------
$C$DW$139	.dwtag  DW_TAG_TI_branch
	.dwattr $C$DW$139, DW_AT_low_pc(0x00)
	.dwattr $C$DW$139, DW_AT_name("vPortExitCritical")
	.dwattr $C$DW$139, DW_AT_TI_call

        BL        vPortExitCritical     ; [DPU_V7M3_PIPE] |1276| 
        ; CALL OCCURS {vPortExitCritical }  ; [] |1276| 
	.dwpsn	file "../Source/tasks.c",line 1277,column 2,is_stmt,isa 1
        ADD       SP, SP, #24           ; [DPU_V7M3_PIPE] 
	.dwcfi	cfa_offset, 8
$C$DW$140	.dwtag  DW_TAG_TI_branch
	.dwattr $C$DW$140, DW_AT_low_pc(0x00)
	.dwattr $C$DW$140, DW_AT_TI_return

        POP       {V1, PC}              ; [DPU_V7M3_PIPE] 
	.dwcfi	cfa_offset, 0
	.dwcfi	restore_reg, 4
        ; BRANCH OCCURS                  ; [] 
	.dwattr $C$DW$127, DW_AT_TI_end_file("../Source/tasks.c")
	.dwattr $C$DW$127, DW_AT_TI_end_line(0x4fd)
	.dwattr $C$DW$127, DW_AT_TI_end_column(0x02)
	.dwendentry
	.dwendtag $C$DW$127

;******************************************************************************
;* CONSTANT TABLE                                                             *
;******************************************************************************
	.sect	".text"
	.align	4
||$C$CON10||:	.bits	xTickCount,32
	.sect	".text"
	.clink
	.thumbfunc vTaskSuspend
	.thumb
	.global	vTaskSuspend

$C$DW$141	.dwtag  DW_TAG_subprogram
	.dwattr $C$DW$141, DW_AT_name("vTaskSuspend")
	.dwattr $C$DW$141, DW_AT_low_pc(vTaskSuspend)
	.dwattr $C$DW$141, DW_AT_high_pc(0x00)
	.dwattr $C$DW$141, DW_AT_TI_symbol_name("vTaskSuspend")
	.dwattr $C$DW$141, DW_AT_external
	.dwattr $C$DW$141, DW_AT_TI_begin_file("../Source/tasks.c")
	.dwattr $C$DW$141, DW_AT_TI_begin_line(0x504)
	.dwattr $C$DW$141, DW_AT_TI_begin_column(0x07)
	.dwattr $C$DW$141, DW_AT_decl_file("../Source/tasks.c")
	.dwattr $C$DW$141, DW_AT_decl_line(0x504)
	.dwattr $C$DW$141, DW_AT_decl_column(0x07)
	.dwattr $C$DW$141, DW_AT_TI_max_frame_size(0x10)
	.dwpsn	file "../Source/tasks.c",line 1285,column 2,is_stmt,address vTaskSuspend,isa 1

	.dwfde $C$DW$CIE, vTaskSuspend
$C$DW$142	.dwtag  DW_TAG_formal_parameter
	.dwattr $C$DW$142, DW_AT_name("xTaskToSuspend")
	.dwattr $C$DW$142, DW_AT_TI_symbol_name("xTaskToSuspend")
	.dwattr $C$DW$142, DW_AT_type(*$C$DW$T$65)
	.dwattr $C$DW$142, DW_AT_location[DW_OP_reg0]

;----------------------------------------------------------------------
; 1284 | void vTaskSuspend( TaskHandle_t xTaskToSuspend )                       
;----------------------------------------------------------------------

;*****************************************************************************
;* FUNCTION NAME: vTaskSuspend                                               *
;*                                                                           *
;*   Regs Modified     : A1,A2,A3,A4,V9,SP,LR,SR,D0,D0_hi,D1,D1_hi,D2,D2_hi, *
;*                           D3,D3_hi,D4,D4_hi,D5,D5_hi,D6,D6_hi,D7,D7_hi,   *
;*                           FPEXC,FPSCR                                     *
;*   Regs Used         : A1,A2,A3,A4,V9,SP,LR,SR,D0,D0_hi,D1,D1_hi,D2,D2_hi, *
;*                           D3,D3_hi,D4,D4_hi,D5,D5_hi,D6,D6_hi,D7,D7_hi,   *
;*                           FPEXC,FPSCR                                     *
;*   Local Frame Size  : 0 Args + 8 Auto + 4 Save = 12 byte                  *
;*****************************************************************************
vTaskSuspend:
;* --------------------------------------------------------------------------*
	.dwcfi	cfa_offset, 0
        PUSH      {A2, A3, A4, LR}      ; [DPU_V7M3_PIPE] 
	.dwcfi	cfa_offset, 16
	.dwcfi	save_reg_to_mem, 14, -4
	.dwcfi	save_reg_to_mem, 3, -8
	.dwcfi	save_reg_to_mem, 2, -12
	.dwcfi	save_reg_to_mem, 1, -16
$C$DW$143	.dwtag  DW_TAG_variable
	.dwattr $C$DW$143, DW_AT_name("xTaskToSuspend")
	.dwattr $C$DW$143, DW_AT_TI_symbol_name("xTaskToSuspend")
	.dwattr $C$DW$143, DW_AT_type(*$C$DW$T$65)
	.dwattr $C$DW$143, DW_AT_location[DW_OP_breg13 0]

$C$DW$144	.dwtag  DW_TAG_variable
	.dwattr $C$DW$144, DW_AT_name("pxTCB")
	.dwattr $C$DW$144, DW_AT_TI_symbol_name("pxTCB")
	.dwattr $C$DW$144, DW_AT_type(*$C$DW$T$128)
	.dwattr $C$DW$144, DW_AT_location[DW_OP_breg13 4]

;----------------------------------------------------------------------
; 1286 | TCB_t *pxTCB;                                                          
;----------------------------------------------------------------------
        STR       A1, [SP, #0]          ; [DPU_V7M3_PIPE] |1285| 
	.dwpsn	file "../Source/tasks.c",line 1288,column 3,is_stmt,isa 1
;----------------------------------------------------------------------
; 1288 | taskENTER_CRITICAL();                                                  
;----------------------------------------------------------------------
$C$DW$145	.dwtag  DW_TAG_TI_branch
	.dwattr $C$DW$145, DW_AT_low_pc(0x00)
	.dwattr $C$DW$145, DW_AT_name("vPortEnterCritical")
	.dwattr $C$DW$145, DW_AT_TI_call

        BL        vPortEnterCritical    ; [DPU_V7M3_PIPE] |1288| 
        ; CALL OCCURS {vPortEnterCritical }  ; [] |1288| 
	.dwpsn	file "../Source/tasks.c",line 1292,column 4,is_stmt,isa 1
;----------------------------------------------------------------------
; 1292 | pxTCB = prvGetTCBFromHandle( xTaskToSuspend );                         
; 1294 | traceTASK_SUSPEND( pxTCB );                                            
;----------------------------------------------------------------------
        LDR       A1, [SP, #0]          ; [DPU_V7M3_PIPE] |1292| 
        CBNZ      A1, ||$C$L38||        ; [] 
        ; BRANCHCC OCCURS {||$C$L38||}   ; [] |1292| 
;* --------------------------------------------------------------------------*
        LDR       A1, $C$CON11          ; [DPU_V7M3_PIPE] |1292| 
        LDR       A1, [A1, #0]          ; [DPU_V7M3_PIPE] |1292| 
        B         ||$C$L39||            ; [DPU_V7M3_PIPE] |1292| 
        ; BRANCH OCCURS {||$C$L39||}     ; [] |1292| 
;* --------------------------------------------------------------------------*
||$C$L38||:    
        LDR       A1, [SP, #0]          ; [DPU_V7M3_PIPE] |1292| 
;* --------------------------------------------------------------------------*
||$C$L39||:    
        STR       A1, [SP, #4]          ; [DPU_V7M3_PIPE] |1292| 
	.dwpsn	file "../Source/tasks.c",line 1298,column 4,is_stmt,isa 1
;----------------------------------------------------------------------
; 1298 | if( uxListRemove( &( pxTCB->xGenericListItem ) ) == ( UBaseType_t ) 0 )
;----------------------------------------------------------------------
        LDR       A1, [SP, #4]          ; [DPU_V7M3_PIPE] |1298| 
        ADDS      A1, A1, #4            ; [DPU_V7M3_PIPE] |1298| 
$C$DW$146	.dwtag  DW_TAG_TI_branch
	.dwattr $C$DW$146, DW_AT_low_pc(0x00)
	.dwattr $C$DW$146, DW_AT_name("uxListRemove")
	.dwattr $C$DW$146, DW_AT_TI_call

        BL        uxListRemove          ; [DPU_V7M3_PIPE] |1298| 
        ; CALL OCCURS {uxListRemove }    ; [] |1298| 
        CBNZ      A1, ||$C$L40||        ; [] 
        ; BRANCHCC OCCURS {||$C$L40||}   ; [] |1298| 
;* --------------------------------------------------------------------------*
	.dwpsn	file "../Source/tasks.c",line 1300,column 5,is_stmt,isa 1
;----------------------------------------------------------------------
; 1300 | taskRESET_READY_PRIORITY( pxTCB->uxPriority );                         
;----------------------------------------------------------------------
        LDR       A1, [SP, #4]          ; [DPU_V7M3_PIPE] |1300| 
        LDR       A2, $C$CON12          ; [DPU_V7M3_PIPE] |1300| 
        LDR       A3, [A1, #44]         ; [DPU_V7M3_PIPE] |1300| 
        LSLS      A1, A3, #2            ; [DPU_V7M3_PIPE] |1300| 
        ADD       A1, A1, A3, LSL #4    ; [DPU_V7M3_PIPE] |1300| 
        LDR       A1, [A2, +A1]         ; [DPU_V7M3_PIPE] |1300| 
        CBNZ      A1, ||$C$L40||        ; [] 
        ; BRANCHCC OCCURS {||$C$L40||}   ; [] |1300| 
;* --------------------------------------------------------------------------*
        LDR       A1, [SP, #4]          ; [DPU_V7M3_PIPE] |1300| 
        LDR       A3, $C$CON13          ; [DPU_V7M3_PIPE] |1300| 
        LDR       A4, [A1, #44]         ; [DPU_V7M3_PIPE] |1300| 
        LDR       A2, [A3, #0]          ; [DPU_V7M3_PIPE] |1300| 
        MOVS      A1, #1                ; [DPU_V7M3_PIPE] |1300| 
        LSLS      A1, A1, A4            ; [DPU_V7M3_PIPE] |1300| 
        BICS      A2, A2, A1            ; [DPU_V7M3_PIPE] |1300| 
        STR       A2, [A3, #0]          ; [DPU_V7M3_PIPE] |1300| 
	.dwpsn	file "../Source/tasks.c",line 1301,column 4,is_stmt,isa 1
;----------------------------------------------------------------------
; 1302 | else                                                                   
; 1304 |         mtCOVERAGE_TEST_MARKER();                                      
;----------------------------------------------------------------------
;* --------------------------------------------------------------------------*
||$C$L40||:    
	.dwpsn	file "../Source/tasks.c",line 1308,column 4,is_stmt,isa 1
;----------------------------------------------------------------------
; 1308 | if( listLIST_ITEM_CONTAINER( &( pxTCB->xEventListItem ) ) != NULL )    
;----------------------------------------------------------------------
        LDR       A1, [SP, #4]          ; [DPU_V7M3_PIPE] |1308| 
        LDR       A1, [A1, #40]         ; [DPU_V7M3_PIPE] |1308| 
        CBZ       A1, ||$C$L41||        ; [] 
        ; BRANCHCC OCCURS {||$C$L41||}   ; [] |1308| 
;* --------------------------------------------------------------------------*
	.dwpsn	file "../Source/tasks.c",line 1310,column 5,is_stmt,isa 1
;----------------------------------------------------------------------
; 1310 | ( void ) uxListRemove( &( pxTCB->xEventListItem ) );                   
;----------------------------------------------------------------------
        LDR       A1, [SP, #4]          ; [DPU_V7M3_PIPE] |1310| 
        ADDS      A1, A1, #24           ; [DPU_V7M3_PIPE] |1310| 
$C$DW$147	.dwtag  DW_TAG_TI_branch
	.dwattr $C$DW$147, DW_AT_low_pc(0x00)
	.dwattr $C$DW$147, DW_AT_name("uxListRemove")
	.dwattr $C$DW$147, DW_AT_TI_call

        BL        uxListRemove          ; [DPU_V7M3_PIPE] |1310| 
        ; CALL OCCURS {uxListRemove }    ; [] |1310| 
	.dwpsn	file "../Source/tasks.c",line 1311,column 4,is_stmt,isa 1
;----------------------------------------------------------------------
; 1312 | else                                                                   
; 1314 |         mtCOVERAGE_TEST_MARKER();                                      
;----------------------------------------------------------------------
;* --------------------------------------------------------------------------*
||$C$L41||:    
	.dwpsn	file "../Source/tasks.c",line 1317,column 4,is_stmt,isa 1
;----------------------------------------------------------------------
; 1317 | vListInsertEnd( &xSuspendedTaskList, &( pxTCB->xGenericListItem ) );   
;----------------------------------------------------------------------
        LDR       A2, [SP, #4]          ; [DPU_V7M3_PIPE] |1317| 
        LDR       A1, $C$CON14          ; [DPU_V7M3_PIPE] |1317| 
        ADDS      A2, A2, #4            ; [DPU_V7M3_PIPE] |1317| 
$C$DW$148	.dwtag  DW_TAG_TI_branch
	.dwattr $C$DW$148, DW_AT_low_pc(0x00)
	.dwattr $C$DW$148, DW_AT_name("vListInsertEnd")
	.dwattr $C$DW$148, DW_AT_TI_call

        BL        vListInsertEnd        ; [DPU_V7M3_PIPE] |1317| 
        ; CALL OCCURS {vListInsertEnd }  ; [] |1317| 
	.dwpsn	file "../Source/tasks.c",line 1319,column 3,is_stmt,isa 1
;----------------------------------------------------------------------
; 1319 | taskEXIT_CRITICAL();                                                   
;----------------------------------------------------------------------
$C$DW$149	.dwtag  DW_TAG_TI_branch
	.dwattr $C$DW$149, DW_AT_low_pc(0x00)
	.dwattr $C$DW$149, DW_AT_name("vPortExitCritical")
	.dwattr $C$DW$149, DW_AT_TI_call

        BL        vPortExitCritical     ; [DPU_V7M3_PIPE] |1319| 
        ; CALL OCCURS {vPortExitCritical }  ; [] |1319| 
	.dwpsn	file "../Source/tasks.c",line 1321,column 3,is_stmt,isa 1
;----------------------------------------------------------------------
; 1321 | if( pxTCB == pxCurrentTCB )                                            
;----------------------------------------------------------------------
        LDR       A1, $C$CON11          ; [DPU_V7M3_PIPE] |1321| 
        LDR       A2, [SP, #4]          ; [DPU_V7M3_PIPE] |1321| 
        LDR       A1, [A1, #0]          ; [DPU_V7M3_PIPE] |1321| 
        CMP       A1, A2                ; [DPU_V7M3_PIPE] |1321| 
        BNE       ||$C$L44||            ; [DPU_V7M3_PIPE] |1321| 
        ; BRANCHCC OCCURS {||$C$L44||}   ; [] |1321| 
;* --------------------------------------------------------------------------*
	.dwpsn	file "../Source/tasks.c",line 1323,column 4,is_stmt,isa 1
;----------------------------------------------------------------------
; 1323 | if( xSchedulerRunning != pdFALSE )                                     
; 1326 |         configASSERT( uxSchedulerSuspended == 0 );                     
;----------------------------------------------------------------------
        LDR       A1, $C$CON15          ; [DPU_V7M3_PIPE] |1323| 
        LDR       A1, [A1, #0]          ; [DPU_V7M3_PIPE] |1323| 
        CBZ       A1, ||$C$L42||        ; [] 
        ; BRANCHCC OCCURS {||$C$L42||}   ; [] |1323| 
;* --------------------------------------------------------------------------*
	.dwpsn	file "../Source/tasks.c",line 1327,column 5,is_stmt,isa 1
;----------------------------------------------------------------------
; 1327 | portYIELD_WITHIN_API();                                                
;----------------------------------------------------------------------
        LDR       A2, $C$CON16          ; [DPU_V7M3_PIPE] |1327| 
        MOV       A1, #268435456        ; [DPU_V7M3_PIPE] |1327| 
        STR       A1, [A2, #0]          ; [DPU_V7M3_PIPE] |1327| 
	dsb
	isb
	.dwpsn	file "../Source/tasks.c",line 1328,column 4,is_stmt,isa 1
;----------------------------------------------------------------------
; 1329 | else                                                                   
;----------------------------------------------------------------------
        B         ||$C$L45||            ; [DPU_V7M3_PIPE] |1328| 
        ; BRANCH OCCURS {||$C$L45||}     ; [] |1328| 
;* --------------------------------------------------------------------------*
||$C$L42||:    
	.dwpsn	file "../Source/tasks.c",line 1334,column 5,is_stmt,isa 1
;----------------------------------------------------------------------
; 1334 | if( listCURRENT_LIST_LENGTH( &xSuspendedTaskList ) == uxCurrentNumberOf
;     | Tasks )                                                                
;----------------------------------------------------------------------
        LDR       A1, $C$CON17          ; [DPU_V7M3_PIPE] |1334| 
        LDR       A2, $C$CON14          ; [DPU_V7M3_PIPE] |1334| 
        LDR       A1, [A1, #0]          ; [DPU_V7M3_PIPE] |1334| 
        LDR       A2, [A2, #0]          ; [DPU_V7M3_PIPE] |1334| 
        CMP       A1, A2                ; [DPU_V7M3_PIPE] |1334| 
        BNE       ||$C$L43||            ; [DPU_V7M3_PIPE] |1334| 
        ; BRANCHCC OCCURS {||$C$L43||}   ; [] |1334| 
;* --------------------------------------------------------------------------*
	.dwpsn	file "../Source/tasks.c",line 1340,column 6,is_stmt,isa 1
;----------------------------------------------------------------------
; 1340 | pxCurrentTCB = NULL;                                                   
;----------------------------------------------------------------------
        LDR       A2, $C$CON11          ; [DPU_V7M3_PIPE] |1340| 
        MOVS      A1, #0                ; [DPU_V7M3_PIPE] |1340| 
        STR       A1, [A2, #0]          ; [DPU_V7M3_PIPE] |1340| 
	.dwpsn	file "../Source/tasks.c",line 1341,column 5,is_stmt,isa 1
;----------------------------------------------------------------------
; 1342 | else                                                                   
;----------------------------------------------------------------------
        B         ||$C$L45||            ; [DPU_V7M3_PIPE] |1341| 
        ; BRANCH OCCURS {||$C$L45||}     ; [] |1341| 
;* --------------------------------------------------------------------------*
||$C$L43||:    
	.dwpsn	file "../Source/tasks.c",line 1344,column 6,is_stmt,isa 1
;----------------------------------------------------------------------
; 1344 | vTaskSwitchContext();                                                  
;----------------------------------------------------------------------
$C$DW$150	.dwtag  DW_TAG_TI_branch
	.dwattr $C$DW$150, DW_AT_low_pc(0x00)
	.dwattr $C$DW$150, DW_AT_name("vTaskSwitchContext")
	.dwattr $C$DW$150, DW_AT_TI_call

        BL        vTaskSwitchContext    ; [DPU_V7M3_PIPE] |1344| 
        ; CALL OCCURS {vTaskSwitchContext }  ; [] |1344| 
	.dwpsn	file "../Source/tasks.c",line 1347,column 3,is_stmt,isa 1
;----------------------------------------------------------------------
; 1348 | else                                                                   
;----------------------------------------------------------------------
        B         ||$C$L45||            ; [DPU_V7M3_PIPE] |1347| 
        ; BRANCH OCCURS {||$C$L45||}     ; [] |1347| 
;* --------------------------------------------------------------------------*
||$C$L44||:    
	.dwpsn	file "../Source/tasks.c",line 1350,column 4,is_stmt,isa 1
;----------------------------------------------------------------------
; 1350 | if( xSchedulerRunning != pdFALSE )                                     
;----------------------------------------------------------------------
        LDR       A1, $C$CON15          ; [DPU_V7M3_PIPE] |1350| 
        LDR       A1, [A1, #0]          ; [DPU_V7M3_PIPE] |1350| 
        CBZ       A1, ||$C$L45||        ; [] 
        ; BRANCHCC OCCURS {||$C$L45||}   ; [] |1350| 
;* --------------------------------------------------------------------------*
	.dwpsn	file "../Source/tasks.c",line 1355,column 5,is_stmt,isa 1
;----------------------------------------------------------------------
; 1355 | taskENTER_CRITICAL();                                                  
;----------------------------------------------------------------------
$C$DW$151	.dwtag  DW_TAG_TI_branch
	.dwattr $C$DW$151, DW_AT_low_pc(0x00)
	.dwattr $C$DW$151, DW_AT_name("vPortEnterCritical")
	.dwattr $C$DW$151, DW_AT_TI_call

        BL        vPortEnterCritical    ; [DPU_V7M3_PIPE] |1355| 
        ; CALL OCCURS {vPortEnterCritical }  ; [] |1355| 
	.dwpsn	file "../Source/tasks.c",line 1357,column 6,is_stmt,isa 1
;----------------------------------------------------------------------
; 1357 | prvResetNextTaskUnblockTime();                                         
;----------------------------------------------------------------------
$C$DW$152	.dwtag  DW_TAG_TI_branch
	.dwattr $C$DW$152, DW_AT_low_pc(0x00)
	.dwattr $C$DW$152, DW_AT_name("prvResetNextTaskUnblockTime")
	.dwattr $C$DW$152, DW_AT_TI_call

        BL        prvResetNextTaskUnblockTime ; [DPU_V7M3_PIPE] |1357| 
        ; CALL OCCURS {prvResetNextTaskUnblockTime }  ; [] |1357| 
	.dwpsn	file "../Source/tasks.c",line 1359,column 5,is_stmt,isa 1
;----------------------------------------------------------------------
; 1359 | taskEXIT_CRITICAL();                                                   
;----------------------------------------------------------------------
$C$DW$153	.dwtag  DW_TAG_TI_branch
	.dwattr $C$DW$153, DW_AT_low_pc(0x00)
	.dwattr $C$DW$153, DW_AT_name("vPortExitCritical")
	.dwattr $C$DW$153, DW_AT_TI_call

        BL        vPortExitCritical     ; [DPU_V7M3_PIPE] |1359| 
        ; CALL OCCURS {vPortExitCritical }  ; [] |1359| 
	.dwpsn	file "../Source/tasks.c",line 1360,column 4,is_stmt,isa 1
;----------------------------------------------------------------------
; 1361 | else                                                                   
; 1363 |         mtCOVERAGE_TEST_MARKER();                                      
;----------------------------------------------------------------------
        B         ||$C$L45||            ; [DPU_V7M3_PIPE] |1360| 
        ; BRANCH OCCURS {||$C$L45||}     ; [] |1360| 
;* --------------------------------------------------------------------------*
;* --------------------------------------------------------------------------*
||$C$L45||:    
$C$DW$154	.dwtag  DW_TAG_TI_branch
	.dwattr $C$DW$154, DW_AT_low_pc(0x00)
	.dwattr $C$DW$154, DW_AT_TI_return

        POP       {A2, A3, A4, PC}      ; [DPU_V7M3_PIPE] 
	.dwcfi	cfa_offset, 0
	.dwcfi	restore_reg, 3
	.dwcfi	restore_reg, 2
	.dwcfi	restore_reg, 1
        ; BRANCH OCCURS                  ; [] 
	.dwattr $C$DW$141, DW_AT_TI_end_file("../Source/tasks.c")
	.dwattr $C$DW$141, DW_AT_TI_end_line(0x556)
	.dwattr $C$DW$141, DW_AT_TI_end_column(0x02)
	.dwendentry
	.dwendtag $C$DW$141

	.sect	".text"
	.clink
	.thumbfunc prvTaskIsTaskSuspended
	.thumb

$C$DW$155	.dwtag  DW_TAG_subprogram
	.dwattr $C$DW$155, DW_AT_name("prvTaskIsTaskSuspended")
	.dwattr $C$DW$155, DW_AT_low_pc(prvTaskIsTaskSuspended)
	.dwattr $C$DW$155, DW_AT_high_pc(0x00)
	.dwattr $C$DW$155, DW_AT_TI_symbol_name("prvTaskIsTaskSuspended")
	.dwattr $C$DW$155, DW_AT_type(*$C$DW$T$71)
	.dwattr $C$DW$155, DW_AT_TI_begin_file("../Source/tasks.c")
	.dwattr $C$DW$155, DW_AT_TI_begin_line(0x55d)
	.dwattr $C$DW$155, DW_AT_TI_begin_column(0x14)
	.dwattr $C$DW$155, DW_AT_decl_file("../Source/tasks.c")
	.dwattr $C$DW$155, DW_AT_decl_line(0x55d)
	.dwattr $C$DW$155, DW_AT_decl_column(0x14)
	.dwattr $C$DW$155, DW_AT_TI_max_frame_size(0x10)
	.dwpsn	file "../Source/tasks.c",line 1374,column 2,is_stmt,address prvTaskIsTaskSuspended,isa 1

	.dwfde $C$DW$CIE, prvTaskIsTaskSuspended
$C$DW$156	.dwtag  DW_TAG_formal_parameter
	.dwattr $C$DW$156, DW_AT_name("xTask")
	.dwattr $C$DW$156, DW_AT_TI_symbol_name("xTask")
	.dwattr $C$DW$156, DW_AT_type(*$C$DW$T$82)
	.dwattr $C$DW$156, DW_AT_location[DW_OP_reg0]

;----------------------------------------------------------------------
; 1373 | static BaseType_t prvTaskIsTaskSuspended( const TaskHandle_t xTask )   
;----------------------------------------------------------------------

;*****************************************************************************
;* FUNCTION NAME: prvTaskIsTaskSuspended                                     *
;*                                                                           *
;*   Regs Modified     : A1,A2,A3,SP,SR                                      *
;*   Regs Used         : A1,A2,A3,SP,LR,SR                                   *
;*   Local Frame Size  : 0 Args + 12 Auto + 0 Save = 12 byte                 *
;*****************************************************************************
prvTaskIsTaskSuspended:
;* --------------------------------------------------------------------------*
	.dwcfi	cfa_offset, 0
        SUB       SP, SP, #16           ; [DPU_V7M3_PIPE] 
	.dwcfi	cfa_offset, 16
$C$DW$157	.dwtag  DW_TAG_variable
	.dwattr $C$DW$157, DW_AT_name("xTask")
	.dwattr $C$DW$157, DW_AT_TI_symbol_name("xTask")
	.dwattr $C$DW$157, DW_AT_type(*$C$DW$T$82)
	.dwattr $C$DW$157, DW_AT_location[DW_OP_breg13 0]

$C$DW$158	.dwtag  DW_TAG_variable
	.dwattr $C$DW$158, DW_AT_name("xReturn")
	.dwattr $C$DW$158, DW_AT_TI_symbol_name("xReturn")
	.dwattr $C$DW$158, DW_AT_type(*$C$DW$T$71)
	.dwattr $C$DW$158, DW_AT_location[DW_OP_breg13 4]

$C$DW$159	.dwtag  DW_TAG_variable
	.dwattr $C$DW$159, DW_AT_name("pxTCB")
	.dwattr $C$DW$159, DW_AT_TI_symbol_name("pxTCB")
	.dwattr $C$DW$159, DW_AT_type(*$C$DW$T$321)
	.dwattr $C$DW$159, DW_AT_location[DW_OP_breg13 8]

        STR       A1, [SP, #0]          ; [DPU_V7M3_PIPE] |1374| 
	.dwpsn	file "../Source/tasks.c",line 1375,column 21,is_stmt,isa 1
;----------------------------------------------------------------------
; 1375 | BaseType_t xReturn = pdFALSE;                                          
;----------------------------------------------------------------------
        MOVS      A1, #0                ; [DPU_V7M3_PIPE] |1375| 
        STR       A1, [SP, #4]          ; [DPU_V7M3_PIPE] |1375| 
	.dwpsn	file "../Source/tasks.c",line 1376,column 28,is_stmt,isa 1
;----------------------------------------------------------------------
; 1376 | const TCB_t * const pxTCB = ( TCB_t * ) xTask;                         
; 1382 |         configASSERT( xTask );                                         
;----------------------------------------------------------------------
        LDR       A1, [SP, #0]          ; [DPU_V7M3_PIPE] |1376| 
        STR       A1, [SP, #8]          ; [DPU_V7M3_PIPE] |1376| 
	.dwpsn	file "../Source/tasks.c",line 1385,column 3,is_stmt,isa 1
;----------------------------------------------------------------------
; 1385 | if( listIS_CONTAINED_WITHIN( &xSuspendedTaskList, &( pxTCB->xGenericLis
;     | tItem ) ) != pdFALSE )                                                 
;----------------------------------------------------------------------
        LDR       A1, [SP, #8]          ; [DPU_V7M3_PIPE] |1385| 
        LDR       A3, $C$CON14          ; [DPU_V7M3_PIPE] |1385| 
        LDR       A2, [A1, #20]         ; [DPU_V7M3_PIPE] |1385| 
        MOVS      A1, #0                ; [DPU_V7M3_PIPE] |1385| 
        CMP       A3, A2                ; [DPU_V7M3_PIPE] |1385| 
        BNE       ||$C$L46||            ; [DPU_V7M3_PIPE] |1385| 
        ; BRANCHCC OCCURS {||$C$L46||}   ; [] |1385| 
;* --------------------------------------------------------------------------*
        MOVS      A1, #1                ; [DPU_V7M3_PIPE] |1385| 
;* --------------------------------------------------------------------------*
||$C$L46||:    
        CBZ       A1, ||$C$L49||        ; [] 
        ; BRANCHCC OCCURS {||$C$L49||}   ; [] |1385| 
;* --------------------------------------------------------------------------*
	.dwpsn	file "../Source/tasks.c",line 1388,column 4,is_stmt,isa 1
;----------------------------------------------------------------------
; 1388 | if( listIS_CONTAINED_WITHIN( &xPendingReadyList, &( pxTCB->xEventListIt
;     | em ) ) == pdFALSE )                                                    
;----------------------------------------------------------------------
        LDR       A1, [SP, #8]          ; [DPU_V7M3_PIPE] |1388| 
        LDR       A3, $C$CON18          ; [DPU_V7M3_PIPE] |1388| 
        LDR       A2, [A1, #40]         ; [DPU_V7M3_PIPE] |1388| 
        MOVS      A1, #0                ; [DPU_V7M3_PIPE] |1388| 
        CMP       A3, A2                ; [DPU_V7M3_PIPE] |1388| 
        BNE       ||$C$L47||            ; [DPU_V7M3_PIPE] |1388| 
        ; BRANCHCC OCCURS {||$C$L47||}   ; [] |1388| 
;* --------------------------------------------------------------------------*
        MOVS      A1, #1                ; [DPU_V7M3_PIPE] |1388| 
;* --------------------------------------------------------------------------*
||$C$L47||:    
        CBNZ      A1, ||$C$L49||        ; [] 
        ; BRANCHCC OCCURS {||$C$L49||}   ; [] |1388| 
;* --------------------------------------------------------------------------*
	.dwpsn	file "../Source/tasks.c",line 1392,column 5,is_stmt,isa 1
;----------------------------------------------------------------------
; 1392 | if( listIS_CONTAINED_WITHIN( NULL, &( pxTCB->xEventListItem ) ) != pdFA
;     | LSE )                                                                  
;----------------------------------------------------------------------
        LDR       A1, [SP, #8]          ; [DPU_V7M3_PIPE] |1392| 
        LDR       A2, [A1, #40]         ; [DPU_V7M3_PIPE] |1392| 
        MOVS      A1, #0                ; [DPU_V7M3_PIPE] |1392| 
        CBNZ      A2, ||$C$L48||        ; [] 
        ; BRANCHCC OCCURS {||$C$L48||}   ; [] |1392| 
;* --------------------------------------------------------------------------*
        MOVS      A1, #1                ; [DPU_V7M3_PIPE] |1392| 
;* --------------------------------------------------------------------------*
||$C$L48||:    
        CBZ       A1, ||$C$L49||        ; [] 
        ; BRANCHCC OCCURS {||$C$L49||}   ; [] |1392| 
;* --------------------------------------------------------------------------*
	.dwpsn	file "../Source/tasks.c",line 1394,column 6,is_stmt,isa 1
;----------------------------------------------------------------------
; 1394 | xReturn = pdTRUE;                                                      
;----------------------------------------------------------------------
        MOVS      A1, #1                ; [DPU_V7M3_PIPE] |1394| 
        STR       A1, [SP, #4]          ; [DPU_V7M3_PIPE] |1394| 
	.dwpsn	file "../Source/tasks.c",line 1395,column 5,is_stmt,isa 1
;----------------------------------------------------------------------
; 1396 | else                                                                   
; 1398 |         mtCOVERAGE_TEST_MARKER();                                      
; 1401 | else                                                                   
; 1403 | mtCOVERAGE_TEST_MARKER();                                              
; 1406 | else                                                                   
; 1408 | mtCOVERAGE_TEST_MARKER();                                              
;----------------------------------------------------------------------
        B         ||$C$L49||            ; [DPU_V7M3_PIPE] |1395| 
        ; BRANCH OCCURS {||$C$L49||}     ; [] |1395| 
;* --------------------------------------------------------------------------*
;* --------------------------------------------------------------------------*
||$C$L49||:    
	.dwpsn	file "../Source/tasks.c",line 1411,column 3,is_stmt,isa 1
;----------------------------------------------------------------------
; 1411 | return xReturn;                                                        
;----------------------------------------------------------------------
        LDR       A1, [SP, #4]          ; [DPU_V7M3_PIPE] |1411| 
	.dwpsn	file "../Source/tasks.c",line 1412,column 2,is_stmt,isa 1
        ADD       SP, SP, #16           ; [DPU_V7M3_PIPE] 
	.dwcfi	cfa_offset, 0
$C$DW$160	.dwtag  DW_TAG_TI_branch
	.dwattr $C$DW$160, DW_AT_low_pc(0x00)
	.dwattr $C$DW$160, DW_AT_TI_return

        BX        LR                    ; [DPU_V7M3_PIPE] 
        ; BRANCH OCCURS                  ; [] 
	.dwattr $C$DW$155, DW_AT_TI_end_file("../Source/tasks.c")
	.dwattr $C$DW$155, DW_AT_TI_end_line(0x584)
	.dwattr $C$DW$155, DW_AT_TI_end_column(0x02)
	.dwendentry
	.dwendtag $C$DW$155

	.sect	".text"
	.clink
	.thumbfunc vTaskResume
	.thumb
	.global	vTaskResume

$C$DW$161	.dwtag  DW_TAG_subprogram
	.dwattr $C$DW$161, DW_AT_name("vTaskResume")
	.dwattr $C$DW$161, DW_AT_low_pc(vTaskResume)
	.dwattr $C$DW$161, DW_AT_high_pc(0x00)
	.dwattr $C$DW$161, DW_AT_TI_symbol_name("vTaskResume")
	.dwattr $C$DW$161, DW_AT_external
	.dwattr $C$DW$161, DW_AT_TI_begin_file("../Source/tasks.c")
	.dwattr $C$DW$161, DW_AT_TI_begin_line(0x58b)
	.dwattr $C$DW$161, DW_AT_TI_begin_column(0x07)
	.dwattr $C$DW$161, DW_AT_decl_file("../Source/tasks.c")
	.dwattr $C$DW$161, DW_AT_decl_line(0x58b)
	.dwattr $C$DW$161, DW_AT_decl_column(0x07)
	.dwattr $C$DW$161, DW_AT_TI_max_frame_size(0x10)
	.dwpsn	file "../Source/tasks.c",line 1420,column 2,is_stmt,address vTaskResume,isa 1

	.dwfde $C$DW$CIE, vTaskResume
$C$DW$162	.dwtag  DW_TAG_formal_parameter
	.dwattr $C$DW$162, DW_AT_name("xTaskToResume")
	.dwattr $C$DW$162, DW_AT_TI_symbol_name("xTaskToResume")
	.dwattr $C$DW$162, DW_AT_type(*$C$DW$T$65)
	.dwattr $C$DW$162, DW_AT_location[DW_OP_reg0]

;----------------------------------------------------------------------
; 1419 | void vTaskResume( TaskHandle_t xTaskToResume )                         
;----------------------------------------------------------------------

;*****************************************************************************
;* FUNCTION NAME: vTaskResume                                                *
;*                                                                           *
;*   Regs Modified     : A1,A2,A3,A4,V1,V9,SP,LR,SR,D0,D0_hi,D1,D1_hi,D2,    *
;*                           D2_hi,D3,D3_hi,D4,D4_hi,D5,D5_hi,D6,D6_hi,D7,   *
;*                           D7_hi,FPEXC,FPSCR                               *
;*   Regs Used         : A1,A2,A3,A4,V1,V9,SP,LR,SR,D0,D0_hi,D1,D1_hi,D2,    *
;*                           D2_hi,D3,D3_hi,D4,D4_hi,D5,D5_hi,D6,D6_hi,D7,   *
;*                           D7_hi,FPEXC,FPSCR                               *
;*   Local Frame Size  : 0 Args + 8 Auto + 8 Save = 16 byte                  *
;*****************************************************************************
vTaskResume:
;* --------------------------------------------------------------------------*
	.dwcfi	cfa_offset, 0
        PUSH      {A3, A4, V1, LR}      ; [DPU_V7M3_PIPE] 
	.dwcfi	cfa_offset, 16
	.dwcfi	save_reg_to_mem, 14, -4
	.dwcfi	save_reg_to_mem, 4, -8
	.dwcfi	save_reg_to_mem, 3, -12
	.dwcfi	save_reg_to_mem, 2, -16
$C$DW$163	.dwtag  DW_TAG_variable
	.dwattr $C$DW$163, DW_AT_name("xTaskToResume")
	.dwattr $C$DW$163, DW_AT_TI_symbol_name("xTaskToResume")
	.dwattr $C$DW$163, DW_AT_type(*$C$DW$T$65)
	.dwattr $C$DW$163, DW_AT_location[DW_OP_breg13 0]

$C$DW$164	.dwtag  DW_TAG_variable
	.dwattr $C$DW$164, DW_AT_name("pxTCB")
	.dwattr $C$DW$164, DW_AT_TI_symbol_name("pxTCB")
	.dwattr $C$DW$164, DW_AT_type(*$C$DW$T$129)
	.dwattr $C$DW$164, DW_AT_location[DW_OP_breg13 4]

        STR       A1, [SP, #0]          ; [DPU_V7M3_PIPE] |1420| 
	.dwpsn	file "../Source/tasks.c",line 1421,column 22,is_stmt,isa 1
;----------------------------------------------------------------------
; 1421 | TCB_t * const pxTCB = ( TCB_t * ) xTaskToResume;                       
; 1424 |         configASSERT( xTaskToResume );                                 
;----------------------------------------------------------------------
        LDR       A1, [SP, #0]          ; [DPU_V7M3_PIPE] |1421| 
        STR       A1, [SP, #4]          ; [DPU_V7M3_PIPE] |1421| 
	.dwpsn	file "../Source/tasks.c",line 1428,column 3,is_stmt,isa 1
;----------------------------------------------------------------------
; 1428 | if( ( pxTCB != NULL ) && ( pxTCB != pxCurrentTCB ) )                   
;----------------------------------------------------------------------
        LDR       A1, [SP, #4]          ; [DPU_V7M3_PIPE] |1428| 
        CMP       A1, #0                ; [DPU_V7M3_PIPE] |1428| 
        BEQ       ||$C$L52||            ; [DPU_V7M3_PIPE] |1428| 
        ; BRANCHCC OCCURS {||$C$L52||}   ; [] |1428| 
;* --------------------------------------------------------------------------*
        LDR       A1, $C$CON11          ; [DPU_V7M3_PIPE] |1428| 
        LDR       A2, [SP, #4]          ; [DPU_V7M3_PIPE] |1428| 
        LDR       A1, [A1, #0]          ; [DPU_V7M3_PIPE] |1428| 
        CMP       A1, A2                ; [DPU_V7M3_PIPE] |1428| 
        BEQ       ||$C$L52||            ; [DPU_V7M3_PIPE] |1428| 
        ; BRANCHCC OCCURS {||$C$L52||}   ; [] |1428| 
;* --------------------------------------------------------------------------*
	.dwpsn	file "../Source/tasks.c",line 1430,column 4,is_stmt,isa 1
;----------------------------------------------------------------------
; 1430 | taskENTER_CRITICAL();                                                  
;----------------------------------------------------------------------
$C$DW$165	.dwtag  DW_TAG_TI_branch
	.dwattr $C$DW$165, DW_AT_low_pc(0x00)
	.dwattr $C$DW$165, DW_AT_name("vPortEnterCritical")
	.dwattr $C$DW$165, DW_AT_TI_call

        BL        vPortEnterCritical    ; [DPU_V7M3_PIPE] |1430| 
        ; CALL OCCURS {vPortEnterCritical }  ; [] |1430| 
	.dwpsn	file "../Source/tasks.c",line 1432,column 5,is_stmt,isa 1
;----------------------------------------------------------------------
; 1432 | if( prvTaskIsTaskSuspended( pxTCB ) == pdTRUE )                        
; 1434 |         traceTASK_RESUME( pxTCB );                                     
;----------------------------------------------------------------------
        LDR       A1, [SP, #4]          ; [DPU_V7M3_PIPE] |1432| 
$C$DW$166	.dwtag  DW_TAG_TI_branch
	.dwattr $C$DW$166, DW_AT_low_pc(0x00)
	.dwattr $C$DW$166, DW_AT_name("prvTaskIsTaskSuspended")
	.dwattr $C$DW$166, DW_AT_TI_call

        BL        prvTaskIsTaskSuspended ; [DPU_V7M3_PIPE] |1432| 
        ; CALL OCCURS {prvTaskIsTaskSuspended }  ; [] |1432| 
        CMP       A1, #1                ; [DPU_V7M3_PIPE] |1432| 
        BNE       ||$C$L51||            ; [DPU_V7M3_PIPE] |1432| 
        ; BRANCHCC OCCURS {||$C$L51||}   ; [] |1432| 
;* --------------------------------------------------------------------------*
        B         ||$C$L50||            ; [] 
        ; BRANCH OCCURS {||$C$L50||}     ; [] 
;******************************************************************************
;* CONSTANT TABLE                                                             *
;******************************************************************************
	.sect	".text"
	.align	4
||$C$CON11||:	.bits	pxCurrentTCB,32
;* --------------------------------------------------------------------------*
||$C$L50||:    
	.dwpsn	file "../Source/tasks.c",line 1438,column 6,is_stmt,isa 1
;----------------------------------------------------------------------
; 1438 | ( void ) uxListRemove(  &( pxTCB->xGenericListItem ) );                
;----------------------------------------------------------------------
        LDR       A1, [SP, #4]          ; [DPU_V7M3_PIPE] |1438| 
        ADDS      A1, A1, #4            ; [DPU_V7M3_PIPE] |1438| 
$C$DW$167	.dwtag  DW_TAG_TI_branch
	.dwattr $C$DW$167, DW_AT_low_pc(0x00)
	.dwattr $C$DW$167, DW_AT_name("uxListRemove")
	.dwattr $C$DW$167, DW_AT_TI_call

        BL        uxListRemove          ; [DPU_V7M3_PIPE] |1438| 
        ; CALL OCCURS {uxListRemove }    ; [] |1438| 
	.dwpsn	file "../Source/tasks.c",line 1439,column 6,is_stmt,isa 1
;----------------------------------------------------------------------
; 1439 | prvAddTaskToReadyList( pxTCB );                                        
;----------------------------------------------------------------------
        LDR       A1, [SP, #4]          ; [DPU_V7M3_PIPE] |1439| 
        LDR       A3, $C$CON13          ; [DPU_V7M3_PIPE] |1439| 
        LDR       V1, [A1, #44]         ; [DPU_V7M3_PIPE] |1439| 
        LDR       A2, [SP, #4]          ; [DPU_V7M3_PIPE] |1439| 
        LDR       A4, [A3, #0]          ; [DPU_V7M3_PIPE] |1439| 
        MOVS      A1, #1                ; [DPU_V7M3_PIPE] |1439| 
        LSLS      A1, A1, V1            ; [DPU_V7M3_PIPE] |1439| 
        ORRS      A1, A1, A4            ; [DPU_V7M3_PIPE] |1439| 
        STR       A1, [A3, #0]          ; [DPU_V7M3_PIPE] |1439| 
        LDR       A4, $C$CON12          ; [DPU_V7M3_PIPE] |1439| 
        LDR       A3, [A2, #44]         ; [DPU_V7M3_PIPE] |1439| 
        LDR       A2, [SP, #4]          ; [DPU_V7M3_PIPE] |1439| 
        LSLS      A1, A3, #2            ; [DPU_V7M3_PIPE] |1439| 
        ADD       A1, A1, A3, LSL #4    ; [DPU_V7M3_PIPE] |1439| 
        ADDS      A2, A2, #4            ; [DPU_V7M3_PIPE] |1439| 
        ADDS      A1, A1, A4            ; [DPU_V7M3_PIPE] |1439| 
$C$DW$168	.dwtag  DW_TAG_TI_branch
	.dwattr $C$DW$168, DW_AT_low_pc(0x00)
	.dwattr $C$DW$168, DW_AT_name("vListInsertEnd")
	.dwattr $C$DW$168, DW_AT_TI_call

        BL        vListInsertEnd        ; [DPU_V7M3_PIPE] |1439| 
        ; CALL OCCURS {vListInsertEnd }  ; [] |1439| 
	.dwpsn	file "../Source/tasks.c",line 1442,column 6,is_stmt,isa 1
;----------------------------------------------------------------------
; 1442 | if( pxTCB->uxPriority >= pxCurrentTCB->uxPriority )                    
; 1447 |         taskYIELD_IF_USING_PREEMPTION();                               
;----------------------------------------------------------------------
        LDR       A1, $C$CON19          ; [DPU_V7M3_PIPE] |1442| 
        LDR       A2, [SP, #4]          ; [DPU_V7M3_PIPE] |1442| 
        LDR       A1, [A1, #0]          ; [DPU_V7M3_PIPE] |1442| 
        LDR       A2, [A2, #44]         ; [DPU_V7M3_PIPE] |1442| 
        LDR       A1, [A1, #44]         ; [DPU_V7M3_PIPE] |1442| 
        CMP       A1, A2                ; [DPU_V7M3_PIPE] |1442| 
        BLS       ||$C$L51||            ; [DPU_V7M3_PIPE] |1442| 
        ; BRANCHCC OCCURS {||$C$L51||}   ; [] |1442| 
;* --------------------------------------------------------------------------*
	.dwpsn	file "../Source/tasks.c",line 1448,column 6,is_stmt,isa 1
;----------------------------------------------------------------------
; 1449 | else                                                                   
; 1451 |         mtCOVERAGE_TEST_MARKER();                                      
;----------------------------------------------------------------------
	.dwpsn	file "../Source/tasks.c",line 1453,column 5,is_stmt,isa 1
;----------------------------------------------------------------------
; 1454 | else                                                                   
; 1456 |         mtCOVERAGE_TEST_MARKER();                                      
;----------------------------------------------------------------------
;* --------------------------------------------------------------------------*
||$C$L51||:    
	.dwpsn	file "../Source/tasks.c",line 1459,column 4,is_stmt,isa 1
;----------------------------------------------------------------------
; 1459 | taskEXIT_CRITICAL();                                                   
;----------------------------------------------------------------------
$C$DW$169	.dwtag  DW_TAG_TI_branch
	.dwattr $C$DW$169, DW_AT_low_pc(0x00)
	.dwattr $C$DW$169, DW_AT_name("vPortExitCritical")
	.dwattr $C$DW$169, DW_AT_TI_call

        BL        vPortExitCritical     ; [DPU_V7M3_PIPE] |1459| 
        ; CALL OCCURS {vPortExitCritical }  ; [] |1459| 
	.dwpsn	file "../Source/tasks.c",line 1460,column 3,is_stmt,isa 1
;----------------------------------------------------------------------
; 1461 | else                                                                   
; 1463 |         mtCOVERAGE_TEST_MARKER();                                      
;----------------------------------------------------------------------
        B         ||$C$L52||            ; [DPU_V7M3_PIPE] |1460| 
        ; BRANCH OCCURS {||$C$L52||}     ; [] |1460| 
;* --------------------------------------------------------------------------*
;* --------------------------------------------------------------------------*
||$C$L52||:    
$C$DW$170	.dwtag  DW_TAG_TI_branch
	.dwattr $C$DW$170, DW_AT_low_pc(0x00)
	.dwattr $C$DW$170, DW_AT_TI_return

        POP       {A3, A4, V1, PC}      ; [DPU_V7M3_PIPE] 
	.dwcfi	cfa_offset, 0
	.dwcfi	restore_reg, 4
	.dwcfi	restore_reg, 3
	.dwcfi	restore_reg, 2
        ; BRANCH OCCURS                  ; [] 
	.dwattr $C$DW$161, DW_AT_TI_end_file("../Source/tasks.c")
	.dwattr $C$DW$161, DW_AT_TI_end_line(0x5b9)
	.dwattr $C$DW$161, DW_AT_TI_end_column(0x02)
	.dwendentry
	.dwendtag $C$DW$161

	.sect	".text"
	.clink
	.thumbfunc xTaskResumeFromISR
	.thumb
	.global	xTaskResumeFromISR

$C$DW$171	.dwtag  DW_TAG_subprogram
	.dwattr $C$DW$171, DW_AT_name("xTaskResumeFromISR")
	.dwattr $C$DW$171, DW_AT_low_pc(xTaskResumeFromISR)
	.dwattr $C$DW$171, DW_AT_high_pc(0x00)
	.dwattr $C$DW$171, DW_AT_TI_symbol_name("xTaskResumeFromISR")
	.dwattr $C$DW$171, DW_AT_external
	.dwattr $C$DW$171, DW_AT_type(*$C$DW$T$71)
	.dwattr $C$DW$171, DW_AT_TI_begin_file("../Source/tasks.c")
	.dwattr $C$DW$171, DW_AT_TI_begin_line(0x5c1)
	.dwattr $C$DW$171, DW_AT_TI_begin_column(0x0d)
	.dwattr $C$DW$171, DW_AT_decl_file("../Source/tasks.c")
	.dwattr $C$DW$171, DW_AT_decl_line(0x5c1)
	.dwattr $C$DW$171, DW_AT_decl_column(0x0d)
	.dwattr $C$DW$171, DW_AT_TI_max_frame_size(0x18)
	.dwpsn	file "../Source/tasks.c",line 1474,column 2,is_stmt,address xTaskResumeFromISR,isa 1

	.dwfde $C$DW$CIE, xTaskResumeFromISR
$C$DW$172	.dwtag  DW_TAG_formal_parameter
	.dwattr $C$DW$172, DW_AT_name("xTaskToResume")
	.dwattr $C$DW$172, DW_AT_TI_symbol_name("xTaskToResume")
	.dwattr $C$DW$172, DW_AT_type(*$C$DW$T$65)
	.dwattr $C$DW$172, DW_AT_location[DW_OP_reg0]

;----------------------------------------------------------------------
; 1473 | BaseType_t xTaskResumeFromISR( TaskHandle_t xTaskToResume )            
;----------------------------------------------------------------------

;*****************************************************************************
;* FUNCTION NAME: xTaskResumeFromISR                                         *
;*                                                                           *
;*   Regs Modified     : A1,A2,A3,A4,V1,V9,SP,LR,SR,D0,D0_hi,D1,D1_hi,D2,    *
;*                           D2_hi,D3,D3_hi,D4,D4_hi,D5,D5_hi,D6,D6_hi,D7,   *
;*                           D7_hi,FPEXC,FPSCR                               *
;*   Regs Used         : A1,A2,A3,A4,V1,V9,SP,LR,SR,D0,D0_hi,D1,D1_hi,D2,    *
;*                           D2_hi,D3,D3_hi,D4,D4_hi,D5,D5_hi,D6,D6_hi,D7,   *
;*                           D7_hi,FPEXC,FPSCR                               *
;*   Local Frame Size  : 0 Args + 16 Auto + 8 Save = 24 byte                 *
;*****************************************************************************
xTaskResumeFromISR:
;* --------------------------------------------------------------------------*
	.dwcfi	cfa_offset, 0
        PUSH      {A1, A2, A3, A4, V1, LR} ; [DPU_V7M3_PIPE] 
	.dwcfi	cfa_offset, 24
	.dwcfi	save_reg_to_mem, 14, -4
	.dwcfi	save_reg_to_mem, 4, -8
	.dwcfi	save_reg_to_mem, 3, -12
	.dwcfi	save_reg_to_mem, 2, -16
	.dwcfi	save_reg_to_mem, 1, -20
	.dwcfi	save_reg_to_mem, 0, -24
$C$DW$173	.dwtag  DW_TAG_variable
	.dwattr $C$DW$173, DW_AT_name("xTaskToResume")
	.dwattr $C$DW$173, DW_AT_TI_symbol_name("xTaskToResume")
	.dwattr $C$DW$173, DW_AT_type(*$C$DW$T$65)
	.dwattr $C$DW$173, DW_AT_location[DW_OP_breg13 0]

$C$DW$174	.dwtag  DW_TAG_variable
	.dwattr $C$DW$174, DW_AT_name("xYieldRequired")
	.dwattr $C$DW$174, DW_AT_TI_symbol_name("xYieldRequired")
	.dwattr $C$DW$174, DW_AT_type(*$C$DW$T$71)
	.dwattr $C$DW$174, DW_AT_location[DW_OP_breg13 4]

$C$DW$175	.dwtag  DW_TAG_variable
	.dwattr $C$DW$175, DW_AT_name("pxTCB")
	.dwattr $C$DW$175, DW_AT_TI_symbol_name("pxTCB")
	.dwattr $C$DW$175, DW_AT_type(*$C$DW$T$129)
	.dwattr $C$DW$175, DW_AT_location[DW_OP_breg13 8]

$C$DW$176	.dwtag  DW_TAG_variable
	.dwattr $C$DW$176, DW_AT_name("uxSavedInterruptStatus")
	.dwattr $C$DW$176, DW_AT_TI_symbol_name("uxSavedInterruptStatus")
	.dwattr $C$DW$176, DW_AT_type(*$C$DW$T$37)
	.dwattr $C$DW$176, DW_AT_location[DW_OP_breg13 12]

        STR       A1, [SP, #0]          ; [DPU_V7M3_PIPE] |1474| 
	.dwpsn	file "../Source/tasks.c",line 1475,column 28,is_stmt,isa 1
;----------------------------------------------------------------------
; 1475 | BaseType_t xYieldRequired = pdFALSE;                                   
;----------------------------------------------------------------------
        MOVS      A1, #0                ; [DPU_V7M3_PIPE] |1475| 
        STR       A1, [SP, #4]          ; [DPU_V7M3_PIPE] |1475| 
	.dwpsn	file "../Source/tasks.c",line 1476,column 22,is_stmt,isa 1
;----------------------------------------------------------------------
; 1476 | TCB_t * const pxTCB = ( TCB_t * ) xTaskToResume;                       
; 1477 | UBaseType_t uxSavedInterruptStatus;                                    
; 1479 |         configASSERT( xTaskToResume );                                 
; 1497 |         portASSERT_IF_INTERRUPT_PRIORITY_INVALID();                    
;----------------------------------------------------------------------
        LDR       A1, [SP, #0]          ; [DPU_V7M3_PIPE] |1476| 
        STR       A1, [SP, #8]          ; [DPU_V7M3_PIPE] |1476| 
	.dwpsn	file "../Source/tasks.c",line 1499,column 3,is_stmt,isa 1
;----------------------------------------------------------------------
; 1499 | uxSavedInterruptStatus = portSET_INTERRUPT_MASK_FROM_ISR();            
;----------------------------------------------------------------------
        MRS       A2, BASEPRI           ; [DPU_V7M3_PIPE] |1499| 
        MOVS      A1, #160              ; [DPU_V7M3_PIPE] |1499| 
        MSR       BASEPRI, A1           ; [DPU_V7M3_PIPE] |1499| 
        STR       A2, [SP, #12]         ; [DPU_V7M3_PIPE] |1499| 
	.dwpsn	file "../Source/tasks.c",line 1499,column 28,is_stmt,isa 1
	dsb
	isb
	.dwpsn	file "../Source/tasks.c",line 1501,column 4,is_stmt,isa 1
;----------------------------------------------------------------------
; 1501 | if( prvTaskIsTaskSuspended( pxTCB ) == pdTRUE )                        
; 1503 |         traceTASK_RESUME_FROM_ISR( pxTCB );                            
;----------------------------------------------------------------------
        LDR       A1, [SP, #8]          ; [DPU_V7M3_PIPE] |1501| 
$C$DW$177	.dwtag  DW_TAG_TI_branch
	.dwattr $C$DW$177, DW_AT_low_pc(0x00)
	.dwattr $C$DW$177, DW_AT_name("prvTaskIsTaskSuspended")
	.dwattr $C$DW$177, DW_AT_TI_call

        BL        prvTaskIsTaskSuspended ; [DPU_V7M3_PIPE] |1501| 
        ; CALL OCCURS {prvTaskIsTaskSuspended }  ; [] |1501| 
        CMP       A1, #1                ; [DPU_V7M3_PIPE] |1501| 
        BNE       ||$C$L55||            ; [DPU_V7M3_PIPE] |1501| 
        ; BRANCHCC OCCURS {||$C$L55||}   ; [] |1501| 
;* --------------------------------------------------------------------------*
	.dwpsn	file "../Source/tasks.c",line 1506,column 5,is_stmt,isa 1
;----------------------------------------------------------------------
; 1506 | if( uxSchedulerSuspended == ( UBaseType_t ) pdFALSE )                  
;----------------------------------------------------------------------
        LDR       A1, $C$CON20          ; [DPU_V7M3_PIPE] |1506| 
        LDR       A1, [A1, #0]          ; [DPU_V7M3_PIPE] |1506| 
        CBNZ      A1, ||$C$L54||        ; [] 
        ; BRANCHCC OCCURS {||$C$L54||}   ; [] |1506| 
;* --------------------------------------------------------------------------*
	.dwpsn	file "../Source/tasks.c",line 1510,column 6,is_stmt,isa 1
;----------------------------------------------------------------------
; 1510 | if( pxTCB->uxPriority >= pxCurrentTCB->uxPriority )                    
;----------------------------------------------------------------------
        LDR       A1, $C$CON19          ; [DPU_V7M3_PIPE] |1510| 
        LDR       A2, [SP, #8]          ; [DPU_V7M3_PIPE] |1510| 
        LDR       A1, [A1, #0]          ; [DPU_V7M3_PIPE] |1510| 
        LDR       A2, [A2, #44]         ; [DPU_V7M3_PIPE] |1510| 
        LDR       A1, [A1, #44]         ; [DPU_V7M3_PIPE] |1510| 
        CMP       A1, A2                ; [DPU_V7M3_PIPE] |1510| 
        BHI       ||$C$L53||            ; [DPU_V7M3_PIPE] |1510| 
        ; BRANCHCC OCCURS {||$C$L53||}   ; [] |1510| 
;* --------------------------------------------------------------------------*
	.dwpsn	file "../Source/tasks.c",line 1512,column 7,is_stmt,isa 1
;----------------------------------------------------------------------
; 1512 | xYieldRequired = pdTRUE;                                               
;----------------------------------------------------------------------
        MOVS      A1, #1                ; [DPU_V7M3_PIPE] |1512| 
        STR       A1, [SP, #4]          ; [DPU_V7M3_PIPE] |1512| 
	.dwpsn	file "../Source/tasks.c",line 1513,column 6,is_stmt,isa 1
;----------------------------------------------------------------------
; 1514 | else                                                                   
; 1516 |         mtCOVERAGE_TEST_MARKER();                                      
;----------------------------------------------------------------------
;* --------------------------------------------------------------------------*
||$C$L53||:    
	.dwpsn	file "../Source/tasks.c",line 1519,column 6,is_stmt,isa 1
;----------------------------------------------------------------------
; 1519 | ( void ) uxListRemove(  &( pxTCB->xGenericListItem ) );                
;----------------------------------------------------------------------
        LDR       A1, [SP, #8]          ; [DPU_V7M3_PIPE] |1519| 
        ADDS      A1, A1, #4            ; [DPU_V7M3_PIPE] |1519| 
$C$DW$178	.dwtag  DW_TAG_TI_branch
	.dwattr $C$DW$178, DW_AT_low_pc(0x00)
	.dwattr $C$DW$178, DW_AT_name("uxListRemove")
	.dwattr $C$DW$178, DW_AT_TI_call

        BL        uxListRemove          ; [DPU_V7M3_PIPE] |1519| 
        ; CALL OCCURS {uxListRemove }    ; [] |1519| 
	.dwpsn	file "../Source/tasks.c",line 1520,column 6,is_stmt,isa 1
;----------------------------------------------------------------------
; 1520 | prvAddTaskToReadyList( pxTCB );                                        
;----------------------------------------------------------------------
        LDR       A1, [SP, #8]          ; [DPU_V7M3_PIPE] |1520| 
        LDR       A3, $C$CON13          ; [DPU_V7M3_PIPE] |1520| 
        LDR       V1, [A1, #44]         ; [DPU_V7M3_PIPE] |1520| 
        LDR       A2, [SP, #8]          ; [DPU_V7M3_PIPE] |1520| 
        LDR       A4, [A3, #0]          ; [DPU_V7M3_PIPE] |1520| 
        MOVS      A1, #1                ; [DPU_V7M3_PIPE] |1520| 
        LSLS      A1, A1, V1            ; [DPU_V7M3_PIPE] |1520| 
        ORRS      A1, A1, A4            ; [DPU_V7M3_PIPE] |1520| 
        STR       A1, [A3, #0]          ; [DPU_V7M3_PIPE] |1520| 
        LDR       A4, $C$CON12          ; [DPU_V7M3_PIPE] |1520| 
        LDR       A3, [A2, #44]         ; [DPU_V7M3_PIPE] |1520| 
        LDR       A2, [SP, #8]          ; [DPU_V7M3_PIPE] |1520| 
        LSLS      A1, A3, #2            ; [DPU_V7M3_PIPE] |1520| 
        ADD       A1, A1, A3, LSL #4    ; [DPU_V7M3_PIPE] |1520| 
        ADDS      A2, A2, #4            ; [DPU_V7M3_PIPE] |1520| 
        ADDS      A1, A1, A4            ; [DPU_V7M3_PIPE] |1520| 
$C$DW$179	.dwtag  DW_TAG_TI_branch
	.dwattr $C$DW$179, DW_AT_low_pc(0x00)
	.dwattr $C$DW$179, DW_AT_name("vListInsertEnd")
	.dwattr $C$DW$179, DW_AT_TI_call

        BL        vListInsertEnd        ; [DPU_V7M3_PIPE] |1520| 
        ; CALL OCCURS {vListInsertEnd }  ; [] |1520| 
	.dwpsn	file "../Source/tasks.c",line 1521,column 5,is_stmt,isa 1
;----------------------------------------------------------------------
; 1522 | else                                                                   
;----------------------------------------------------------------------
        B         ||$C$L55||            ; [DPU_V7M3_PIPE] |1521| 
        ; BRANCH OCCURS {||$C$L55||}     ; [] |1521| 
;* --------------------------------------------------------------------------*
||$C$L54||:    
	.dwpsn	file "../Source/tasks.c",line 1527,column 6,is_stmt,isa 1
;----------------------------------------------------------------------
; 1527 | vListInsertEnd( &( xPendingReadyList ), &( pxTCB->xEventListItem ) );  
;----------------------------------------------------------------------
        LDR       A2, [SP, #8]          ; [DPU_V7M3_PIPE] |1527| 
        LDR       A1, $C$CON18          ; [DPU_V7M3_PIPE] |1527| 
        ADDS      A2, A2, #24           ; [DPU_V7M3_PIPE] |1527| 
$C$DW$180	.dwtag  DW_TAG_TI_branch
	.dwattr $C$DW$180, DW_AT_low_pc(0x00)
	.dwattr $C$DW$180, DW_AT_name("vListInsertEnd")
	.dwattr $C$DW$180, DW_AT_TI_call

        BL        vListInsertEnd        ; [DPU_V7M3_PIPE] |1527| 
        ; CALL OCCURS {vListInsertEnd }  ; [] |1527| 
	.dwpsn	file "../Source/tasks.c",line 1529,column 4,is_stmt,isa 1
;----------------------------------------------------------------------
; 1530 | else                                                                   
; 1532 |         mtCOVERAGE_TEST_MARKER();                                      
;----------------------------------------------------------------------
;* --------------------------------------------------------------------------*
||$C$L55||:    
	.dwpsn	file "../Source/tasks.c",line 1535,column 3,is_stmt,isa 1
;----------------------------------------------------------------------
; 1535 | portCLEAR_INTERRUPT_MASK_FROM_ISR( uxSavedInterruptStatus );           
;----------------------------------------------------------------------
        LDR       A1, [SP, #12]         ; [DPU_V7M3_PIPE] |1535| 
        MSR       BASEPRI, A1           ; [DPU_V7M3_PIPE] |1535| 
	.dwpsn	file "../Source/tasks.c",line 1537,column 3,is_stmt,isa 1
;----------------------------------------------------------------------
; 1537 | return xYieldRequired;                                                 
;----------------------------------------------------------------------
        LDR       A1, [SP, #4]          ; [DPU_V7M3_PIPE] |1537| 
	.dwpsn	file "../Source/tasks.c",line 1538,column 2,is_stmt,isa 1
        STR       A1, [SP, #0]          ; [DPU_V7M3_PIPE] 
$C$DW$181	.dwtag  DW_TAG_TI_branch
	.dwattr $C$DW$181, DW_AT_low_pc(0x00)
	.dwattr $C$DW$181, DW_AT_TI_return

        POP       {A1, A2, A3, A4, V1, PC} ; [DPU_V7M3_PIPE] 
	.dwcfi	cfa_offset, 0
	.dwcfi	restore_reg, 4
	.dwcfi	restore_reg, 3
	.dwcfi	restore_reg, 2
	.dwcfi	restore_reg, 1
	.dwcfi	restore_reg, 0
        ; BRANCH OCCURS                  ; [] 
	.dwattr $C$DW$171, DW_AT_TI_end_file("../Source/tasks.c")
	.dwattr $C$DW$171, DW_AT_TI_end_line(0x602)
	.dwattr $C$DW$171, DW_AT_TI_end_column(0x02)
	.dwendentry
	.dwendtag $C$DW$171

;******************************************************************************
;* CONSTANT TABLE                                                             *
;******************************************************************************
	.sect	".text"
	.align	4
||$C$CON12||:	.bits	pxReadyTasksLists,32
	.sect	".text"
	.clink
	.thumbfunc vTaskStartScheduler
	.thumb
	.global	vTaskStartScheduler

$C$DW$182	.dwtag  DW_TAG_subprogram
	.dwattr $C$DW$182, DW_AT_name("vTaskStartScheduler")
	.dwattr $C$DW$182, DW_AT_low_pc(vTaskStartScheduler)
	.dwattr $C$DW$182, DW_AT_high_pc(0x00)
	.dwattr $C$DW$182, DW_AT_TI_symbol_name("vTaskStartScheduler")
	.dwattr $C$DW$182, DW_AT_external
	.dwattr $C$DW$182, DW_AT_TI_begin_file("../Source/tasks.c")
	.dwattr $C$DW$182, DW_AT_TI_begin_line(0x607)
	.dwattr $C$DW$182, DW_AT_TI_begin_column(0x06)
	.dwattr $C$DW$182, DW_AT_decl_file("../Source/tasks.c")
	.dwattr $C$DW$182, DW_AT_decl_line(0x607)
	.dwattr $C$DW$182, DW_AT_decl_column(0x06)
	.dwattr $C$DW$182, DW_AT_TI_max_frame_size(0x18)
	.dwpsn	file "../Source/tasks.c",line 1544,column 1,is_stmt,address vTaskStartScheduler,isa 1

	.dwfde $C$DW$CIE, vTaskStartScheduler
;----------------------------------------------------------------------
; 1543 | void vTaskStartScheduler( void )                                       
; 1545 | BaseType_t xReturn;                                                    
; 1548 | #if ( INCLUDE_xTaskGetIdleTaskHandle == 1 )                            
; 1552 |         xReturn = xTaskCreate( prvIdleTask, "IDLE", tskIDLE_STACK_SIZE,
;     |  ( void * ) NULL, ( tskIDLE_PRIORITY | portPRIVILEGE_BIT ), &xIdleTaskH
;     | andle ); /*lint !e961 MISRA exception, justified as it is not a redunda
;     | nt explicit cast to all supported compilers. */                        
; 1554 | #else                                                                  
;----------------------------------------------------------------------

;*****************************************************************************
;* FUNCTION NAME: vTaskStartScheduler                                        *
;*                                                                           *
;*   Regs Modified     : A1,A2,A3,A4,V9,SP,LR,SR,D0,D0_hi,D1,D1_hi,D2,D2_hi, *
;*                           D3,D3_hi,D4,D4_hi,D5,D5_hi,D6,D6_hi,D7,D7_hi,   *
;*                           FPEXC,FPSCR                                     *
;*   Regs Used         : A1,A2,A3,A4,V9,SP,LR,SR,D0,D0_hi,D1,D1_hi,D2,D2_hi, *
;*                           D3,D3_hi,D4,D4_hi,D5,D5_hi,D6,D6_hi,D7,D7_hi,   *
;*                           FPEXC,FPSCR                                     *
;*   Local Frame Size  : 16 Args + 4 Auto + 4 Save = 24 byte                 *
;*****************************************************************************
vTaskStartScheduler:
;* --------------------------------------------------------------------------*
	.dwcfi	cfa_offset, 0
        PUSH      {LR}                  ; [DPU_V7M3_PIPE] 
	.dwcfi	cfa_offset, 4
	.dwcfi	save_reg_to_mem, 14, -4
        SUB       SP, SP, #20           ; [DPU_V7M3_PIPE] 
	.dwcfi	cfa_offset, 24
$C$DW$183	.dwtag  DW_TAG_variable
	.dwattr $C$DW$183, DW_AT_name("xReturn")
	.dwattr $C$DW$183, DW_AT_TI_symbol_name("xReturn")
	.dwattr $C$DW$183, DW_AT_type(*$C$DW$T$71)
	.dwattr $C$DW$183, DW_AT_location[DW_OP_breg13 16]

	.dwpsn	file "../Source/tasks.c",line 1557,column 3,is_stmt,isa 1
;----------------------------------------------------------------------
; 1557 | xReturn = xTaskCreate( prvIdleTask, "IDLE", tskIDLE_STACK_SIZE, ( void
;     | * ) NULL, ( tskIDLE_PRIORITY | portPRIVILEGE_BIT ), NULL );  /*lint !e9
;     | 61 MISRA exception, justified as it is not a redundant explicit cast to
;     |  all supported compilers. */                                           
; 1559 | #endif /* INCLUDE_xTaskGetIdleTaskHandle */                            
; 1561 | #if ( configUSE_TIMERS == 1 )                                          
;----------------------------------------------------------------------
        MOVS      A1, #0                ; [DPU_V7M3_PIPE] |1557| 
        STR       A1, [SP, #0]          ; [DPU_V7M3_PIPE] |1557| 
        MOVS      A1, #0                ; [DPU_V7M3_PIPE] |1557| 
        STR       A1, [SP, #4]          ; [DPU_V7M3_PIPE] |1557| 
        MOVS      A1, #0                ; [DPU_V7M3_PIPE] |1557| 
        STR       A1, [SP, #8]          ; [DPU_V7M3_PIPE] |1557| 
        MOVS      A1, #0                ; [DPU_V7M3_PIPE] |1557| 
        STR       A1, [SP, #12]         ; [DPU_V7M3_PIPE] |1557| 
        LDR       A1, $C$CON21          ; [DPU_V7M3_PIPE] |1557| 
        ADR       A2, $C$SL1            ; [DPU_V7M3_PIPE] |1557| 
        MOVS      A3, #200              ; [DPU_V7M3_PIPE] |1557| 
        MOVS      A4, #0                ; [DPU_V7M3_PIPE] |1557| 
$C$DW$184	.dwtag  DW_TAG_TI_branch
	.dwattr $C$DW$184, DW_AT_low_pc(0x00)
	.dwattr $C$DW$184, DW_AT_name("xTaskGenericCreate")
	.dwattr $C$DW$184, DW_AT_TI_call

        BL        xTaskGenericCreate    ; [DPU_V7M3_PIPE] |1557| 
        ; CALL OCCURS {xTaskGenericCreate }  ; [] |1557| 
        STR       A1, [SP, #16]         ; [DPU_V7M3_PIPE] |1557| 
	.dwpsn	file "../Source/tasks.c",line 1563,column 3,is_stmt,isa 1
;----------------------------------------------------------------------
; 1563 | if( xReturn == pdPASS )                                                
;----------------------------------------------------------------------
        LDR       A1, [SP, #16]         ; [DPU_V7M3_PIPE] |1563| 
        CMP       A1, #1                ; [DPU_V7M3_PIPE] |1563| 
        BNE       ||$C$L56||            ; [DPU_V7M3_PIPE] |1563| 
        ; BRANCHCC OCCURS {||$C$L56||}   ; [] |1563| 
;* --------------------------------------------------------------------------*
	.dwpsn	file "../Source/tasks.c",line 1565,column 4,is_stmt,isa 1
;----------------------------------------------------------------------
; 1565 | xReturn = xTimerCreateTimerTask();                                     
;----------------------------------------------------------------------
$C$DW$185	.dwtag  DW_TAG_TI_branch
	.dwattr $C$DW$185, DW_AT_low_pc(0x00)
	.dwattr $C$DW$185, DW_AT_name("xTimerCreateTimerTask")
	.dwattr $C$DW$185, DW_AT_TI_call

        BL        xTimerCreateTimerTask ; [DPU_V7M3_PIPE] |1565| 
        ; CALL OCCURS {xTimerCreateTimerTask }  ; [] |1565| 
        STR       A1, [SP, #16]         ; [DPU_V7M3_PIPE] |1565| 
	.dwpsn	file "../Source/tasks.c",line 1566,column 3,is_stmt,isa 1
;----------------------------------------------------------------------
; 1567 | else                                                                   
; 1569 |         mtCOVERAGE_TEST_MARKER();                                      
; 1572 | #endif /* configUSE_TIMERS */                                          
;----------------------------------------------------------------------
;* --------------------------------------------------------------------------*
||$C$L56||:    
	.dwpsn	file "../Source/tasks.c",line 1574,column 2,is_stmt,isa 1
;----------------------------------------------------------------------
; 1574 | if( xReturn == pdPASS )                                                
;----------------------------------------------------------------------
        LDR       A1, [SP, #16]         ; [DPU_V7M3_PIPE] |1574| 
        CMP       A1, #1                ; [DPU_V7M3_PIPE] |1574| 
        BNE       ||$C$L57||            ; [DPU_V7M3_PIPE] |1574| 
        ; BRANCHCC OCCURS {||$C$L57||}   ; [] |1574| 
;* --------------------------------------------------------------------------*
	.dwpsn	file "../Source/tasks.c",line 1581,column 3,is_stmt,isa 1
;----------------------------------------------------------------------
; 1581 | portDISABLE_INTERRUPTS();                                              
; 1583 | #if ( configUSE_NEWLIB_REENTRANT == 1 )                                
; 1587 |         _impure_ptr = &( pxCurrentTCB->xNewLib_reent );                
; 1589 | #endif /* configUSE_NEWLIB_REENTRANT */                                
;----------------------------------------------------------------------
        MOVS      A1, #160              ; [DPU_V7M3_PIPE] |1581| 
        MSR       BASEPRI, A1           ; [DPU_V7M3_PIPE] |1581| 
	dsb
	isb
	.dwpsn	file "../Source/tasks.c",line 1591,column 3,is_stmt,isa 1
;----------------------------------------------------------------------
; 1591 | xNextTaskUnblockTime = portMAX_DELAY;                                  
;----------------------------------------------------------------------
        LDR       A2, $C$CON22          ; [DPU_V7M3_PIPE] |1591| 
        MOV       A1, #-1               ; [DPU_V7M3_PIPE] |1591| 
        STR       A1, [A2, #0]          ; [DPU_V7M3_PIPE] |1591| 
	.dwpsn	file "../Source/tasks.c",line 1592,column 3,is_stmt,isa 1
;----------------------------------------------------------------------
; 1592 | xSchedulerRunning = pdTRUE;                                            
;----------------------------------------------------------------------
        LDR       A2, $C$CON15          ; [DPU_V7M3_PIPE] |1592| 
        MOVS      A1, #1                ; [DPU_V7M3_PIPE] |1592| 
        STR       A1, [A2, #0]          ; [DPU_V7M3_PIPE] |1592| 
	.dwpsn	file "../Source/tasks.c",line 1593,column 3,is_stmt,isa 1
;----------------------------------------------------------------------
; 1593 | xTickCount = ( TickType_t ) 0U;                                        
; 1598 | portCONFIGURE_TIMER_FOR_RUN_TIME_STATS();                              
;----------------------------------------------------------------------
        LDR       A2, $C$CON23          ; [DPU_V7M3_PIPE] |1593| 
        MOVS      A1, #0                ; [DPU_V7M3_PIPE] |1593| 
        STR       A1, [A2, #0]          ; [DPU_V7M3_PIPE] |1593| 
	.dwpsn	file "../Source/tasks.c",line 1602,column 3,is_stmt,isa 1
;----------------------------------------------------------------------
; 1602 | if( xPortStartScheduler() != pdFALSE )                                 
;----------------------------------------------------------------------
$C$DW$186	.dwtag  DW_TAG_TI_branch
	.dwattr $C$DW$186, DW_AT_low_pc(0x00)
	.dwattr $C$DW$186, DW_AT_name("xPortStartScheduler")
	.dwattr $C$DW$186, DW_AT_TI_call

        BL        xPortStartScheduler   ; [DPU_V7M3_PIPE] |1602| 
        ; CALL OCCURS {xPortStartScheduler }  ; [] |1602| 
        CBNZ      A1, ||$C$L57||        ; [] 
        ; BRANCHCC OCCURS {||$C$L57||}   ; [] |1602| 
;* --------------------------------------------------------------------------*
	.dwpsn	file "../Source/tasks.c",line 1606,column 3,is_stmt,isa 1
;----------------------------------------------------------------------
; 1607 | else                                                                   
;----------------------------------------------------------------------
	.dwpsn	file "../Source/tasks.c",line 1611,column 2,is_stmt,isa 1
;----------------------------------------------------------------------
; 1612 | else                                                                   
; 1617 |         configASSERT( xReturn );                                       
;----------------------------------------------------------------------
        B         ||$C$L57||            ; [DPU_V7M3_PIPE] |1611| 
        ; BRANCH OCCURS {||$C$L57||}     ; [] |1611| 
;* --------------------------------------------------------------------------*
;* --------------------------------------------------------------------------*
||$C$L57||:    
        ADD       SP, SP, #20           ; [DPU_V7M3_PIPE] 
	.dwcfi	cfa_offset, 4
$C$DW$187	.dwtag  DW_TAG_TI_branch
	.dwattr $C$DW$187, DW_AT_low_pc(0x00)
	.dwattr $C$DW$187, DW_AT_TI_return

        POP       {PC}                  ; [DPU_V7M3_PIPE] 
	.dwcfi	cfa_offset, 0
        ; BRANCH OCCURS                  ; [] 
	.dwattr $C$DW$182, DW_AT_TI_end_file("../Source/tasks.c")
	.dwattr $C$DW$182, DW_AT_TI_end_line(0x653)
	.dwattr $C$DW$182, DW_AT_TI_end_column(0x01)
	.dwendentry
	.dwendtag $C$DW$182

;******************************************************************************
;* CONSTANT TABLE                                                             *
;******************************************************************************
	.sect	".text"
	.align	4
||$C$CON13||:	.bits	uxTopReadyPriority,32
	.sect	".text"
	.clink
	.thumbfunc vTaskEndScheduler
	.thumb
	.global	vTaskEndScheduler

$C$DW$188	.dwtag  DW_TAG_subprogram
	.dwattr $C$DW$188, DW_AT_name("vTaskEndScheduler")
	.dwattr $C$DW$188, DW_AT_low_pc(vTaskEndScheduler)
	.dwattr $C$DW$188, DW_AT_high_pc(0x00)
	.dwattr $C$DW$188, DW_AT_TI_symbol_name("vTaskEndScheduler")
	.dwattr $C$DW$188, DW_AT_external
	.dwattr $C$DW$188, DW_AT_TI_begin_file("../Source/tasks.c")
	.dwattr $C$DW$188, DW_AT_TI_begin_line(0x656)
	.dwattr $C$DW$188, DW_AT_TI_begin_column(0x06)
	.dwattr $C$DW$188, DW_AT_decl_file("../Source/tasks.c")
	.dwattr $C$DW$188, DW_AT_decl_line(0x656)
	.dwattr $C$DW$188, DW_AT_decl_column(0x06)
	.dwattr $C$DW$188, DW_AT_TI_max_frame_size(0x08)
	.dwpsn	file "../Source/tasks.c",line 1623,column 1,is_stmt,address vTaskEndScheduler,isa 1

	.dwfde $C$DW$CIE, vTaskEndScheduler
;----------------------------------------------------------------------
; 1622 | void vTaskEndScheduler( void )                                         
;----------------------------------------------------------------------

;*****************************************************************************
;* FUNCTION NAME: vTaskEndScheduler                                          *
;*                                                                           *
;*   Regs Modified     : A1,A2,A3,A4,V9,SP,LR,SR,D0,D0_hi,D1,D1_hi,D2,D2_hi, *
;*                           D3,D3_hi,D4,D4_hi,D5,D5_hi,D6,D6_hi,D7,D7_hi,   *
;*                           FPEXC,FPSCR                                     *
;*   Regs Used         : A1,A2,A3,A4,V9,SP,LR,SR,D0,D0_hi,D1,D1_hi,D2,D2_hi, *
;*                           D3,D3_hi,D4,D4_hi,D5,D5_hi,D6,D6_hi,D7,D7_hi,   *
;*                           FPEXC,FPSCR                                     *
;*   Local Frame Size  : 0 Args + 0 Auto + 4 Save = 4 byte                   *
;*****************************************************************************
vTaskEndScheduler:
;* --------------------------------------------------------------------------*
	.dwcfi	cfa_offset, 0
        PUSH      {A4, LR}              ; [DPU_V7M3_PIPE] 
	.dwcfi	cfa_offset, 8
	.dwcfi	save_reg_to_mem, 14, -4
	.dwcfi	save_reg_to_mem, 3, -8
	.dwpsn	file "../Source/tasks.c",line 1627,column 2,is_stmt,isa 1
;----------------------------------------------------------------------
; 1627 | portDISABLE_INTERRUPTS();                                              
;----------------------------------------------------------------------
        MOVS      A1, #160              ; [DPU_V7M3_PIPE] |1627| 
        MSR       BASEPRI, A1           ; [DPU_V7M3_PIPE] |1627| 
	dsb
	isb
	.dwpsn	file "../Source/tasks.c",line 1628,column 2,is_stmt,isa 1
;----------------------------------------------------------------------
; 1628 | xSchedulerRunning = pdFALSE;                                           
;----------------------------------------------------------------------
        LDR       A2, $C$CON15          ; [DPU_V7M3_PIPE] |1628| 
        MOVS      A1, #0                ; [DPU_V7M3_PIPE] |1628| 
        STR       A1, [A2, #0]          ; [DPU_V7M3_PIPE] |1628| 
	.dwpsn	file "../Source/tasks.c",line 1629,column 2,is_stmt,isa 1
;----------------------------------------------------------------------
; 1629 | vPortEndScheduler();                                                   
;----------------------------------------------------------------------
$C$DW$189	.dwtag  DW_TAG_TI_branch
	.dwattr $C$DW$189, DW_AT_low_pc(0x00)
	.dwattr $C$DW$189, DW_AT_name("vPortEndScheduler")
	.dwattr $C$DW$189, DW_AT_TI_call

        BL        vPortEndScheduler     ; [DPU_V7M3_PIPE] |1629| 
        ; CALL OCCURS {vPortEndScheduler }  ; [] |1629| 
	.dwpsn	file "../Source/tasks.c",line 1630,column 1,is_stmt,isa 1
$C$DW$190	.dwtag  DW_TAG_TI_branch
	.dwattr $C$DW$190, DW_AT_low_pc(0x00)
	.dwattr $C$DW$190, DW_AT_TI_return

        POP       {A4, PC}              ; [DPU_V7M3_PIPE] 
	.dwcfi	cfa_offset, 0
	.dwcfi	restore_reg, 3
        ; BRANCH OCCURS                  ; [] 
	.dwattr $C$DW$188, DW_AT_TI_end_file("../Source/tasks.c")
	.dwattr $C$DW$188, DW_AT_TI_end_line(0x65e)
	.dwattr $C$DW$188, DW_AT_TI_end_column(0x01)
	.dwendentry
	.dwendtag $C$DW$188

	.sect	".text"
	.clink
	.thumbfunc vTaskSuspendAll
	.thumb
	.global	vTaskSuspendAll

$C$DW$191	.dwtag  DW_TAG_subprogram
	.dwattr $C$DW$191, DW_AT_name("vTaskSuspendAll")
	.dwattr $C$DW$191, DW_AT_low_pc(vTaskSuspendAll)
	.dwattr $C$DW$191, DW_AT_high_pc(0x00)
	.dwattr $C$DW$191, DW_AT_TI_symbol_name("vTaskSuspendAll")
	.dwattr $C$DW$191, DW_AT_external
	.dwattr $C$DW$191, DW_AT_TI_begin_file("../Source/tasks.c")
	.dwattr $C$DW$191, DW_AT_TI_begin_line(0x661)
	.dwattr $C$DW$191, DW_AT_TI_begin_column(0x06)
	.dwattr $C$DW$191, DW_AT_decl_file("../Source/tasks.c")
	.dwattr $C$DW$191, DW_AT_decl_line(0x661)
	.dwattr $C$DW$191, DW_AT_decl_column(0x06)
	.dwattr $C$DW$191, DW_AT_TI_max_frame_size(0x00)
	.dwpsn	file "../Source/tasks.c",line 1634,column 1,is_stmt,address vTaskSuspendAll,isa 1

	.dwfde $C$DW$CIE, vTaskSuspendAll
;----------------------------------------------------------------------
; 1633 | void vTaskSuspendAll( void )                                           
;----------------------------------------------------------------------

;*****************************************************************************
;* FUNCTION NAME: vTaskSuspendAll                                            *
;*                                                                           *
;*   Regs Modified     : A1,A2,SR                                            *
;*   Regs Used         : A1,A2,LR,SR                                         *
;*   Local Frame Size  : 0 Args + 0 Auto + 0 Save = 0 byte                   *
;*****************************************************************************
vTaskSuspendAll:
;* --------------------------------------------------------------------------*
	.dwcfi	cfa_offset, 0
	.dwpsn	file "../Source/tasks.c",line 1639,column 2,is_stmt,isa 1
;----------------------------------------------------------------------
; 1639 | ++uxSchedulerSuspended;                                                
;----------------------------------------------------------------------
        LDR       A2, $C$CON20          ; [DPU_V7M3_PIPE] |1639| 
        LDR       A1, [A2, #0]          ; [DPU_V7M3_PIPE] |1639| 
        ADDS      A1, A1, #1            ; [DPU_V7M3_PIPE] |1639| 
        STR       A1, [A2, #0]          ; [DPU_V7M3_PIPE] |1639| 
	.dwpsn	file "../Source/tasks.c",line 1640,column 1,is_stmt,isa 1
$C$DW$192	.dwtag  DW_TAG_TI_branch
	.dwattr $C$DW$192, DW_AT_low_pc(0x00)
	.dwattr $C$DW$192, DW_AT_TI_return

        BX        LR                    ; [DPU_V7M3_PIPE] 
        ; BRANCH OCCURS                  ; [] 
	.dwattr $C$DW$191, DW_AT_TI_end_file("../Source/tasks.c")
	.dwattr $C$DW$191, DW_AT_TI_end_line(0x668)
	.dwattr $C$DW$191, DW_AT_TI_end_column(0x01)
	.dwendentry
	.dwendtag $C$DW$191

;******************************************************************************
;* CONSTANT TABLE                                                             *
;******************************************************************************
	.sect	".text"
	.align	4
||$C$CON14||:	.bits	xSuspendedTaskList,32
	.align	4
||$C$CON15||:	.bits	xSchedulerRunning,32
	.align	4
||$C$CON16||:	.bits	-536810236,32
	.sect	".text"
	.clink
	.thumbfunc xTaskResumeAll
	.thumb
	.global	xTaskResumeAll

$C$DW$193	.dwtag  DW_TAG_subprogram
	.dwattr $C$DW$193, DW_AT_name("xTaskResumeAll")
	.dwattr $C$DW$193, DW_AT_low_pc(xTaskResumeAll)
	.dwattr $C$DW$193, DW_AT_high_pc(0x00)
	.dwattr $C$DW$193, DW_AT_TI_symbol_name("xTaskResumeAll")
	.dwattr $C$DW$193, DW_AT_external
	.dwattr $C$DW$193, DW_AT_type(*$C$DW$T$71)
	.dwattr $C$DW$193, DW_AT_TI_begin_file("../Source/tasks.c")
	.dwattr $C$DW$193, DW_AT_TI_begin_line(0x687)
	.dwattr $C$DW$193, DW_AT_TI_begin_column(0x0c)
	.dwattr $C$DW$193, DW_AT_decl_file("../Source/tasks.c")
	.dwattr $C$DW$193, DW_AT_decl_line(0x687)
	.dwattr $C$DW$193, DW_AT_decl_column(0x0c)
	.dwattr $C$DW$193, DW_AT_TI_max_frame_size(0x10)
	.dwpsn	file "../Source/tasks.c",line 1672,column 1,is_stmt,address xTaskResumeAll,isa 1

	.dwfde $C$DW$CIE, xTaskResumeAll
;----------------------------------------------------------------------
; 1671 | BaseType_t xTaskResumeAll( void )                                      
; 1673 | TCB_t *pxTCB;                                                          
;----------------------------------------------------------------------

;*****************************************************************************
;* FUNCTION NAME: xTaskResumeAll                                             *
;*                                                                           *
;*   Regs Modified     : A1,A2,A3,A4,V1,V9,SP,LR,SR,D0,D0_hi,D1,D1_hi,D2,    *
;*                           D2_hi,D3,D3_hi,D4,D4_hi,D5,D5_hi,D6,D6_hi,D7,   *
;*                           D7_hi,FPEXC,FPSCR                               *
;*   Regs Used         : A1,A2,A3,A4,V1,V9,SP,LR,SR,D0,D0_hi,D1,D1_hi,D2,    *
;*                           D2_hi,D3,D3_hi,D4,D4_hi,D5,D5_hi,D6,D6_hi,D7,   *
;*                           D7_hi,FPEXC,FPSCR                               *
;*   Local Frame Size  : 0 Args + 8 Auto + 8 Save = 16 byte                  *
;*****************************************************************************
xTaskResumeAll:
;* --------------------------------------------------------------------------*
	.dwcfi	cfa_offset, 0
        PUSH      {A3, A4, V1, LR}      ; [DPU_V7M3_PIPE] 
	.dwcfi	cfa_offset, 16
	.dwcfi	save_reg_to_mem, 14, -4
	.dwcfi	save_reg_to_mem, 4, -8
	.dwcfi	save_reg_to_mem, 3, -12
	.dwcfi	save_reg_to_mem, 2, -16
$C$DW$194	.dwtag  DW_TAG_variable
	.dwattr $C$DW$194, DW_AT_name("pxTCB")
	.dwattr $C$DW$194, DW_AT_TI_symbol_name("pxTCB")
	.dwattr $C$DW$194, DW_AT_type(*$C$DW$T$128)
	.dwattr $C$DW$194, DW_AT_location[DW_OP_breg13 0]

$C$DW$195	.dwtag  DW_TAG_variable
	.dwattr $C$DW$195, DW_AT_name("xAlreadyYielded")
	.dwattr $C$DW$195, DW_AT_TI_symbol_name("xAlreadyYielded")
	.dwattr $C$DW$195, DW_AT_type(*$C$DW$T$71)
	.dwattr $C$DW$195, DW_AT_location[DW_OP_breg13 4]

	.dwpsn	file "../Source/tasks.c",line 1674,column 28,is_stmt,isa 1
;----------------------------------------------------------------------
; 1674 | BaseType_t xAlreadyYielded = pdFALSE;                                  
; 1678 | configASSERT( uxSchedulerSuspended );                                  
;----------------------------------------------------------------------
        MOVS      A1, #0                ; [DPU_V7M3_PIPE] |1674| 
        STR       A1, [SP, #4]          ; [DPU_V7M3_PIPE] |1674| 
	.dwpsn	file "../Source/tasks.c",line 1685,column 2,is_stmt,isa 1
;----------------------------------------------------------------------
; 1685 | taskENTER_CRITICAL();                                                  
;----------------------------------------------------------------------
$C$DW$196	.dwtag  DW_TAG_TI_branch
	.dwattr $C$DW$196, DW_AT_low_pc(0x00)
	.dwattr $C$DW$196, DW_AT_name("vPortEnterCritical")
	.dwattr $C$DW$196, DW_AT_TI_call

        BL        vPortEnterCritical    ; [DPU_V7M3_PIPE] |1685| 
        ; CALL OCCURS {vPortEnterCritical }  ; [] |1685| 
	.dwpsn	file "../Source/tasks.c",line 1687,column 3,is_stmt,isa 1
;----------------------------------------------------------------------
; 1687 | --uxSchedulerSuspended;                                                
;----------------------------------------------------------------------
        LDR       A2, $C$CON20          ; [DPU_V7M3_PIPE] |1687| 
        LDR       A1, [A2, #0]          ; [DPU_V7M3_PIPE] |1687| 
        SUBS      A1, A1, #1            ; [DPU_V7M3_PIPE] |1687| 
        STR       A1, [A2, #0]          ; [DPU_V7M3_PIPE] |1687| 
	.dwpsn	file "../Source/tasks.c",line 1689,column 3,is_stmt,isa 1
;----------------------------------------------------------------------
; 1689 | if( uxSchedulerSuspended == ( UBaseType_t ) pdFALSE )                  
;----------------------------------------------------------------------
        LDR       A1, $C$CON20          ; [DPU_V7M3_PIPE] |1689| 
        LDR       A1, [A1, #0]          ; [DPU_V7M3_PIPE] |1689| 
        CMP       A1, #0                ; [DPU_V7M3_PIPE] |1689| 
        BNE       ||$C$L64||            ; [DPU_V7M3_PIPE] |1689| 
        ; BRANCHCC OCCURS {||$C$L64||}   ; [] |1689| 
;* --------------------------------------------------------------------------*
	.dwpsn	file "../Source/tasks.c",line 1691,column 4,is_stmt,isa 1
;----------------------------------------------------------------------
; 1691 | if( uxCurrentNumberOfTasks > ( UBaseType_t ) 0U )                      
;----------------------------------------------------------------------
        LDR       A1, $C$CON17          ; [DPU_V7M3_PIPE] |1691| 
        LDR       A1, [A1, #0]          ; [DPU_V7M3_PIPE] |1691| 
        CMP       A1, #0                ; [DPU_V7M3_PIPE] |1691| 
        BEQ       ||$C$L64||            ; [DPU_V7M3_PIPE] |1691| 
        ; BRANCHCC OCCURS {||$C$L64||}   ; [] |1691| 
;* --------------------------------------------------------------------------*
	.dwpsn	file "../Source/tasks.c",line 1695,column 5,is_stmt,isa 1
;----------------------------------------------------------------------
; 1695 | while( listLIST_IS_EMPTY( &xPendingReadyList ) == pdFALSE )            
;----------------------------------------------------------------------
        B         ||$C$L59||            ; [DPU_V7M3_PIPE] |1695| 
        ; BRANCH OCCURS {||$C$L59||}     ; [] |1695| 
;******************************************************************************
;* CONSTANT TABLE                                                             *
;******************************************************************************
	.sect	".text"
	.align	4
||$C$CON17||:	.bits	uxCurrentNumberOfTasks,32
;* --------------------------------------------------------------------------*
||$C$L58||:    
	.dwpsn	file "../Source/tasks.c",line 1697,column 6,is_stmt,isa 1
;----------------------------------------------------------------------
; 1697 | pxTCB = ( TCB_t * ) listGET_OWNER_OF_HEAD_ENTRY( ( &xPendingReadyList )
;     |  );                                                                    
;----------------------------------------------------------------------
        LDR       A1, $C$CON24          ; [DPU_V7M3_PIPE] |1697| 
        LDR       A1, [A1, #0]          ; [DPU_V7M3_PIPE] |1697| 
        LDR       A1, [A1, #12]         ; [DPU_V7M3_PIPE] |1697| 
        STR       A1, [SP, #0]          ; [DPU_V7M3_PIPE] |1697| 
	.dwpsn	file "../Source/tasks.c",line 1698,column 6,is_stmt,isa 1
;----------------------------------------------------------------------
; 1698 | ( void ) uxListRemove( &( pxTCB->xEventListItem ) );                   
;----------------------------------------------------------------------
        LDR       A1, [SP, #0]          ; [DPU_V7M3_PIPE] |1698| 
        ADDS      A1, A1, #24           ; [DPU_V7M3_PIPE] |1698| 
$C$DW$197	.dwtag  DW_TAG_TI_branch
	.dwattr $C$DW$197, DW_AT_low_pc(0x00)
	.dwattr $C$DW$197, DW_AT_name("uxListRemove")
	.dwattr $C$DW$197, DW_AT_TI_call

        BL        uxListRemove          ; [DPU_V7M3_PIPE] |1698| 
        ; CALL OCCURS {uxListRemove }    ; [] |1698| 
	.dwpsn	file "../Source/tasks.c",line 1699,column 6,is_stmt,isa 1
;----------------------------------------------------------------------
; 1699 | ( void ) uxListRemove( &( pxTCB->xGenericListItem ) );                 
;----------------------------------------------------------------------
        LDR       A1, [SP, #0]          ; [DPU_V7M3_PIPE] |1699| 
        ADDS      A1, A1, #4            ; [DPU_V7M3_PIPE] |1699| 
$C$DW$198	.dwtag  DW_TAG_TI_branch
	.dwattr $C$DW$198, DW_AT_low_pc(0x00)
	.dwattr $C$DW$198, DW_AT_name("uxListRemove")
	.dwattr $C$DW$198, DW_AT_TI_call

        BL        uxListRemove          ; [DPU_V7M3_PIPE] |1699| 
        ; CALL OCCURS {uxListRemove }    ; [] |1699| 
	.dwpsn	file "../Source/tasks.c",line 1700,column 6,is_stmt,isa 1
;----------------------------------------------------------------------
; 1700 | prvAddTaskToReadyList( pxTCB );                                        
;----------------------------------------------------------------------
        LDR       A1, [SP, #0]          ; [DPU_V7M3_PIPE] |1700| 
        LDR       A3, $C$CON27          ; [DPU_V7M3_PIPE] |1700| 
        LDR       V1, [A1, #44]         ; [DPU_V7M3_PIPE] |1700| 
        LDR       A2, [SP, #0]          ; [DPU_V7M3_PIPE] |1700| 
        LDR       A4, [A3, #0]          ; [DPU_V7M3_PIPE] |1700| 
        MOVS      A1, #1                ; [DPU_V7M3_PIPE] |1700| 
        LSLS      A1, A1, V1            ; [DPU_V7M3_PIPE] |1700| 
        ORRS      A1, A1, A4            ; [DPU_V7M3_PIPE] |1700| 
        STR       A1, [A3, #0]          ; [DPU_V7M3_PIPE] |1700| 
        LDR       A4, $C$CON28          ; [DPU_V7M3_PIPE] |1700| 
        LDR       A3, [A2, #44]         ; [DPU_V7M3_PIPE] |1700| 
        LDR       A2, [SP, #0]          ; [DPU_V7M3_PIPE] |1700| 
        LSLS      A1, A3, #2            ; [DPU_V7M3_PIPE] |1700| 
        ADD       A1, A1, A3, LSL #4    ; [DPU_V7M3_PIPE] |1700| 
        ADDS      A2, A2, #4            ; [DPU_V7M3_PIPE] |1700| 
        ADDS      A1, A1, A4            ; [DPU_V7M3_PIPE] |1700| 
$C$DW$199	.dwtag  DW_TAG_TI_branch
	.dwattr $C$DW$199, DW_AT_low_pc(0x00)
	.dwattr $C$DW$199, DW_AT_name("vListInsertEnd")
	.dwattr $C$DW$199, DW_AT_TI_call

        BL        vListInsertEnd        ; [DPU_V7M3_PIPE] |1700| 
        ; CALL OCCURS {vListInsertEnd }  ; [] |1700| 
	.dwpsn	file "../Source/tasks.c",line 1704,column 6,is_stmt,isa 1
;----------------------------------------------------------------------
; 1704 | if( pxTCB->uxPriority >= pxCurrentTCB->uxPriority )                    
;----------------------------------------------------------------------
        LDR       A1, $C$CON19          ; [DPU_V7M3_PIPE] |1704| 
        LDR       A2, [SP, #0]          ; [DPU_V7M3_PIPE] |1704| 
        LDR       A1, [A1, #0]          ; [DPU_V7M3_PIPE] |1704| 
        LDR       A2, [A2, #44]         ; [DPU_V7M3_PIPE] |1704| 
        LDR       A1, [A1, #44]         ; [DPU_V7M3_PIPE] |1704| 
        CMP       A1, A2                ; [DPU_V7M3_PIPE] |1704| 
        BHI       ||$C$L59||            ; [DPU_V7M3_PIPE] |1704| 
        ; BRANCHCC OCCURS {||$C$L59||}   ; [] |1704| 
;* --------------------------------------------------------------------------*
	.dwpsn	file "../Source/tasks.c",line 1706,column 7,is_stmt,isa 1
;----------------------------------------------------------------------
; 1706 | xYieldPending = pdTRUE;                                                
;----------------------------------------------------------------------
        LDR       A2, $C$CON25          ; [DPU_V7M3_PIPE] |1706| 
        MOVS      A1, #1                ; [DPU_V7M3_PIPE] |1706| 
        STR       A1, [A2, #0]          ; [DPU_V7M3_PIPE] |1706| 
	.dwpsn	file "../Source/tasks.c",line 1707,column 6,is_stmt,isa 1
;----------------------------------------------------------------------
; 1708 | else                                                                   
; 1710 |         mtCOVERAGE_TEST_MARKER();                                      
;----------------------------------------------------------------------
;* --------------------------------------------------------------------------*
;*   BEGIN LOOP ||$C$L59||
;* --------------------------------------------------------------------------*
||$C$L59||:    
	.dwpsn	file "../Source/tasks.c",line 1695,column 12,is_stmt,isa 1
        LDR       A1, $C$CON18          ; [DPU_V7M3_PIPE] |1695| 
        LDR       A1, [A1, #0]          ; [DPU_V7M3_PIPE] |1695| 
        MOVS      A2, #0                ; [DPU_V7M3_PIPE] |1695| 
        CBNZ      A1, ||$C$L60||        ; [] 
        ; BRANCHCC OCCURS {||$C$L60||}   ; [] |1695| 
;* --------------------------------------------------------------------------*
        MOVS      A2, #1                ; [DPU_V7M3_PIPE] |1695| 
;* --------------------------------------------------------------------------*
||$C$L60||:    
        CMP       A2, #0                ; [DPU_V7M3_PIPE] |1695| 
        BEQ       ||$C$L58||            ; [DPU_V7M3_PIPE] |1695| 
        ; BRANCHCC OCCURS {||$C$L58||}   ; [] |1695| 
;* --------------------------------------------------------------------------*
	.dwpsn	file "../Source/tasks.c",line 1718,column 5,is_stmt,isa 1
;----------------------------------------------------------------------
; 1718 | if( uxPendedTicks > ( UBaseType_t ) 0U )                               
;----------------------------------------------------------------------
        LDR       A1, $C$CON26          ; [DPU_V7M3_PIPE] |1718| 
        LDR       A1, [A1, #0]          ; [DPU_V7M3_PIPE] |1718| 
        CBZ       A1, ||$C$L63||        ; [] 
        ; BRANCHCC OCCURS {||$C$L63||}   ; [] |1718| 
;* --------------------------------------------------------------------------*
	.dwpsn	file "../Source/tasks.c",line 1720,column 13,is_stmt,isa 1
;----------------------------------------------------------------------
; 1720 | while( uxPendedTicks > ( UBaseType_t ) 0U )                            
;----------------------------------------------------------------------
        LDR       A1, $C$CON26          ; [DPU_V7M3_PIPE] |1720| 
        LDR       A1, [A1, #0]          ; [DPU_V7M3_PIPE] |1720| 
        CBZ       A1, ||$C$L63||        ; [] 
        ; BRANCHCC OCCURS {||$C$L63||}   ; [] |1720| 
;* --------------------------------------------------------------------------*
;*   BEGIN LOOP ||$C$L61||
;*
;*   Loop source line                : 1720
;*   Loop closing brace source line  : 1731
;*   Known Minimum Trip Count        : 1
;*   Known Maximum Trip Count        : 4294967295
;*   Known Max Trip Count Factor     : 1
;* --------------------------------------------------------------------------*
||$C$L61||:    
	.dwpsn	file "../Source/tasks.c",line 1722,column 7,is_stmt,isa 1
;----------------------------------------------------------------------
; 1722 | if( xTaskIncrementTick() != pdFALSE )                                  
;----------------------------------------------------------------------
$C$DW$200	.dwtag  DW_TAG_TI_branch
	.dwattr $C$DW$200, DW_AT_low_pc(0x00)
	.dwattr $C$DW$200, DW_AT_name("xTaskIncrementTick")
	.dwattr $C$DW$200, DW_AT_TI_call

        BL        xTaskIncrementTick    ; [DPU_V7M3_PIPE] |1722| 
        ; CALL OCCURS {xTaskIncrementTick }  ; [] |1722| 
        CBZ       A1, ||$C$L62||        ; [] 
        ; BRANCHCC OCCURS {||$C$L62||}   ; [] |1722| 
;* --------------------------------------------------------------------------*
	.dwpsn	file "../Source/tasks.c",line 1724,column 8,is_stmt,isa 1
;----------------------------------------------------------------------
; 1724 | xYieldPending = pdTRUE;                                                
;----------------------------------------------------------------------
        LDR       A2, $C$CON25          ; [DPU_V7M3_PIPE] |1724| 
        MOVS      A1, #1                ; [DPU_V7M3_PIPE] |1724| 
        STR       A1, [A2, #0]          ; [DPU_V7M3_PIPE] |1724| 
	.dwpsn	file "../Source/tasks.c",line 1725,column 7,is_stmt,isa 1
;----------------------------------------------------------------------
; 1726 | else                                                                   
; 1728 |         mtCOVERAGE_TEST_MARKER();                                      
;----------------------------------------------------------------------
;* --------------------------------------------------------------------------*
||$C$L62||:    
	.dwpsn	file "../Source/tasks.c",line 1730,column 7,is_stmt,isa 1
;----------------------------------------------------------------------
; 1730 | --uxPendedTicks;                                                       
;----------------------------------------------------------------------
        LDR       A2, $C$CON26          ; [DPU_V7M3_PIPE] |1730| 
        LDR       A1, [A2, #0]          ; [DPU_V7M3_PIPE] |1730| 
        SUBS      A1, A1, #1            ; [DPU_V7M3_PIPE] |1730| 
        STR       A1, [A2, #0]          ; [DPU_V7M3_PIPE] |1730| 
	.dwpsn	file "../Source/tasks.c",line 1720,column 13,is_stmt,isa 1
        LDR       A1, $C$CON26          ; [DPU_V7M3_PIPE] |1720| 
        LDR       A1, [A1, #0]          ; [DPU_V7M3_PIPE] |1720| 
        CMP       A1, #0                ; [DPU_V7M3_PIPE] |1720| 
        BNE       ||$C$L61||            ; [DPU_V7M3_PIPE] |1720| 
        ; BRANCHCC OCCURS {||$C$L61||}   ; [] |1720| 
;* --------------------------------------------------------------------------*
	.dwpsn	file "../Source/tasks.c",line 1732,column 5,is_stmt,isa 1
;----------------------------------------------------------------------
; 1733 | else                                                                   
; 1735 |         mtCOVERAGE_TEST_MARKER();                                      
;----------------------------------------------------------------------
;* --------------------------------------------------------------------------*
||$C$L63||:    
	.dwpsn	file "../Source/tasks.c",line 1738,column 5,is_stmt,isa 1
;----------------------------------------------------------------------
; 1738 | if( xYieldPending == pdTRUE )                                          
; 1740 |         #if( configUSE_PREEMPTION != 0 )                               
; 1742 |                 xAlreadyYielded = pdTRUE;                              
; 1744 |         #endif                                                         
; 1745 |         taskYIELD_IF_USING_PREEMPTION();                               
;----------------------------------------------------------------------
        LDR       A1, $C$CON25          ; [DPU_V7M3_PIPE] |1738| 
        LDR       A1, [A1, #0]          ; [DPU_V7M3_PIPE] |1738| 
        CMP       A1, #1                ; [DPU_V7M3_PIPE] |1738| 
        BEQ       ||$C$L64||            ; [DPU_V7M3_PIPE] |1738| 
        ; BRANCHCC OCCURS {||$C$L64||}   ; [] |1738| 
;* --------------------------------------------------------------------------*
	.dwpsn	file "../Source/tasks.c",line 1746,column 5,is_stmt,isa 1
;----------------------------------------------------------------------
; 1747 | else                                                                   
; 1749 |         mtCOVERAGE_TEST_MARKER();                                      
;----------------------------------------------------------------------
	.dwpsn	file "../Source/tasks.c",line 1752,column 3,is_stmt,isa 1
;----------------------------------------------------------------------
; 1753 | else                                                                   
; 1755 |         mtCOVERAGE_TEST_MARKER();                                      
;----------------------------------------------------------------------
;* --------------------------------------------------------------------------*
||$C$L64||:    
	.dwpsn	file "../Source/tasks.c",line 1758,column 2,is_stmt,isa 1
;----------------------------------------------------------------------
; 1758 | taskEXIT_CRITICAL();                                                   
;----------------------------------------------------------------------
$C$DW$201	.dwtag  DW_TAG_TI_branch
	.dwattr $C$DW$201, DW_AT_low_pc(0x00)
	.dwattr $C$DW$201, DW_AT_name("vPortExitCritical")
	.dwattr $C$DW$201, DW_AT_TI_call

        BL        vPortExitCritical     ; [DPU_V7M3_PIPE] |1758| 
        ; CALL OCCURS {vPortExitCritical }  ; [] |1758| 
	.dwpsn	file "../Source/tasks.c",line 1760,column 2,is_stmt,isa 1
;----------------------------------------------------------------------
; 1760 | return xAlreadyYielded;                                                
;----------------------------------------------------------------------
        LDR       A1, [SP, #4]          ; [DPU_V7M3_PIPE] |1760| 
	.dwpsn	file "../Source/tasks.c",line 1761,column 1,is_stmt,isa 1
$C$DW$202	.dwtag  DW_TAG_TI_branch
	.dwattr $C$DW$202, DW_AT_low_pc(0x00)
	.dwattr $C$DW$202, DW_AT_TI_return

        POP       {A3, A4, V1, PC}      ; [DPU_V7M3_PIPE] 
	.dwcfi	cfa_offset, 0
	.dwcfi	restore_reg, 4
	.dwcfi	restore_reg, 3
	.dwcfi	restore_reg, 2
        ; BRANCH OCCURS                  ; [] 
	.dwattr $C$DW$193, DW_AT_TI_end_file("../Source/tasks.c")
	.dwattr $C$DW$193, DW_AT_TI_end_line(0x6e1)
	.dwattr $C$DW$193, DW_AT_TI_end_column(0x01)
	.dwendentry
	.dwendtag $C$DW$193

	.sect	".text"
	.clink
	.thumbfunc xTaskGetTickCount
	.thumb
	.global	xTaskGetTickCount

$C$DW$203	.dwtag  DW_TAG_subprogram
	.dwattr $C$DW$203, DW_AT_name("xTaskGetTickCount")
	.dwattr $C$DW$203, DW_AT_low_pc(xTaskGetTickCount)
	.dwattr $C$DW$203, DW_AT_high_pc(0x00)
	.dwattr $C$DW$203, DW_AT_TI_symbol_name("xTaskGetTickCount")
	.dwattr $C$DW$203, DW_AT_external
	.dwattr $C$DW$203, DW_AT_type(*$C$DW$T$49)
	.dwattr $C$DW$203, DW_AT_TI_begin_file("../Source/tasks.c")
	.dwattr $C$DW$203, DW_AT_TI_begin_line(0x6e4)
	.dwattr $C$DW$203, DW_AT_TI_begin_column(0x0c)
	.dwattr $C$DW$203, DW_AT_decl_file("../Source/tasks.c")
	.dwattr $C$DW$203, DW_AT_decl_line(0x6e4)
	.dwattr $C$DW$203, DW_AT_decl_column(0x0c)
	.dwattr $C$DW$203, DW_AT_TI_max_frame_size(0x08)
	.dwpsn	file "../Source/tasks.c",line 1765,column 1,is_stmt,address xTaskGetTickCount,isa 1

	.dwfde $C$DW$CIE, xTaskGetTickCount
;----------------------------------------------------------------------
; 1764 | TickType_t xTaskGetTickCount( void )                                   
; 1766 | TickType_t xTicks;                                                     
; 1769 | portTICK_TYPE_ENTER_CRITICAL();                                        
;----------------------------------------------------------------------

;*****************************************************************************
;* FUNCTION NAME: xTaskGetTickCount                                          *
;*                                                                           *
;*   Regs Modified     : A1,SP                                               *
;*   Regs Used         : A1,SP,LR                                            *
;*   Local Frame Size  : 0 Args + 4 Auto + 0 Save = 4 byte                   *
;*****************************************************************************
xTaskGetTickCount:
;* --------------------------------------------------------------------------*
	.dwcfi	cfa_offset, 0
        SUB       SP, SP, #8            ; [DPU_V7M3_PIPE] 
	.dwcfi	cfa_offset, 8
$C$DW$204	.dwtag  DW_TAG_variable
	.dwattr $C$DW$204, DW_AT_name("xTicks")
	.dwattr $C$DW$204, DW_AT_TI_symbol_name("xTicks")
	.dwattr $C$DW$204, DW_AT_type(*$C$DW$T$49)
	.dwattr $C$DW$204, DW_AT_location[DW_OP_breg13 0]

	.dwpsn	file "../Source/tasks.c",line 1771,column 3,is_stmt,isa 1
;----------------------------------------------------------------------
; 1771 | xTicks = xTickCount;                                                   
; 1773 | portTICK_TYPE_EXIT_CRITICAL();                                         
;----------------------------------------------------------------------
        LDR       A1, $C$CON23          ; [DPU_V7M3_PIPE] |1771| 
        LDR       A1, [A1, #0]          ; [DPU_V7M3_PIPE] |1771| 
        STR       A1, [SP, #0]          ; [DPU_V7M3_PIPE] |1771| 
	.dwpsn	file "../Source/tasks.c",line 1775,column 2,is_stmt,isa 1
;----------------------------------------------------------------------
; 1775 | return xTicks;                                                         
;----------------------------------------------------------------------
        LDR       A1, [SP, #0]          ; [DPU_V7M3_PIPE] |1775| 
	.dwpsn	file "../Source/tasks.c",line 1776,column 1,is_stmt,isa 1
        ADD       SP, SP, #8            ; [DPU_V7M3_PIPE] 
	.dwcfi	cfa_offset, 0
$C$DW$205	.dwtag  DW_TAG_TI_branch
	.dwattr $C$DW$205, DW_AT_low_pc(0x00)
	.dwattr $C$DW$205, DW_AT_TI_return

        BX        LR                    ; [DPU_V7M3_PIPE] 
        ; BRANCH OCCURS                  ; [] 
	.dwattr $C$DW$203, DW_AT_TI_end_file("../Source/tasks.c")
	.dwattr $C$DW$203, DW_AT_TI_end_line(0x6f0)
	.dwattr $C$DW$203, DW_AT_TI_end_column(0x01)
	.dwendentry
	.dwendtag $C$DW$203

	.sect	".text"
	.clink
	.thumbfunc xTaskGetTickCountFromISR
	.thumb
	.global	xTaskGetTickCountFromISR

$C$DW$206	.dwtag  DW_TAG_subprogram
	.dwattr $C$DW$206, DW_AT_name("xTaskGetTickCountFromISR")
	.dwattr $C$DW$206, DW_AT_low_pc(xTaskGetTickCountFromISR)
	.dwattr $C$DW$206, DW_AT_high_pc(0x00)
	.dwattr $C$DW$206, DW_AT_TI_symbol_name("xTaskGetTickCountFromISR")
	.dwattr $C$DW$206, DW_AT_external
	.dwattr $C$DW$206, DW_AT_type(*$C$DW$T$49)
	.dwattr $C$DW$206, DW_AT_TI_begin_file("../Source/tasks.c")
	.dwattr $C$DW$206, DW_AT_TI_begin_line(0x6f3)
	.dwattr $C$DW$206, DW_AT_TI_begin_column(0x0c)
	.dwattr $C$DW$206, DW_AT_decl_file("../Source/tasks.c")
	.dwattr $C$DW$206, DW_AT_decl_line(0x6f3)
	.dwattr $C$DW$206, DW_AT_decl_column(0x0c)
	.dwattr $C$DW$206, DW_AT_TI_max_frame_size(0x08)
	.dwpsn	file "../Source/tasks.c",line 1780,column 1,is_stmt,address xTaskGetTickCountFromISR,isa 1

	.dwfde $C$DW$CIE, xTaskGetTickCountFromISR
;----------------------------------------------------------------------
; 1779 | TickType_t xTaskGetTickCountFromISR( void )                            
; 1781 | TickType_t xReturn;                                                    
; 1782 | UBaseType_t uxSavedInterruptStatus;                                    
; 1798 | portASSERT_IF_INTERRUPT_PRIORITY_INVALID();                            
;----------------------------------------------------------------------

;*****************************************************************************
