TI ARM Assembler PC v18.1.2 Thu Aug 23 17:26:16 2018

Tools Copyright (c) 1996-2017 Texas Instruments Incorporated
list.asm                                                             PAGE    1

       1                    ;******************************************************************************
       2                    ;* TI ARM C/C++ Codegen                                        PC v18.1.2.LTS *
       3                    ;* Date/Time created: Thu Aug 23 17:26:16 2018                                *
       4                    ;******************************************************************************
       5                            .compiler_opts --abi=eabi --arm_vmrs_si_workaround=off --code_state=16 --diag_wrap=off --embed
       6 00000000                   .thumb
       7                    
       8                    $C$DW$CU        .dwtag  DW_TAG_compile_unit
       9                            .dwattr $C$DW$CU, DW_AT_name("../Source/list.c")
      10                            .dwattr $C$DW$CU, DW_AT_producer("TI TI ARM C/C++ Codegen PC v18.1.2.LTS Copyright (c) 1996-20
      11                            .dwattr $C$DW$CU, DW_AT_TI_version(0x01)
      12                            .dwattr $C$DW$CU, DW_AT_comp_dir("C:\Projects\EECS_388_Test_Workspace\EECS_388_Base_Project_Fa
      13                    ;       C:\TI_CodeComposer\ccsv8\tools\compiler\ti-cgt-arm_18.1.2.LTS\bin\armacpia.exe -@C:\\Users\\gm
      14 00000000                   .sect   ".text"
      15                            .clink
      16                            .thumbfunc vListInitialise
      17 00000000                   .thumb
      18                            .global vListInitialise
      19                    
      20                    $C$DW$1 .dwtag  DW_TAG_subprogram
      21                            .dwattr $C$DW$1, DW_AT_name("vListInitialise")
      22                            .dwattr $C$DW$1, DW_AT_low_pc(vListInitialise)
      23                            .dwattr $C$DW$1, DW_AT_high_pc(0x00)
      24                            .dwattr $C$DW$1, DW_AT_TI_symbol_name("vListInitialise")
      25                            .dwattr $C$DW$1, DW_AT_external
      26                            .dwattr $C$DW$1, DW_AT_TI_begin_file("../Source/list.c")
      27                            .dwattr $C$DW$1, DW_AT_TI_begin_line(0x4f)
      28                            .dwattr $C$DW$1, DW_AT_TI_begin_column(0x06)
      29                            .dwattr $C$DW$1, DW_AT_decl_file("../Source/list.c")
      30                            .dwattr $C$DW$1, DW_AT_decl_line(0x4f)
      31                            .dwattr $C$DW$1, DW_AT_decl_column(0x06)
      32                            .dwattr $C$DW$1, DW_AT_TI_max_frame_size(0x08)
      33                            .dwpsn  file "../Source/list.c",line 80,column 1,is_stmt,address vListInitialise,isa 1
      34                    
      35                            .dwfde $C$DW$CIE, vListInitialise
      36                    $C$DW$2 .dwtag  DW_TAG_formal_parameter
      37                            .dwattr $C$DW$2, DW_AT_name("pxList")
      38                            .dwattr $C$DW$2, DW_AT_TI_symbol_name("pxList")
      39                            .dwattr $C$DW$2, DW_AT_type(*$C$DW$T$49)
      40                            .dwattr $C$DW$2, DW_AT_location[DW_OP_reg0]
      41                    
      42                    ;----------------------------------------------------------------------
      43                    ;  79 | void vListInitialise( List_t * const pxList )                          
      44                    ;----------------------------------------------------------------------
      45                    
      46                    ;*****************************************************************************
      47                    ;* FUNCTION NAME: vListInitialise                                            *
      48                    ;*                                                                           *
      49                    ;*   Regs Modified     : A1,A2,SP,SR                                         *
      50                    ;*   Regs Used         : A1,A2,SP,LR,SR                                      *
      51                    ;*   Local Frame Size  : 0 Args + 4 Auto + 0 Save = 4 byte                   *
      52                    ;*****************************************************************************
      53 00000000           vListInitialise:
      54                    ;* --------------------------------------------------------------------------*
      55                            .dwcfi  cfa_offset, 0
TI ARM Assembler PC v18.1.2 Thu Aug 23 17:26:16 2018

Tools Copyright (c) 1996-2017 Texas Instruments Incorporated
list.asm                                                             PAGE    2

      56 00000000 0D08F1AD          SUB       SP, SP, #8            ; [DPU_V7M3_PIPE]  ; [KEEP 32-BIT INS]
      57                            .dwcfi  cfa_offset, 8
      58                    $C$DW$3 .dwtag  DW_TAG_variable
      59                            .dwattr $C$DW$3, DW_AT_name("pxList")
      60                            .dwattr $C$DW$3, DW_AT_TI_symbol_name("pxList")
      61                            .dwattr $C$DW$3, DW_AT_type(*$C$DW$T$49)
      62                            .dwattr $C$DW$3, DW_AT_location[DW_OP_breg13 0]
      63                    
      64 00000004 9000              STR       A1, [SP, #0]          ; [DPU_V7M3_PIPE] |80|  ; [ORIG 16-BIT INS]
      65                            .dwpsn  file "../Source/list.c",line 84,column 2,is_stmt,isa 1
      66                    ;----------------------------------------------------------------------
      67                    ;  84 | pxList->pxIndex = ( ListItem_t * ) &( pxList->xListEnd );
      68                    ;     |          /*lint !e826 !e740 The mini list structure is used as the list
      69                    ;     |  end to save RAM.  This is checked and valid. */                       
      70                    ;----------------------------------------------------------------------
      71 00000006 9800              LDR       A1, [SP, #0]          ; [DPU_V7M3_PIPE] |84|  ; [ORIG 16-BIT INS]
      72 00000008 9900              LDR       A2, [SP, #0]          ; [DPU_V7M3_PIPE] |84|  ; [ORIG 16-BIT INS]
      73 0000000a 3008              ADDS      A1, A1, #8            ; [DPU_V7M3_PIPE] |84|  ; [ORIG 16-BIT INS]
      74 0000000c 6048              STR       A1, [A2, #4]          ; [DPU_V7M3_PIPE] |84|  ; [ORIG 16-BIT INS]
      75                            .dwpsn  file "../Source/list.c",line 88,column 2,is_stmt,isa 1
      76                    ;----------------------------------------------------------------------
      77                    ;  88 | pxList->xListEnd.xItemValue = portMAX_DELAY;                           
      78                    ;----------------------------------------------------------------------
      79 0000000e 9800              LDR       A1, [SP, #0]          ; [DPU_V7M3_PIPE] |88|  ; [ORIG 16-BIT INS]
      80 00000010 31FFF04F          MOV       A2, #-1               ; [DPU_V7M3_PIPE] |88|  ; [KEEP 32-BIT INS]
      81 00000014 6081              STR       A2, [A1, #8]          ; [DPU_V7M3_PIPE] |88|  ; [ORIG 16-BIT INS]
      82                            .dwpsn  file "../Source/list.c",line 92,column 2,is_stmt,isa 1
      83                    ;----------------------------------------------------------------------
      84                    ;  92 | pxList->xListEnd.pxNext = ( ListItem_t * ) &( pxList->xListEnd );
      85                    ;     |  /*lint !e826 !e740 The mini list structure is used as the list end to 
      86                    ;     | save RAM.  This is checked and valid. */                               
      87                    ;----------------------------------------------------------------------
      88 00000016 9800              LDR       A1, [SP, #0]          ; [DPU_V7M3_PIPE] |92|  ; [ORIG 16-BIT INS]
      89 00000018 9900              LDR       A2, [SP, #0]          ; [DPU_V7M3_PIPE] |92|  ; [ORIG 16-BIT INS]
      90 0000001a 3008              ADDS      A1, A1, #8            ; [DPU_V7M3_PIPE] |92|  ; [ORIG 16-BIT INS]
      91 0000001c 60C8              STR       A1, [A2, #12]         ; [DPU_V7M3_PIPE] |92|  ; [ORIG 16-BIT INS]
      92                            .dwpsn  file "../Source/list.c",line 93,column 2,is_stmt,isa 1
      93                    ;----------------------------------------------------------------------
      94                    ;  93 | pxList->xListEnd.pxPrevious = ( ListItem_t * ) &( pxList->xListEnd );/*
      95                    ;     | lint !e826 !e740 The mini list structure is used as the list end to sav
      96                    ;     | e RAM.  This is checked and valid. */                                  
      97                    ;----------------------------------------------------------------------
      98 0000001e 9800              LDR       A1, [SP, #0]          ; [DPU_V7M3_PIPE] |93|  ; [ORIG 16-BIT INS]
      99 00000020 9900              LDR       A2, [SP, #0]          ; [DPU_V7M3_PIPE] |93|  ; [ORIG 16-BIT INS]
     100 00000022 3008              ADDS      A1, A1, #8            ; [DPU_V7M3_PIPE] |93|  ; [ORIG 16-BIT INS]
     101 00000024 6108              STR       A1, [A2, #16]         ; [DPU_V7M3_PIPE] |93|  ; [ORIG 16-BIT INS]
     102                            .dwpsn  file "../Source/list.c",line 95,column 2,is_stmt,isa 1
     103                    ;----------------------------------------------------------------------
     104                    ;  95 | pxList->uxNumberOfItems = ( UBaseType_t ) 0U;                          
     105                    ;  99 | listSET_LIST_INTEGRITY_CHECK_1_VALUE( pxList );                        
     106                    ; 100 | listSET_LIST_INTEGRITY_CHECK_2_VALUE( pxList );                        
     107                    ;----------------------------------------------------------------------
     108 00000026 9800              LDR       A1, [SP, #0]          ; [DPU_V7M3_PIPE] |95|  ; [ORIG 16-BIT INS]
     109 00000028 2100              MOVS      A2, #0                ; [DPU_V7M3_PIPE] |95|  ; [ORIG 16-BIT INS]
     110 0000002a 6001              STR       A2, [A1, #0]          ; [DPU_V7M3_PIPE] |95|  ; [ORIG 16-BIT INS]
TI ARM Assembler PC v18.1.2 Thu Aug 23 17:26:16 2018

Tools Copyright (c) 1996-2017 Texas Instruments Incorporated
list.asm                                                             PAGE    3

     111                            .dwpsn  file "../Source/list.c",line 101,column 1,is_stmt,isa 1
     112 0000002c B002              ADD       SP, SP, #8            ; [DPU_V7M3_PIPE]  ; [ORIG 16-BIT INS]
     113                            .dwcfi  cfa_offset, 0
     114                    $C$DW$4 .dwtag  DW_TAG_TI_branch
     115                            .dwattr $C$DW$4, DW_AT_low_pc(0x00)
     116                            .dwattr $C$DW$4, DW_AT_TI_return
     117                    
     118 0000002e 4770              BX        LR                    ; [DPU_V7M3_PIPE]  ; [ORIG 16-BIT INS]
     119                            ; BRANCH OCCURS                  ; [] 
     120                            .dwattr $C$DW$1, DW_AT_TI_end_file("../Source/list.c")
     121                            .dwattr $C$DW$1, DW_AT_TI_end_line(0x65)
     122                            .dwattr $C$DW$1, DW_AT_TI_end_column(0x01)
     123                            .dwendentry
     124                            .dwendtag $C$DW$1
     125                    
     126 00000030                   .sect   ".text"
     127                            .clink
     128                            .thumbfunc vListInitialiseItem
     129 00000030                   .thumb
     130                            .global vListInitialiseItem
     131                    
     132                    $C$DW$5 .dwtag  DW_TAG_subprogram
     133                            .dwattr $C$DW$5, DW_AT_name("vListInitialiseItem")
     134                            .dwattr $C$DW$5, DW_AT_low_pc(vListInitialiseItem)
     135                            .dwattr $C$DW$5, DW_AT_high_pc(0x00)
     136                            .dwattr $C$DW$5, DW_AT_TI_symbol_name("vListInitialiseItem")
     137                            .dwattr $C$DW$5, DW_AT_external
     138                            .dwattr $C$DW$5, DW_AT_TI_begin_file("../Source/list.c")
     139                            .dwattr $C$DW$5, DW_AT_TI_begin_line(0x68)
     140                            .dwattr $C$DW$5, DW_AT_TI_begin_column(0x06)
     141                            .dwattr $C$DW$5, DW_AT_decl_file("../Source/list.c")
     142                            .dwattr $C$DW$5, DW_AT_decl_line(0x68)
     143                            .dwattr $C$DW$5, DW_AT_decl_column(0x06)
     144                            .dwattr $C$DW$5, DW_AT_TI_max_frame_size(0x08)
     145                            .dwpsn  file "../Source/list.c",line 105,column 1,is_stmt,address vListInitialiseItem,isa 1
     146                    
     147                            .dwfde $C$DW$CIE, vListInitialiseItem
     148                    $C$DW$6 .dwtag  DW_TAG_formal_parameter
     149                            .dwattr $C$DW$6, DW_AT_name("pxItem")
     150                            .dwattr $C$DW$6, DW_AT_TI_symbol_name("pxItem")
     151                            .dwattr $C$DW$6, DW_AT_type(*$C$DW$T$51)
     152                            .dwattr $C$DW$6, DW_AT_location[DW_OP_reg0]
     153                    
     154                    ;----------------------------------------------------------------------
     155                    ; 104 | void vListInitialiseItem( ListItem_t * const pxItem )                  
     156                    ;----------------------------------------------------------------------
     157                    
     158                    ;*****************************************************************************
     159                    ;* FUNCTION NAME: vListInitialiseItem                                        *
     160                    ;*                                                                           *
     161                    ;*   Regs Modified     : A1,A2,SP,SR                                         *
     162                    ;*   Regs Used         : A1,A2,SP,LR,SR                                      *
     163                    ;*   Local Frame Size  : 0 Args + 4 Auto + 0 Save = 4 byte                   *
     164                    ;*****************************************************************************
     165 00000030           vListInitialiseItem:
TI ARM Assembler PC v18.1.2 Thu Aug 23 17:26:16 2018

Tools Copyright (c) 1996-2017 Texas Instruments Incorporated
list.asm                                                             PAGE    4

     166                    ;* --------------------------------------------------------------------------*
     167                            .dwcfi  cfa_offset, 0
     168 00000030 0D08F1AD          SUB       SP, SP, #8            ; [DPU_V7M3_PIPE]  ; [KEEP 32-BIT INS]
     169                            .dwcfi  cfa_offset, 8
     170                    $C$DW$7 .dwtag  DW_TAG_variable
     171                            .dwattr $C$DW$7, DW_AT_name("pxItem")
     172                            .dwattr $C$DW$7, DW_AT_TI_symbol_name("pxItem")
     173                            .dwattr $C$DW$7, DW_AT_type(*$C$DW$T$51)
     174                            .dwattr $C$DW$7, DW_AT_location[DW_OP_breg13 0]
     175                    
     176 00000034 9000              STR       A1, [SP, #0]          ; [DPU_V7M3_PIPE] |105|  ; [ORIG 16-BIT INS]
     177                            .dwpsn  file "../Source/list.c",line 107,column 2,is_stmt,isa 1
     178                    ;----------------------------------------------------------------------
     179                    ; 107 | pxItem->pvContainer = NULL;                                            
     180                    ; 111 | listSET_FIRST_LIST_ITEM_INTEGRITY_CHECK_VALUE( pxItem );               
     181                    ; 112 | listSET_SECOND_LIST_ITEM_INTEGRITY_CHECK_VALUE( pxItem );              
     182                    ;----------------------------------------------------------------------
     183 00000036 9800              LDR       A1, [SP, #0]          ; [DPU_V7M3_PIPE] |107|  ; [ORIG 16-BIT INS]
     184 00000038 2100              MOVS      A2, #0                ; [DPU_V7M3_PIPE] |107|  ; [ORIG 16-BIT INS]
     185 0000003a 6101              STR       A2, [A1, #16]         ; [DPU_V7M3_PIPE] |107|  ; [ORIG 16-BIT INS]
     186                            .dwpsn  file "../Source/list.c",line 113,column 1,is_stmt,isa 1
     187 0000003c B002              ADD       SP, SP, #8            ; [DPU_V7M3_PIPE]  ; [ORIG 16-BIT INS]
     188                            .dwcfi  cfa_offset, 0
     189                    $C$DW$8 .dwtag  DW_TAG_TI_branch
     190                            .dwattr $C$DW$8, DW_AT_low_pc(0x00)
     191                            .dwattr $C$DW$8, DW_AT_TI_return
     192                    
     193 0000003e 4770              BX        LR                    ; [DPU_V7M3_PIPE]  ; [ORIG 16-BIT INS]
     194                            ; BRANCH OCCURS                  ; [] 
     195                            .dwattr $C$DW$5, DW_AT_TI_end_file("../Source/list.c")
     196                            .dwattr $C$DW$5, DW_AT_TI_end_line(0x71)
     197                            .dwattr $C$DW$5, DW_AT_TI_end_column(0x01)
     198                            .dwendentry
     199                            .dwendtag $C$DW$5
     200                    
     201 00000040                   .sect   ".text"
     202                            .clink
     203                            .thumbfunc vListInsertEnd
     204 00000040                   .thumb
     205                            .global vListInsertEnd
     206                    
     207                    $C$DW$9 .dwtag  DW_TAG_subprogram
     208                            .dwattr $C$DW$9, DW_AT_name("vListInsertEnd")
     209                            .dwattr $C$DW$9, DW_AT_low_pc(vListInsertEnd)
     210                            .dwattr $C$DW$9, DW_AT_high_pc(0x00)
     211                            .dwattr $C$DW$9, DW_AT_TI_symbol_name("vListInsertEnd")
     212                            .dwattr $C$DW$9, DW_AT_external
     213                            .dwattr $C$DW$9, DW_AT_TI_begin_file("../Source/list.c")
     214                            .dwattr $C$DW$9, DW_AT_TI_begin_line(0x74)
     215                            .dwattr $C$DW$9, DW_AT_TI_begin_column(0x06)
     216                            .dwattr $C$DW$9, DW_AT_decl_file("../Source/list.c")
     217                            .dwattr $C$DW$9, DW_AT_decl_line(0x74)
     218                            .dwattr $C$DW$9, DW_AT_decl_column(0x06)
     219                            .dwattr $C$DW$9, DW_AT_TI_max_frame_size(0x10)
     220                            .dwpsn  file "../Source/list.c",line 117,column 1,is_stmt,address vListInsertEnd,isa 1
TI ARM Assembler PC v18.1.2 Thu Aug 23 17:26:16 2018

Tools Copyright (c) 1996-2017 Texas Instruments Incorporated
list.asm                                                             PAGE    5

     221                    
     222                            .dwfde $C$DW$CIE, vListInsertEnd
     223                    $C$DW$10        .dwtag  DW_TAG_formal_parameter
     224                            .dwattr $C$DW$10, DW_AT_name("pxList")
     225                            .dwattr $C$DW$10, DW_AT_TI_symbol_name("pxList")
     226                            .dwattr $C$DW$10, DW_AT_type(*$C$DW$T$49)
     227                            .dwattr $C$DW$10, DW_AT_location[DW_OP_reg0]
     228                    
     229                    $C$DW$11        .dwtag  DW_TAG_formal_parameter
     230                            .dwattr $C$DW$11, DW_AT_name("pxNewListItem")
     231                            .dwattr $C$DW$11, DW_AT_TI_symbol_name("pxNewListItem")
     232                            .dwattr $C$DW$11, DW_AT_type(*$C$DW$T$51)
     233                            .dwattr $C$DW$11, DW_AT_location[DW_OP_reg1]
     234                    
     235                    ;----------------------------------------------------------------------
     236                    ; 116 | void vListInsertEnd( List_t * const pxList, ListItem_t * const pxNewLis
     237                    ;     | tItem )                                                                
     238                    ;----------------------------------------------------------------------
     239                    
     240                    ;*****************************************************************************
     241                    ;* FUNCTION NAME: vListInsertEnd                                             *
     242                    ;*                                                                           *
     243                    ;*   Regs Modified     : A1,A2,SP,SR                                         *
     244                    ;*   Regs Used         : A1,A2,SP,LR,SR                                      *
     245                    ;*   Local Frame Size  : 0 Args + 12 Auto + 0 Save = 12 byte                 *
     246                    ;*****************************************************************************
     247 00000040           vListInsertEnd:
     248                    ;* --------------------------------------------------------------------------*
     249                            .dwcfi  cfa_offset, 0
     250 00000040 0D10F1AD          SUB       SP, SP, #16           ; [DPU_V7M3_PIPE]  ; [KEEP 32-BIT INS]
     251                            .dwcfi  cfa_offset, 16
     252                    $C$DW$12        .dwtag  DW_TAG_variable
     253                            .dwattr $C$DW$12, DW_AT_name("pxList")
     254                            .dwattr $C$DW$12, DW_AT_TI_symbol_name("pxList")
     255                            .dwattr $C$DW$12, DW_AT_type(*$C$DW$T$49)
     256                            .dwattr $C$DW$12, DW_AT_location[DW_OP_breg13 0]
     257                    
     258                    $C$DW$13        .dwtag  DW_TAG_variable
     259                            .dwattr $C$DW$13, DW_AT_name("pxNewListItem")
     260                            .dwattr $C$DW$13, DW_AT_TI_symbol_name("pxNewListItem")
     261                            .dwattr $C$DW$13, DW_AT_type(*$C$DW$T$51)
     262                            .dwattr $C$DW$13, DW_AT_location[DW_OP_breg13 4]
     263                    
     264                    $C$DW$14        .dwtag  DW_TAG_variable
     265                            .dwattr $C$DW$14, DW_AT_name("pxIndex")
     266                            .dwattr $C$DW$14, DW_AT_TI_symbol_name("pxIndex")
     267                            .dwattr $C$DW$14, DW_AT_type(*$C$DW$T$51)
     268                            .dwattr $C$DW$14, DW_AT_location[DW_OP_breg13 8]
     269                    
     270 00000044 9101              STR       A2, [SP, #4]          ; [DPU_V7M3_PIPE] |117|  ; [ORIG 16-BIT INS]
     271 00000046 9000              STR       A1, [SP, #0]          ; [DPU_V7M3_PIPE] |117|  ; [ORIG 16-BIT INS]
     272                            .dwpsn  file "../Source/list.c",line 118,column 28,is_stmt,isa 1
     273                    ;----------------------------------------------------------------------
     274                    ; 118 | ListItem_t * const pxIndex = pxList->pxIndex;                          
     275                    ; 123 | listTEST_LIST_INTEGRITY( pxList );                                     
TI ARM Assembler PC v18.1.2 Thu Aug 23 17:26:16 2018

Tools Copyright (c) 1996-2017 Texas Instruments Incorporated
list.asm                                                             PAGE    6

     276                    ; 124 | listTEST_LIST_ITEM_INTEGRITY( pxNewListItem );                         
     277                    ;----------------------------------------------------------------------
     278 00000048 9800              LDR       A1, [SP, #0]          ; [DPU_V7M3_PIPE] |118|  ; [ORIG 16-BIT INS]
     279 0000004a 6840              LDR       A1, [A1, #4]          ; [DPU_V7M3_PIPE] |118|  ; [ORIG 16-BIT INS]
     280 0000004c 9002              STR       A1, [SP, #8]          ; [DPU_V7M3_PIPE] |118|  ; [ORIG 16-BIT INS]
     281                            .dwpsn  file "../Source/list.c",line 129,column 2,is_stmt,isa 1
     282                    ;----------------------------------------------------------------------
     283                    ; 129 | pxNewListItem->pxNext = pxIndex;                                       
     284                    ;----------------------------------------------------------------------
     285 0000004e 9901              LDR       A2, [SP, #4]          ; [DPU_V7M3_PIPE] |129|  ; [ORIG 16-BIT INS]
     286 00000050 9802              LDR       A1, [SP, #8]          ; [DPU_V7M3_PIPE] |129|  ; [ORIG 16-BIT INS]
     287 00000052 6048              STR       A1, [A2, #4]          ; [DPU_V7M3_PIPE] |129|  ; [ORIG 16-BIT INS]
     288                            .dwpsn  file "../Source/list.c",line 130,column 2,is_stmt,isa 1
     289                    ;----------------------------------------------------------------------
     290                    ; 130 | pxNewListItem->pxPrevious = pxIndex->pxPrevious;                       
     291                    ; 133 | mtCOVERAGE_TEST_DELAY();                                               
     292                    ;----------------------------------------------------------------------
     293 00000054 9802              LDR       A1, [SP, #8]          ; [DPU_V7M3_PIPE] |130|  ; [ORIG 16-BIT INS]
     294 00000056 9901              LDR       A2, [SP, #4]          ; [DPU_V7M3_PIPE] |130|  ; [ORIG 16-BIT INS]
     295 00000058 6880              LDR       A1, [A1, #8]          ; [DPU_V7M3_PIPE] |130|  ; [ORIG 16-BIT INS]
     296 0000005a 6088              STR       A1, [A2, #8]          ; [DPU_V7M3_PIPE] |130|  ; [ORIG 16-BIT INS]
     297                            .dwpsn  file "../Source/list.c",line 135,column 2,is_stmt,isa 1
     298                    ;----------------------------------------------------------------------
     299                    ; 135 | pxIndex->pxPrevious->pxNext = pxNewListItem;                           
     300                    ;----------------------------------------------------------------------
     301 0000005c 9902              LDR       A2, [SP, #8]          ; [DPU_V7M3_PIPE] |135|  ; [ORIG 16-BIT INS]
     302 0000005e 9801              LDR       A1, [SP, #4]          ; [DPU_V7M3_PIPE] |135|  ; [ORIG 16-BIT INS]
     303 00000060 6889              LDR       A2, [A2, #8]          ; [DPU_V7M3_PIPE] |135|  ; [ORIG 16-BIT INS]
     304 00000062 6048              STR       A1, [A2, #4]          ; [DPU_V7M3_PIPE] |135|  ; [ORIG 16-BIT INS]
     305                            .dwpsn  file "../Source/list.c",line 136,column 2,is_stmt,isa 1
     306                    ;----------------------------------------------------------------------
     307                    ; 136 | pxIndex->pxPrevious = pxNewListItem;                                   
     308                    ;----------------------------------------------------------------------
     309 00000064 9801              LDR       A1, [SP, #4]          ; [DPU_V7M3_PIPE] |136|  ; [ORIG 16-BIT INS]
     310 00000066 9902              LDR       A2, [SP, #8]          ; [DPU_V7M3_PIPE] |136|  ; [ORIG 16-BIT INS]
     311 00000068 6088              STR       A1, [A2, #8]          ; [DPU_V7M3_PIPE] |136|  ; [ORIG 16-BIT INS]
     312                            .dwpsn  file "../Source/list.c",line 139,column 2,is_stmt,isa 1
     313                    ;----------------------------------------------------------------------
     314                    ; 139 | pxNewListItem->pvContainer = ( void * ) pxList;                        
     315                    ;----------------------------------------------------------------------
     316 0000006a 9800              LDR       A1, [SP, #0]          ; [DPU_V7M3_PIPE] |139|  ; [ORIG 16-BIT INS]
     317 0000006c 9901              LDR       A2, [SP, #4]          ; [DPU_V7M3_PIPE] |139|  ; [ORIG 16-BIT INS]
     318 0000006e 6108              STR       A1, [A2, #16]         ; [DPU_V7M3_PIPE] |139|  ; [ORIG 16-BIT INS]
     319                            .dwpsn  file "../Source/list.c",line 141,column 2,is_stmt,isa 1
     320                    ;----------------------------------------------------------------------
     321                    ; 141 | ( pxList->uxNumberOfItems )++;                                         
     322                    ;----------------------------------------------------------------------
     323 00000070 9900              LDR       A2, [SP, #0]          ; [DPU_V7M3_PIPE] |141|  ; [ORIG 16-BIT INS]
     324 00000072 6808              LDR       A1, [A2, #0]          ; [DPU_V7M3_PIPE] |141|  ; [ORIG 16-BIT INS]
     325 00000074 1C40              ADDS      A1, A1, #1            ; [DPU_V7M3_PIPE] |141|  ; [ORIG 16-BIT INS]
     326 00000076 6008              STR       A1, [A2, #0]          ; [DPU_V7M3_PIPE] |141|  ; [ORIG 16-BIT INS]
     327                            .dwpsn  file "../Source/list.c",line 142,column 1,is_stmt,isa 1
     328 00000078 B004              ADD       SP, SP, #16           ; [DPU_V7M3_PIPE]  ; [ORIG 16-BIT INS]
     329                            .dwcfi  cfa_offset, 0
     330                    $C$DW$15        .dwtag  DW_TAG_TI_branch
TI ARM Assembler PC v18.1.2 Thu Aug 23 17:26:16 2018

Tools Copyright (c) 1996-2017 Texas Instruments Incorporated
list.asm                                                             PAGE    7

     331                            .dwattr $C$DW$15, DW_AT_low_pc(0x00)
     332                            .dwattr $C$DW$15, DW_AT_TI_return
     333                    
     334 0000007a 4770              BX        LR                    ; [DPU_V7M3_PIPE]  ; [ORIG 16-BIT INS]
     335                            ; BRANCH OCCURS                  ; [] 
     336                            .dwattr $C$DW$9, DW_AT_TI_end_file("../Source/list.c")
     337                            .dwattr $C$DW$9, DW_AT_TI_end_line(0x8e)
     338                            .dwattr $C$DW$9, DW_AT_TI_end_column(0x01)
     339                            .dwendentry
     340                            .dwendtag $C$DW$9
     341                    
     342 0000007c                   .sect   ".text"
     343                            .clink
     344                            .thumbfunc vListInsert
     345 0000007c                   .thumb
     346                            .global vListInsert
     347                    
     348                    $C$DW$16        .dwtag  DW_TAG_subprogram
     349                            .dwattr $C$DW$16, DW_AT_name("vListInsert")
     350                            .dwattr $C$DW$16, DW_AT_low_pc(vListInsert)
     351                            .dwattr $C$DW$16, DW_AT_high_pc(0x00)
     352                            .dwattr $C$DW$16, DW_AT_TI_symbol_name("vListInsert")
     353                            .dwattr $C$DW$16, DW_AT_external
     354                            .dwattr $C$DW$16, DW_AT_TI_begin_file("../Source/list.c")
     355                            .dwattr $C$DW$16, DW_AT_TI_begin_line(0x91)
     356                            .dwattr $C$DW$16, DW_AT_TI_begin_column(0x06)
     357                            .dwattr $C$DW$16, DW_AT_decl_file("../Source/list.c")
     358                            .dwattr $C$DW$16, DW_AT_decl_line(0x91)
     359                            .dwattr $C$DW$16, DW_AT_decl_column(0x06)
     360                            .dwattr $C$DW$16, DW_AT_TI_max_frame_size(0x10)
     361                            .dwpsn  file "../Source/list.c",line 146,column 1,is_stmt,address vListInsert,isa 1
     362                    
     363                            .dwfde $C$DW$CIE, vListInsert
     364                    $C$DW$17        .dwtag  DW_TAG_formal_parameter
     365                            .dwattr $C$DW$17, DW_AT_name("pxList")
     366                            .dwattr $C$DW$17, DW_AT_TI_symbol_name("pxList")
     367                            .dwattr $C$DW$17, DW_AT_type(*$C$DW$T$49)
     368                            .dwattr $C$DW$17, DW_AT_location[DW_OP_reg0]
     369                    
     370                    $C$DW$18        .dwtag  DW_TAG_formal_parameter
     371                            .dwattr $C$DW$18, DW_AT_name("pxNewListItem")
     372                            .dwattr $C$DW$18, DW_AT_TI_symbol_name("pxNewListItem")
     373                            .dwattr $C$DW$18, DW_AT_type(*$C$DW$T$51)
     374                            .dwattr $C$DW$18, DW_AT_location[DW_OP_reg1]
     375                    
     376                    ;----------------------------------------------------------------------
     377                    ; 145 | void vListInsert( List_t * const pxList, ListItem_t * const pxNewListIt
     378                    ;     | em )                                                                   
     379                    ;----------------------------------------------------------------------
     380                    
     381                    ;*****************************************************************************
     382                    ;* FUNCTION NAME: vListInsert                                                *
     383                    ;*                                                                           *
     384                    ;*   Regs Modified     : A1,A2,SP,SR                                         *
     385                    ;*   Regs Used         : A1,A2,SP,LR,SR                                      *
TI ARM Assembler PC v18.1.2 Thu Aug 23 17:26:16 2018

Tools Copyright (c) 1996-2017 Texas Instruments Incorporated
list.asm                                                             PAGE    8

     386                    ;*   Local Frame Size  : 0 Args + 16 Auto + 0 Save = 16 byte                 *
     387                    ;*****************************************************************************
     388 0000007c           vListInsert:
     389                    ;* --------------------------------------------------------------------------*
     390                            .dwcfi  cfa_offset, 0
     391 0000007c 0D10F1AD          SUB       SP, SP, #16           ; [DPU_V7M3_PIPE]  ; [KEEP 32-BIT INS]
     392                            .dwcfi  cfa_offset, 16
     393                    $C$DW$19        .dwtag  DW_TAG_variable
     394                            .dwattr $C$DW$19, DW_AT_name("pxList")
     395                            .dwattr $C$DW$19, DW_AT_TI_symbol_name("pxList")
     396                            .dwattr $C$DW$19, DW_AT_type(*$C$DW$T$49)
     397                            .dwattr $C$DW$19, DW_AT_location[DW_OP_breg13 0]
     398                    
     399                    $C$DW$20        .dwtag  DW_TAG_variable
     400                            .dwattr $C$DW$20, DW_AT_name("pxNewListItem")
     401                            .dwattr $C$DW$20, DW_AT_TI_symbol_name("pxNewListItem")
     402                            .dwattr $C$DW$20, DW_AT_type(*$C$DW$T$51)
     403                            .dwattr $C$DW$20, DW_AT_location[DW_OP_breg13 4]
     404                    
     405                    $C$DW$21        .dwtag  DW_TAG_variable
     406                            .dwattr $C$DW$21, DW_AT_name("pxIterator")
     407                            .dwattr $C$DW$21, DW_AT_TI_symbol_name("pxIterator")
     408                            .dwattr $C$DW$21, DW_AT_type(*$C$DW$T$35)
     409                            .dwattr $C$DW$21, DW_AT_location[DW_OP_breg13 8]
     410                    
     411                    $C$DW$22        .dwtag  DW_TAG_variable
     412                            .dwattr $C$DW$22, DW_AT_name("xValueOfInsertion")
     413                            .dwattr $C$DW$22, DW_AT_TI_symbol_name("xValueOfInsertion")
     414                            .dwattr $C$DW$22, DW_AT_type(*$C$DW$T$147)
     415                            .dwattr $C$DW$22, DW_AT_location[DW_OP_breg13 12]
     416                    
     417                    ;----------------------------------------------------------------------
     418                    ; 147 | ListItem_t *pxIterator;                                                
     419                    ;----------------------------------------------------------------------
     420 00000080 9101              STR       A2, [SP, #4]          ; [DPU_V7M3_PIPE] |146|  ; [ORIG 16-BIT INS]
     421 00000082 9000              STR       A1, [SP, #0]          ; [DPU_V7M3_PIPE] |146|  ; [ORIG 16-BIT INS]
     422                            .dwpsn  file "../Source/list.c",line 148,column 36,is_stmt,isa 1
     423                    ;----------------------------------------------------------------------
     424                    ; 148 | const TickType_t xValueOfInsertion = pxNewListItem->xItemValue;        
     425                    ; 153 | listTEST_LIST_INTEGRITY( pxList );                                     
     426                    ; 154 | listTEST_LIST_ITEM_INTEGRITY( pxNewListItem );                         
     427                    ;----------------------------------------------------------------------
     428 00000084 9801              LDR       A1, [SP, #4]          ; [DPU_V7M3_PIPE] |148|  ; [ORIG 16-BIT INS]
     429 00000086 6800              LDR       A1, [A1, #0]          ; [DPU_V7M3_PIPE] |148|  ; [ORIG 16-BIT INS]
     430 00000088 9003              STR       A1, [SP, #12]         ; [DPU_V7M3_PIPE] |148|  ; [ORIG 16-BIT INS]
     431                            .dwpsn  file "../Source/list.c",line 164,column 2,is_stmt,isa 1
     432                    ;----------------------------------------------------------------------
     433                    ; 164 | if( xValueOfInsertion == portMAX_DELAY )                               
     434                    ;----------------------------------------------------------------------
     435 0000008a 9803              LDR       A1, [SP, #12]         ; [DPU_V7M3_PIPE] |164|  ; [ORIG 16-BIT INS]
     436 0000008c 3FFFF1B0          CMP       A1, #-1               ; [DPU_V7M3_PIPE] |164|  ; [KEEP 32-BIT INS]
     437 00000090 D103              BNE       ||$C$L1||             ; [DPU_V7M3_PIPE] |164|  ; [ORIG 16-BIT INS]
     438                            ; BRANCHCC OCCURS {||$C$L1||}    ; [] |164| 
     439                    ;* --------------------------------------------------------------------------*
     440                            .dwpsn  file "../Source/list.c",line 166,column 3,is_stmt,isa 1
TI ARM Assembler PC v18.1.2 Thu Aug 23 17:26:16 2018

Tools Copyright (c) 1996-2017 Texas Instruments Incorporated
list.asm                                                             PAGE    9

     441                    ;----------------------------------------------------------------------
     442                    ; 166 | pxIterator = pxList->xListEnd.pxPrevious;                              
     443                    ;----------------------------------------------------------------------
     444 00000092 9800              LDR       A1, [SP, #0]          ; [DPU_V7M3_PIPE] |166|  ; [ORIG 16-BIT INS]
     445 00000094 6900              LDR       A1, [A1, #16]         ; [DPU_V7M3_PIPE] |166|  ; [ORIG 16-BIT INS]
     446 00000096 9002              STR       A1, [SP, #8]          ; [DPU_V7M3_PIPE] |166|  ; [ORIG 16-BIT INS]
     447                            .dwpsn  file "../Source/list.c",line 167,column 2,is_stmt,isa 1
     448                    ;----------------------------------------------------------------------
     449                    ; 168 | else                                                                   
     450                    ;----------------------------------------------------------------------
     451 00000098 E00C              B         ||$C$L4||             ; [DPU_V7M3_PIPE] |167|  ; [ORIG 16-BIT INS]
     452                            ; BRANCH OCCURS {||$C$L4||}      ; [] |167| 
     453                    ;* --------------------------------------------------------------------------*
     454 0000009a           ||$C$L1||:    
     455                            .dwpsn  file "../Source/list.c",line 192,column 8,is_stmt,isa 1
     456                    ;----------------------------------------------------------------------
     457                    ; 192 | for( pxIterator = ( ListItem_t * ) &( pxList->xListEnd ); pxIterator->p
     458                    ;     | xNext->xItemValue <= xValueOfInsertion; pxIterator = pxIterator->pxNext
     459                    ;     |  ) /*lint !e826 !e740 The mini list structure is used as the list end t
     460                    ;     | o save RAM.  This is checked and valid. */                             
     461                    ;----------------------------------------------------------------------
     462 0000009a 9800              LDR       A1, [SP, #0]          ; [DPU_V7M3_PIPE] |192|  ; [ORIG 16-BIT INS]
     463 0000009c 3008              ADDS      A1, A1, #8            ; [DPU_V7M3_PIPE] |192|  ; [ORIG 16-BIT INS]
     464 0000009e 9002              STR       A1, [SP, #8]          ; [DPU_V7M3_PIPE] |192|  ; [ORIG 16-BIT INS]
     465 000000a0 E002              B         ||$C$L3||             ; [DPU_V7M3_PIPE] |192|  ; [ORIG 16-BIT INS]
     466                            ; BRANCH OCCURS {||$C$L3||}      ; [] |192| 
     467                    ;* --------------------------------------------------------------------------*
     468 000000a2           ||$C$L2||:    
     469                            .dwpsn  file "../Source/list.c",line 192,column 114,is_stmt,isa 1
     470 000000a2 9802              LDR       A1, [SP, #8]          ; [DPU_V7M3_PIPE] |192|  ; [ORIG 16-BIT INS]
     471 000000a4 6840              LDR       A1, [A1, #4]          ; [DPU_V7M3_PIPE] |192|  ; [ORIG 16-BIT INS]
     472 000000a6 9002              STR       A1, [SP, #8]          ; [DPU_V7M3_PIPE] |192|  ; [ORIG 16-BIT INS]
     473                    ;* --------------------------------------------------------------------------*
     474                    ;*   BEGIN LOOP ||$C$L3||
     475                    ;* --------------------------------------------------------------------------*
     476 000000a8           ||$C$L3||:    
     477                            .dwpsn  file "../Source/list.c",line 192,column 61,is_stmt,isa 1
     478 000000a8 9802              LDR       A1, [SP, #8]          ; [DPU_V7M3_PIPE] |192|  ; [ORIG 16-BIT INS]
     479 000000aa 6841              LDR       A2, [A1, #4]          ; [DPU_V7M3_PIPE] |192|  ; [ORIG 16-BIT INS]
     480 000000ac 9803              LDR       A1, [SP, #12]         ; [DPU_V7M3_PIPE] |192|  ; [ORIG 16-BIT INS]
     481 000000ae 6809              LDR       A2, [A2, #0]          ; [DPU_V7M3_PIPE] |192|  ; [ORIG 16-BIT INS]
     482 000000b0 4288              CMP       A1, A2                ; [DPU_V7M3_PIPE] |192|  ; [ORIG 16-BIT INS]
     483 000000b2 D2F6              BCS       ||$C$L2||             ; [DPU_V7M3_PIPE] |192|  ; [ORIG 16-BIT INS]
     484                            ; BRANCHCC OCCURS {||$C$L2||}    ; [] |192| 
     485                    ;* --------------------------------------------------------------------------*
     486 000000b4           ||$C$L4||:    
     487                            .dwpsn  file "../Source/list.c",line 199,column 2,is_stmt,isa 1
     488                    ;----------------------------------------------------------------------
     489                    ; 199 | pxNewListItem->pxNext = pxIterator->pxNext;                            
     490                    ;----------------------------------------------------------------------
     491 000000b4 9802              LDR       A1, [SP, #8]          ; [DPU_V7M3_PIPE] |199|  ; [ORIG 16-BIT INS]
     492 000000b6 9901              LDR       A2, [SP, #4]          ; [DPU_V7M3_PIPE] |199|  ; [ORIG 16-BIT INS]
     493 000000b8 6840              LDR       A1, [A1, #4]          ; [DPU_V7M3_PIPE] |199|  ; [ORIG 16-BIT INS]
     494 000000ba 6048              STR       A1, [A2, #4]          ; [DPU_V7M3_PIPE] |199|  ; [ORIG 16-BIT INS]
     495                            .dwpsn  file "../Source/list.c",line 200,column 2,is_stmt,isa 1
TI ARM Assembler PC v18.1.2 Thu Aug 23 17:26:16 2018

Tools Copyright (c) 1996-2017 Texas Instruments Incorporated
list.asm                                                             PAGE   10

     496                    ;----------------------------------------------------------------------
     497                    ; 200 | pxNewListItem->pxNext->pxPrevious = pxNewListItem;                     
     498                    ;----------------------------------------------------------------------
     499 000000bc 9901              LDR       A2, [SP, #4]          ; [DPU_V7M3_PIPE] |200|  ; [ORIG 16-BIT INS]
     500 000000be 9801              LDR       A1, [SP, #4]          ; [DPU_V7M3_PIPE] |200|  ; [ORIG 16-BIT INS]
     501 000000c0 6849              LDR       A2, [A2, #4]          ; [DPU_V7M3_PIPE] |200|  ; [ORIG 16-BIT INS]
     502 000000c2 6088              STR       A1, [A2, #8]          ; [DPU_V7M3_PIPE] |200|  ; [ORIG 16-BIT INS]
     503                            .dwpsn  file "../Source/list.c",line 201,column 2,is_stmt,isa 1
     504                    ;----------------------------------------------------------------------
     505                    ; 201 | pxNewListItem->pxPrevious = pxIterator;                                
     506                    ;----------------------------------------------------------------------
     507 000000c4 9802              LDR       A1, [SP, #8]          ; [DPU_V7M3_PIPE] |201|  ; [ORIG 16-BIT INS]
     508 000000c6 9901              LDR       A2, [SP, #4]          ; [DPU_V7M3_PIPE] |201|  ; [ORIG 16-BIT INS]
     509 000000c8 6088              STR       A1, [A2, #8]          ; [DPU_V7M3_PIPE] |201|  ; [ORIG 16-BIT INS]
     510                            .dwpsn  file "../Source/list.c",line 202,column 2,is_stmt,isa 1
     511                    ;----------------------------------------------------------------------
     512                    ; 202 | pxIterator->pxNext = pxNewListItem;                                    
     513                    ;----------------------------------------------------------------------
     514 000000ca 9801              LDR       A1, [SP, #4]          ; [DPU_V7M3_PIPE] |202|  ; [ORIG 16-BIT INS]
     515 000000cc 9902              LDR       A2, [SP, #8]          ; [DPU_V7M3_PIPE] |202|  ; [ORIG 16-BIT INS]
     516 000000ce 6048              STR       A1, [A2, #4]          ; [DPU_V7M3_PIPE] |202|  ; [ORIG 16-BIT INS]
     517                            .dwpsn  file "../Source/list.c",line 206,column 2,is_stmt,isa 1
     518                    ;----------------------------------------------------------------------
     519                    ; 206 | pxNewListItem->pvContainer = ( void * ) pxList;                        
     520                    ;----------------------------------------------------------------------
     521 000000d0 9800              LDR       A1, [SP, #0]          ; [DPU_V7M3_PIPE] |206|  ; [ORIG 16-BIT INS]
     522 000000d2 9901              LDR       A2, [SP, #4]          ; [DPU_V7M3_PIPE] |206|  ; [ORIG 16-BIT INS]
     523 000000d4 6108              STR       A1, [A2, #16]         ; [DPU_V7M3_PIPE] |206|  ; [ORIG 16-BIT INS]
     524                            .dwpsn  file "../Source/list.c",line 208,column 2,is_stmt,isa 1
     525                    ;----------------------------------------------------------------------
     526                    ; 208 | ( pxList->uxNumberOfItems )++;                                         
     527                    ;----------------------------------------------------------------------
     528 000000d6 9900              LDR       A2, [SP, #0]          ; [DPU_V7M3_PIPE] |208|  ; [ORIG 16-BIT INS]
     529 000000d8 6808              LDR       A1, [A2, #0]          ; [DPU_V7M3_PIPE] |208|  ; [ORIG 16-BIT INS]
     530 000000da 1C40              ADDS      A1, A1, #1            ; [DPU_V7M3_PIPE] |208|  ; [ORIG 16-BIT INS]
     531 000000dc 6008              STR       A1, [A2, #0]          ; [DPU_V7M3_PIPE] |208|  ; [ORIG 16-BIT INS]
     532                            .dwpsn  file "../Source/list.c",line 209,column 1,is_stmt,isa 1
     533 000000de B004              ADD       SP, SP, #16           ; [DPU_V7M3_PIPE]  ; [ORIG 16-BIT INS]
     534                            .dwcfi  cfa_offset, 0
     535                    $C$DW$23        .dwtag  DW_TAG_TI_branch
     536                            .dwattr $C$DW$23, DW_AT_low_pc(0x00)
     537                            .dwattr $C$DW$23, DW_AT_TI_return
     538                    
     539 000000e0 4770              BX        LR                    ; [DPU_V7M3_PIPE]  ; [ORIG 16-BIT INS]
     540                            ; BRANCH OCCURS                  ; [] 
     541                            .dwattr $C$DW$16, DW_AT_TI_end_file("../Source/list.c")
     542                            .dwattr $C$DW$16, DW_AT_TI_end_line(0xd1)
     543                            .dwattr $C$DW$16, DW_AT_TI_end_column(0x01)
     544                            .dwendentry
     545                            .dwendtag $C$DW$16
     546                    
     547 000000e2                   .sect   ".text"
     548                            .clink
     549                            .thumbfunc uxListRemove
     550 000000e2                   .thumb
TI ARM Assembler PC v18.1.2 Thu Aug 23 17:26:16 2018

Tools Copyright (c) 1996-2017 Texas Instruments Incorporated
list.asm                                                             PAGE   11

     551                            .global uxListRemove
     552                    
     553                    $C$DW$24        .dwtag  DW_TAG_subprogram
     554                            .dwattr $C$DW$24, DW_AT_name("uxListRemove")
     555                            .dwattr $C$DW$24, DW_AT_low_pc(uxListRemove)
     556                            .dwattr $C$DW$24, DW_AT_high_pc(0x00)
     557                            .dwattr $C$DW$24, DW_AT_TI_symbol_name("uxListRemove")
     558                            .dwattr $C$DW$24, DW_AT_external
     559                            .dwattr $C$DW$24, DW_AT_type(*$C$DW$T$33)
     560                            .dwattr $C$DW$24, DW_AT_TI_begin_file("../Source/list.c")
     561                            .dwattr $C$DW$24, DW_AT_TI_begin_line(0xd4)
     562                            .dwattr $C$DW$24, DW_AT_TI_begin_column(0x0d)
     563                            .dwattr $C$DW$24, DW_AT_decl_file("../Source/list.c")
     564                            .dwattr $C$DW$24, DW_AT_decl_line(0xd4)
     565                            .dwattr $C$DW$24, DW_AT_decl_column(0x0d)
     566                            .dwattr $C$DW$24, DW_AT_TI_max_frame_size(0x08)
     567                            .dwpsn  file "../Source/list.c",line 213,column 1,is_stmt,address uxListRemove,isa 1
     568                    
     569                            .dwfde $C$DW$CIE, uxListRemove
     570                    $C$DW$25        .dwtag  DW_TAG_formal_parameter
     571                            .dwattr $C$DW$25, DW_AT_name("pxItemToRemove")
     572                            .dwattr $C$DW$25, DW_AT_TI_symbol_name("pxItemToRemove")
     573                            .dwattr $C$DW$25, DW_AT_type(*$C$DW$T$51)
     574                            .dwattr $C$DW$25, DW_AT_location[DW_OP_reg0]
     575                    
     576                    ;----------------------------------------------------------------------
     577                    ; 212 | UBaseType_t uxListRemove( ListItem_t * const pxItemToRemove )          
     578                    ;----------------------------------------------------------------------
     579                    
     580                    ;*****************************************************************************
     581                    ;* FUNCTION NAME: uxListRemove                                               *
     582                    ;*                                                                           *
     583                    ;*   Regs Modified     : A1,A2,SP,SR                                         *
     584                    ;*   Regs Used         : A1,A2,SP,LR,SR                                      *
     585                    ;*   Local Frame Size  : 0 Args + 8 Auto + 0 Save = 8 byte                   *
     586                    ;*****************************************************************************
     587 000000e2           uxListRemove:
     588                    ;* --------------------------------------------------------------------------*
     589                            .dwcfi  cfa_offset, 0
     590 000000e2 0D08F1AD          SUB       SP, SP, #8            ; [DPU_V7M3_PIPE]  ; [KEEP 32-BIT INS]
     591                            .dwcfi  cfa_offset, 8
     592                    $C$DW$26        .dwtag  DW_TAG_variable
     593                            .dwattr $C$DW$26, DW_AT_name("pxItemToRemove")
     594                            .dwattr $C$DW$26, DW_AT_TI_symbol_name("pxItemToRemove")
     595                            .dwattr $C$DW$26, DW_AT_type(*$C$DW$T$51)
     596                            .dwattr $C$DW$26, DW_AT_location[DW_OP_breg13 0]
     597                    
     598                    $C$DW$27        .dwtag  DW_TAG_variable
     599                            .dwattr $C$DW$27, DW_AT_name("pxList")
     600                            .dwattr $C$DW$27, DW_AT_TI_symbol_name("pxList")
     601                            .dwattr $C$DW$27, DW_AT_type(*$C$DW$T$49)
     602                            .dwattr $C$DW$27, DW_AT_location[DW_OP_breg13 4]
     603                    
     604 000000e6 9000              STR       A1, [SP, #0]          ; [DPU_V7M3_PIPE] |213|  ; [ORIG 16-BIT INS]
     605                            .dwpsn  file "../Source/list.c",line 216,column 23,is_stmt,isa 1
TI ARM Assembler PC v18.1.2 Thu Aug 23 17:26:16 2018

Tools Copyright (c) 1996-2017 Texas Instruments Incorporated
list.asm                                                             PAGE   12

     606                    ;----------------------------------------------------------------------
     607                    ; 216 | List_t * const pxList = ( List_t * ) pxItemToRemove->pvContainer;      
     608                    ;----------------------------------------------------------------------
     609 000000e8 9800              LDR       A1, [SP, #0]          ; [DPU_V7M3_PIPE] |216|  ; [ORIG 16-BIT INS]
     610 000000ea 6900              LDR       A1, [A1, #16]         ; [DPU_V7M3_PIPE] |216|  ; [ORIG 16-BIT INS]
     611 000000ec 9001              STR       A1, [SP, #4]          ; [DPU_V7M3_PIPE] |216|  ; [ORIG 16-BIT INS]
     612                            .dwpsn  file "../Source/list.c",line 218,column 2,is_stmt,isa 1
     613                    ;----------------------------------------------------------------------
     614                    ; 218 | pxItemToRemove->pxNext->pxPrevious = pxItemToRemove->pxPrevious;       
     615                    ;----------------------------------------------------------------------
     616 000000ee 9900              LDR       A2, [SP, #0]          ; [DPU_V7M3_PIPE] |218|  ; [ORIG 16-BIT INS]
     617 000000f0 9800              LDR       A1, [SP, #0]          ; [DPU_V7M3_PIPE] |218|  ; [ORIG 16-BIT INS]
     618 000000f2 6849              LDR       A2, [A2, #4]          ; [DPU_V7M3_PIPE] |218|  ; [ORIG 16-BIT INS]
     619 000000f4 6880              LDR       A1, [A1, #8]          ; [DPU_V7M3_PIPE] |218|  ; [ORIG 16-BIT INS]
     620 000000f6 6088              STR       A1, [A2, #8]          ; [DPU_V7M3_PIPE] |218|  ; [ORIG 16-BIT INS]
     621                            .dwpsn  file "../Source/list.c",line 219,column 2,is_stmt,isa 1
     622                    ;----------------------------------------------------------------------
     623                    ; 219 | pxItemToRemove->pxPrevious->pxNext = pxItemToRemove->pxNext;           
     624                    ; 222 | mtCOVERAGE_TEST_DELAY();                                               
     625                    ;----------------------------------------------------------------------
     626 000000f8 9800              LDR       A1, [SP, #0]          ; [DPU_V7M3_PIPE] |219|  ; [ORIG 16-BIT INS]
     627 000000fa 9900              LDR       A2, [SP, #0]          ; [DPU_V7M3_PIPE] |219|  ; [ORIG 16-BIT INS]
     628 000000fc 6840              LDR       A1, [A1, #4]          ; [DPU_V7M3_PIPE] |219|  ; [ORIG 16-BIT INS]
     629 000000fe 6889              LDR       A2, [A2, #8]          ; [DPU_V7M3_PIPE] |219|  ; [ORIG 16-BIT INS]
     630 00000100 6048              STR       A1, [A2, #4]          ; [DPU_V7M3_PIPE] |219|  ; [ORIG 16-BIT INS]
     631                            .dwpsn  file "../Source/list.c",line 225,column 2,is_stmt,isa 1
     632                    ;----------------------------------------------------------------------
     633                    ; 225 | if( pxList->pxIndex == pxItemToRemove )                                
     634                    ;----------------------------------------------------------------------
     635 00000102 9901              LDR       A2, [SP, #4]          ; [DPU_V7M3_PIPE] |225|  ; [ORIG 16-BIT INS]
     636 00000104 9800              LDR       A1, [SP, #0]          ; [DPU_V7M3_PIPE] |225|  ; [ORIG 16-BIT INS]
     637 00000106 6849              LDR       A2, [A2, #4]          ; [DPU_V7M3_PIPE] |225|  ; [ORIG 16-BIT INS]
     638 00000108 4288              CMP       A1, A2                ; [DPU_V7M3_PIPE] |225|  ; [ORIG 16-BIT INS]
     639 0000010a D103              BNE       ||$C$L5||             ; [DPU_V7M3_PIPE] |225|  ; [ORIG 16-BIT INS]
     640                            ; BRANCHCC OCCURS {||$C$L5||}    ; [] |225| 
     641                    ;* --------------------------------------------------------------------------*
     642                            .dwpsn  file "../Source/list.c",line 227,column 3,is_stmt,isa 1
     643                    ;----------------------------------------------------------------------
     644                    ; 227 | pxList->pxIndex = pxItemToRemove->pxPrevious;                          
     645                    ;----------------------------------------------------------------------
     646 0000010c 9800              LDR       A1, [SP, #0]          ; [DPU_V7M3_PIPE] |227|  ; [ORIG 16-BIT INS]
     647 0000010e 9901              LDR       A2, [SP, #4]          ; [DPU_V7M3_PIPE] |227|  ; [ORIG 16-BIT INS]
     648 00000110 6880              LDR       A1, [A1, #8]          ; [DPU_V7M3_PIPE] |227|  ; [ORIG 16-BIT INS]
     649 00000112 6048              STR       A1, [A2, #4]          ; [DPU_V7M3_PIPE] |227|  ; [ORIG 16-BIT INS]
     650                            .dwpsn  file "../Source/list.c",line 228,column 2,is_stmt,isa 1
     651                    ;----------------------------------------------------------------------
     652                    ; 229 | else                                                                   
     653                    ; 231 |         mtCOVERAGE_TEST_MARKER();                                      
     654                    ;----------------------------------------------------------------------
     655                    ;* --------------------------------------------------------------------------*
     656 00000114           ||$C$L5||:    
     657                            .dwpsn  file "../Source/list.c",line 234,column 2,is_stmt,isa 1
     658                    ;----------------------------------------------------------------------
     659                    ; 234 | pxItemToRemove->pvContainer = NULL;                                    
     660                    ;----------------------------------------------------------------------
TI ARM Assembler PC v18.1.2 Thu Aug 23 17:26:16 2018

Tools Copyright (c) 1996-2017 Texas Instruments Incorporated
list.asm                                                             PAGE   13

     661 00000114 9800              LDR       A1, [SP, #0]          ; [DPU_V7M3_PIPE] |234|  ; [ORIG 16-BIT INS]
     662 00000116 2100              MOVS      A2, #0                ; [DPU_V7M3_PIPE] |234|  ; [ORIG 16-BIT INS]
     663 00000118 6101              STR       A2, [A1, #16]         ; [DPU_V7M3_PIPE] |234|  ; [ORIG 16-BIT INS]
     664                            .dwpsn  file "../Source/list.c",line 235,column 2,is_stmt,isa 1
     665                    ;----------------------------------------------------------------------
     666                    ; 235 | ( pxList->uxNumberOfItems )--;                                         
     667                    ;----------------------------------------------------------------------
     668 0000011a 9901              LDR       A2, [SP, #4]          ; [DPU_V7M3_PIPE] |235|  ; [ORIG 16-BIT INS]
     669 0000011c 6808              LDR       A1, [A2, #0]          ; [DPU_V7M3_PIPE] |235|  ; [ORIG 16-BIT INS]
     670 0000011e 1E40              SUBS      A1, A1, #1            ; [DPU_V7M3_PIPE] |235|  ; [ORIG 16-BIT INS]
     671 00000120 6008              STR       A1, [A2, #0]          ; [DPU_V7M3_PIPE] |235|  ; [ORIG 16-BIT INS]
     672                            .dwpsn  file "../Source/list.c",line 237,column 2,is_stmt,isa 1
     673                    ;----------------------------------------------------------------------
     674                    ; 237 | return pxList->uxNumberOfItems;                                        
     675                    ;----------------------------------------------------------------------
     676 00000122 9801              LDR       A1, [SP, #4]          ; [DPU_V7M3_PIPE] |237|  ; [ORIG 16-BIT INS]
     677 00000124 6800              LDR       A1, [A1, #0]          ; [DPU_V7M3_PIPE] |237|  ; [ORIG 16-BIT INS]
     678                            .dwpsn  file "../Source/list.c",line 238,column 1,is_stmt,isa 1
     679 00000126 B002              ADD       SP, SP, #8            ; [DPU_V7M3_PIPE]  ; [ORIG 16-BIT INS]
     680                            .dwcfi  cfa_offset, 0
     681                    $C$DW$28        .dwtag  DW_TAG_TI_branch
     682                            .dwattr $C$DW$28, DW_AT_low_pc(0x00)
     683                            .dwattr $C$DW$28, DW_AT_TI_return
     684                    
     685 00000128 4770              BX        LR                    ; [DPU_V7M3_PIPE]  ; [ORIG 16-BIT INS]
     686                            ; BRANCH OCCURS                  ; [] 
     687                            .dwattr $C$DW$24, DW_AT_TI_end_file("../Source/list.c")
     688                            .dwattr $C$DW$24, DW_AT_TI_end_line(0xee)
     689                            .dwattr $C$DW$24, DW_AT_TI_end_column(0x01)
     690                            .dwendentry
     691                            .dwendtag $C$DW$24
     692                    
     693                    
     694                    ;******************************************************************************
     695                    ;* BUILD ATTRIBUTES                                                           *
     696                    ;******************************************************************************
     697                            .battr "aeabi", Tag_File, 1, Tag_ABI_PCS_wchar_t(2)
     698                            .battr "aeabi", Tag_File, 1, Tag_ABI_FP_rounding(0)
     699                            .battr "aeabi", Tag_File, 1, Tag_ABI_FP_denormal(0)
     700                            .battr "aeabi", Tag_File, 1, Tag_ABI_FP_exceptions(0)
     701                            .battr "aeabi", Tag_File, 1, Tag_ABI_FP_number_model(1)
     702                            .battr "aeabi", Tag_File, 1, Tag_ABI_enum_size(0)
     703                            .battr "aeabi", Tag_File, 1, Tag_ABI_optimization_goals(5)
     704                            .battr "aeabi", Tag_File, 1, Tag_ABI_FP_optimization_goals(0)
     705                            .battr "TI", Tag_File, 1, Tag_Bitfield_layout(2)
     706                            .battr "aeabi", Tag_File, 1, Tag_ABI_VFP_args(3)
     707                            .battr "TI", Tag_File, 1, Tag_FP_interface(1)
     708                    
     709                    ;******************************************************************************
     710                    ;* TYPE INFORMATION                                                           *
     711                    ;******************************************************************************
     712                    
     713                    $C$DW$T$21      .dwtag  DW_TAG_structure_type
     714                            .dwattr $C$DW$T$21, DW_AT_byte_size(0x08)
     715                    $C$DW$29        .dwtag  DW_TAG_member
TI ARM Assembler PC v18.1.2 Thu Aug 23 17:26:16 2018

Tools Copyright (c) 1996-2017 Texas Instruments Incorporated
list.asm                                                             PAGE   14

     716                            .dwattr $C$DW$29, DW_AT_type(*$C$DW$T$10)
     717                            .dwattr $C$DW$29, DW_AT_name("quot")
     718                            .dwattr $C$DW$29, DW_AT_TI_symbol_name("quot")
     719                            .dwattr $C$DW$29, DW_AT_data_member_location[DW_OP_plus_uconst 0x0]
     720                            .dwattr $C$DW$29, DW_AT_accessibility(DW_ACCESS_public)
     721                            .dwattr $C$DW$29, DW_AT_decl_file("C:/TI_CodeComposer/ccsv8/tools/compiler/ti-cgt-arm_18.1.2.L
     722                            .dwattr $C$DW$29, DW_AT_decl_line(0x49)
     723                            .dwattr $C$DW$29, DW_AT_decl_column(0x16)
     724                    
     725                    $C$DW$30        .dwtag  DW_TAG_member
     726                            .dwattr $C$DW$30, DW_AT_type(*$C$DW$T$10)
     727                            .dwattr $C$DW$30, DW_AT_name("rem")
     728                            .dwattr $C$DW$30, DW_AT_TI_symbol_name("rem")
     729                            .dwattr $C$DW$30, DW_AT_data_member_location[DW_OP_plus_uconst 0x4]
     730                            .dwattr $C$DW$30, DW_AT_accessibility(DW_ACCESS_public)
     731                            .dwattr $C$DW$30, DW_AT_decl_file("C:/TI_CodeComposer/ccsv8/tools/compiler/ti-cgt-arm_18.1.2.L
     732                            .dwattr $C$DW$30, DW_AT_decl_line(0x49)
     733                            .dwattr $C$DW$30, DW_AT_decl_column(0x1c)
     734                    
     735                            .dwattr $C$DW$T$21, DW_AT_decl_file("C:/TI_CodeComposer/ccsv8/tools/compiler/ti-cgt-arm_18.1.2
     736                            .dwattr $C$DW$T$21, DW_AT_decl_line(0x49)
     737                            .dwattr $C$DW$T$21, DW_AT_decl_column(0x10)
     738                            .dwendtag $C$DW$T$21
     739                    
     740                    $C$DW$T$42      .dwtag  DW_TAG_typedef
     741                            .dwattr $C$DW$T$42, DW_AT_name("div_t")
     742                            .dwattr $C$DW$T$42, DW_AT_type(*$C$DW$T$21)
     743                            .dwattr $C$DW$T$42, DW_AT_language(DW_LANG_C)
     744                            .dwattr $C$DW$T$42, DW_AT_decl_file("C:/TI_CodeComposer/ccsv8/tools/compiler/ti-cgt-arm_18.1.2
     745                            .dwattr $C$DW$T$42, DW_AT_decl_line(0x49)
     746                            .dwattr $C$DW$T$42, DW_AT_decl_column(0x23)
     747                    
     748                    
     749                    $C$DW$T$22      .dwtag  DW_TAG_structure_type
     750                            .dwattr $C$DW$T$22, DW_AT_byte_size(0x08)
     751                    $C$DW$31        .dwtag  DW_TAG_member
     752                            .dwattr $C$DW$31, DW_AT_type(*$C$DW$T$10)
     753                            .dwattr $C$DW$31, DW_AT_name("quot")
     754                            .dwattr $C$DW$31, DW_AT_TI_symbol_name("quot")
     755                            .dwattr $C$DW$31, DW_AT_data_member_location[DW_OP_plus_uconst 0x0]
     756                            .dwattr $C$DW$31, DW_AT_accessibility(DW_ACCESS_public)
     757                            .dwattr $C$DW$31, DW_AT_decl_file("C:/TI_CodeComposer/ccsv8/tools/compiler/ti-cgt-arm_18.1.2.L
     758                            .dwattr $C$DW$31, DW_AT_decl_line(0x4e)
     759                            .dwattr $C$DW$31, DW_AT_decl_column(0x16)
     760                    
     761                    $C$DW$32        .dwtag  DW_TAG_member
     762                            .dwattr $C$DW$32, DW_AT_type(*$C$DW$T$10)
     763                            .dwattr $C$DW$32, DW_AT_name("rem")
     764                            .dwattr $C$DW$32, DW_AT_TI_symbol_name("rem")
     765                            .dwattr $C$DW$32, DW_AT_data_member_location[DW_OP_plus_uconst 0x4]
     766                            .dwattr $C$DW$32, DW_AT_accessibility(DW_ACCESS_public)
     767                            .dwattr $C$DW$32, DW_AT_decl_file("C:/TI_CodeComposer/ccsv8/tools/compiler/ti-cgt-arm_18.1.2.L
     768                            .dwattr $C$DW$32, DW_AT_decl_line(0x4e)
     769                            .dwattr $C$DW$32, DW_AT_decl_column(0x1c)
     770                    
TI ARM Assembler PC v18.1.2 Thu Aug 23 17:26:16 2018

Tools Copyright (c) 1996-2017 Texas Instruments Incorporated
list.asm                                                             PAGE   15

     771                            .dwattr $C$DW$T$22, DW_AT_decl_file("C:/TI_CodeComposer/ccsv8/tools/compiler/ti-cgt-arm_18.1.2
     772                            .dwattr $C$DW$T$22, DW_AT_decl_line(0x4e)
     773                            .dwattr $C$DW$T$22, DW_AT_decl_column(0x10)
     774                            .dwendtag $C$DW$T$22
     775                    
     776                    $C$DW$T$43      .dwtag  DW_TAG_typedef
     777                            .dwattr $C$DW$T$43, DW_AT_name("ldiv_t")
     778                            .dwattr $C$DW$T$43, DW_AT_type(*$C$DW$T$22)
     779                            .dwattr $C$DW$T$43, DW_AT_language(DW_LANG_C)
     780                            .dwattr $C$DW$T$43, DW_AT_decl_file("C:/TI_CodeComposer/ccsv8/tools/compiler/ti-cgt-arm_18.1.2
     781                            .dwattr $C$DW$T$43, DW_AT_decl_line(0x4e)
     782                            .dwattr $C$DW$T$43, DW_AT_decl_column(0x23)
     783                    
     784                    
     785                    $C$DW$T$23      .dwtag  DW_TAG_structure_type
     786                            .dwattr $C$DW$T$23, DW_AT_byte_size(0x10)
     787                    $C$DW$33        .dwtag  DW_TAG_member
     788                            .dwattr $C$DW$33, DW_AT_type(*$C$DW$T$14)
     789                            .dwattr $C$DW$33, DW_AT_name("quot")
     790                            .dwattr $C$DW$33, DW_AT_TI_symbol_name("quot")
     791                            .dwattr $C$DW$33, DW_AT_data_member_location[DW_OP_plus_uconst 0x0]
     792                            .dwattr $C$DW$33, DW_AT_accessibility(DW_ACCESS_public)
     793                            .dwattr $C$DW$33, DW_AT_decl_file("C:/TI_CodeComposer/ccsv8/tools/compiler/ti-cgt-arm_18.1.2.L
     794                            .dwattr $C$DW$33, DW_AT_decl_line(0x56)
     795                            .dwattr $C$DW$33, DW_AT_decl_column(0x1c)
     796                    
     797                    $C$DW$34        .dwtag  DW_TAG_member
     798                            .dwattr $C$DW$34, DW_AT_type(*$C$DW$T$14)
     799                            .dwattr $C$DW$34, DW_AT_name("rem")
     800                            .dwattr $C$DW$34, DW_AT_TI_symbol_name("rem")
     801                            .dwattr $C$DW$34, DW_AT_data_member_location[DW_OP_plus_uconst 0x8]
     802                            .dwattr $C$DW$34, DW_AT_accessibility(DW_ACCESS_public)
     803                            .dwattr $C$DW$34, DW_AT_decl_file("C:/TI_CodeComposer/ccsv8/tools/compiler/ti-cgt-arm_18.1.2.L
     804                            .dwattr $C$DW$34, DW_AT_decl_line(0x56)
     805                            .dwattr $C$DW$34, DW_AT_decl_column(0x22)
     806                    
     807                            .dwattr $C$DW$T$23, DW_AT_decl_file("C:/TI_CodeComposer/ccsv8/tools/compiler/ti-cgt-arm_18.1.2
     808                            .dwattr $C$DW$T$23, DW_AT_decl_line(0x56)
     809                            .dwattr $C$DW$T$23, DW_AT_decl_column(0x10)
     810                            .dwendtag $C$DW$T$23
     811                    
     812                    $C$DW$T$44      .dwtag  DW_TAG_typedef
     813                            .dwattr $C$DW$T$44, DW_AT_name("lldiv_t")
     814                            .dwattr $C$DW$T$44, DW_AT_type(*$C$DW$T$23)
     815                            .dwattr $C$DW$T$44, DW_AT_language(DW_LANG_C)
     816                            .dwattr $C$DW$T$44, DW_AT_decl_file("C:/TI_CodeComposer/ccsv8/tools/compiler/ti-cgt-arm_18.1.2
     817                            .dwattr $C$DW$T$44, DW_AT_decl_line(0x56)
     818                            .dwattr $C$DW$T$44, DW_AT_decl_column(0x29)
     819                    
     820                    
     821                    $C$DW$T$24      .dwtag  DW_TAG_structure_type
     822                            .dwattr $C$DW$T$24, DW_AT_byte_size(0x10)
     823                    $C$DW$35        .dwtag  DW_TAG_member
     824                            .dwattr $C$DW$35, DW_AT_type(*$C$DW$T$14)
     825                            .dwattr $C$DW$35, DW_AT_name("__max_align1")
TI ARM Assembler PC v18.1.2 Thu Aug 23 17:26:16 2018

Tools Copyright (c) 1996-2017 Texas Instruments Incorporated
list.asm                                                             PAGE   16

     826                            .dwattr $C$DW$35, DW_AT_TI_symbol_name("__max_align1")
     827                            .dwattr $C$DW$35, DW_AT_data_member_location[DW_OP_plus_uconst 0x0]
     828                            .dwattr $C$DW$35, DW_AT_accessibility(DW_ACCESS_public)
     829                            .dwattr $C$DW$35, DW_AT_decl_file("C:/TI_CodeComposer/ccsv8/tools/compiler/ti-cgt-arm_18.1.2.L
     830                            .dwattr $C$DW$35, DW_AT_decl_line(0x70)
     831                            .dwattr $C$DW$35, DW_AT_decl_column(0x0c)
     832                    
     833                    $C$DW$36        .dwtag  DW_TAG_member
     834                            .dwattr $C$DW$36, DW_AT_type(*$C$DW$T$18)
     835                            .dwattr $C$DW$36, DW_AT_name("__max_align2")
     836                            .dwattr $C$DW$36, DW_AT_TI_symbol_name("__max_align2")
     837                            .dwattr $C$DW$36, DW_AT_data_member_location[DW_OP_plus_uconst 0x8]
     838                            .dwattr $C$DW$36, DW_AT_accessibility(DW_ACCESS_public)
     839                            .dwattr $C$DW$36, DW_AT_decl_file("C:/TI_CodeComposer/ccsv8/tools/compiler/ti-cgt-arm_18.1.2.L
     840                            .dwattr $C$DW$36, DW_AT_decl_line(0x71)
     841                            .dwattr $C$DW$36, DW_AT_decl_column(0x0e)
     842                    
     843                            .dwattr $C$DW$T$24, DW_AT_decl_file("C:/TI_CodeComposer/ccsv8/tools/compiler/ti-cgt-arm_18.1.2
     844                            .dwattr $C$DW$T$24, DW_AT_decl_line(0x6f)
     845                            .dwattr $C$DW$T$24, DW_AT_decl_column(0x10)
     846                            .dwendtag $C$DW$T$24
     847                    
     848                    $C$DW$T$45      .dwtag  DW_TAG_typedef
     849                            .dwattr $C$DW$T$45, DW_AT_name("__max_align_t")
     850                            .dwattr $C$DW$T$45, DW_AT_type(*$C$DW$T$24)
     851                            .dwattr $C$DW$T$45, DW_AT_language(DW_LANG_C)
     852                            .dwattr $C$DW$T$45, DW_AT_decl_file("C:/TI_CodeComposer/ccsv8/tools/compiler/ti-cgt-arm_18.1.2
     853                            .dwattr $C$DW$T$45, DW_AT_decl_line(0x72)
     854                            .dwattr $C$DW$T$45, DW_AT_decl_column(0x03)
     855                    
     856                    
     857                    $C$DW$T$29      .dwtag  DW_TAG_structure_type
     858                            .dwattr $C$DW$T$29, DW_AT_name("HeapRegion")
     859                            .dwattr $C$DW$T$29, DW_AT_byte_size(0x08)
     860                    $C$DW$37        .dwtag  DW_TAG_member
     861                            .dwattr $C$DW$37, DW_AT_type(*$C$DW$T$27)
     862                            .dwattr $C$DW$37, DW_AT_name("pucStartAddress")
     863                            .dwattr $C$DW$37, DW_AT_TI_symbol_name("pucStartAddress")
     864                            .dwattr $C$DW$37, DW_AT_data_member_location[DW_OP_plus_uconst 0x0]
     865                            .dwattr $C$DW$37, DW_AT_accessibility(DW_ACCESS_public)
     866                            .dwattr $C$DW$37, DW_AT_decl_file("C:\Projects\EECS_388_Test_Workspace\EECS_388_Base_Project_F
     867                            .dwattr $C$DW$37, DW_AT_decl_line(0x96)
     868                            .dwattr $C$DW$37, DW_AT_decl_column(0x0b)
     869                    
     870                    $C$DW$38        .dwtag  DW_TAG_member
     871                            .dwattr $C$DW$38, DW_AT_type(*$C$DW$T$28)
     872                            .dwattr $C$DW$38, DW_AT_name("xSizeInBytes")
     873                            .dwattr $C$DW$38, DW_AT_TI_symbol_name("xSizeInBytes")
     874                            .dwattr $C$DW$38, DW_AT_data_member_location[DW_OP_plus_uconst 0x4]
     875                            .dwattr $C$DW$38, DW_AT_accessibility(DW_ACCESS_public)
     876                            .dwattr $C$DW$38, DW_AT_decl_file("C:\Projects\EECS_388_Test_Workspace\EECS_388_Base_Project_F
     877                            .dwattr $C$DW$38, DW_AT_decl_line(0x97)
     878                            .dwattr $C$DW$38, DW_AT_decl_column(0x09)
     879                    
     880                            .dwattr $C$DW$T$29, DW_AT_decl_file("C:\Projects\EECS_388_Test_Workspace\EECS_388_Base_Project
TI ARM Assembler PC v18.1.2 Thu Aug 23 17:26:16 2018

Tools Copyright (c) 1996-2017 Texas Instruments Incorporated
list.asm                                                             PAGE   17

     881                            .dwattr $C$DW$T$29, DW_AT_decl_line(0x94)
     882                            .dwattr $C$DW$T$29, DW_AT_decl_column(0x10)
     883                            .dwendtag $C$DW$T$29
     884                    
     885                    $C$DW$T$46      .dwtag  DW_TAG_typedef
     886                            .dwattr $C$DW$T$46, DW_AT_name("HeapRegion_t")
     887                            .dwattr $C$DW$T$46, DW_AT_type(*$C$DW$T$29)
     888                            .dwattr $C$DW$T$46, DW_AT_language(DW_LANG_C)
     889                            .dwattr $C$DW$T$46, DW_AT_decl_file("C:\Projects\EECS_388_Test_Workspace\EECS_388_Base_Project
     890                            .dwattr $C$DW$T$46, DW_AT_decl_line(0x98)
     891                            .dwattr $C$DW$T$46, DW_AT_decl_column(0x03)
     892                    
     893                    $C$DW$T$2       .dwtag  DW_TAG_unspecified_type
     894                            .dwattr $C$DW$T$2, DW_AT_name("void")
     895                    
     896                    $C$DW$T$3       .dwtag  DW_TAG_pointer_type
     897                            .dwattr $C$DW$T$3, DW_AT_type(*$C$DW$T$2)
     898                            .dwattr $C$DW$T$3, DW_AT_address_class(0x20)
     899                    
     900                    
     901                    $C$DW$T$54      .dwtag  DW_TAG_subroutine_type
     902                            .dwattr $C$DW$T$54, DW_AT_language(DW_LANG_C)
     903                            .dwendtag $C$DW$T$54
     904                    
     905                    $C$DW$T$55      .dwtag  DW_TAG_pointer_type
     906                            .dwattr $C$DW$T$55, DW_AT_type(*$C$DW$T$54)
     907                            .dwattr $C$DW$T$55, DW_AT_address_class(0x20)
     908                    
     909                    $C$DW$T$56      .dwtag  DW_TAG_typedef
     910                            .dwattr $C$DW$T$56, DW_AT_name("__TI_atexit_fn")
     911                            .dwattr $C$DW$T$56, DW_AT_type(*$C$DW$T$55)
     912                            .dwattr $C$DW$T$56, DW_AT_language(DW_LANG_C)
     913                            .dwattr $C$DW$T$56, DW_AT_decl_file("C:/TI_CodeComposer/ccsv8/tools/compiler/ti-cgt-arm_18.1.2
     914                            .dwattr $C$DW$T$56, DW_AT_decl_line(0xb2)
     915                            .dwattr $C$DW$T$56, DW_AT_decl_column(0x14)
     916                    
     917                    $C$DW$T$57      .dwtag  DW_TAG_const_type
     918                            .dwattr $C$DW$T$57, DW_AT_type(*$C$DW$T$2)
     919                    
     920                    $C$DW$T$58      .dwtag  DW_TAG_pointer_type
     921                            .dwattr $C$DW$T$58, DW_AT_type(*$C$DW$T$57)
     922                            .dwattr $C$DW$T$58, DW_AT_address_class(0x20)
     923                    
     924                    
     925                    $C$DW$T$59      .dwtag  DW_TAG_subroutine_type
     926                            .dwattr $C$DW$T$59, DW_AT_language(DW_LANG_C)
     927                    $C$DW$39        .dwtag  DW_TAG_formal_parameter
     928                            .dwattr $C$DW$39, DW_AT_type(*$C$DW$T$3)
     929                    
     930                            .dwendtag $C$DW$T$59
     931                    
     932                    $C$DW$T$60      .dwtag  DW_TAG_pointer_type
     933                            .dwattr $C$DW$T$60, DW_AT_type(*$C$DW$T$59)
     934                            .dwattr $C$DW$T$60, DW_AT_address_class(0x20)
     935                    
TI ARM Assembler PC v18.1.2 Thu Aug 23 17:26:16 2018

Tools Copyright (c) 1996-2017 Texas Instruments Incorporated
list.asm                                                             PAGE   18

     936                    $C$DW$T$61      .dwtag  DW_TAG_typedef
     937                            .dwattr $C$DW$T$61, DW_AT_name("TaskFunction_t")
     938                            .dwattr $C$DW$T$61, DW_AT_type(*$C$DW$T$60)
     939                            .dwattr $C$DW$T$61, DW_AT_language(DW_LANG_C)
     940                            .dwattr $C$DW$T$61, DW_AT_decl_file("C:\Projects\EECS_388_Test_Workspace\EECS_388_Base_Project
     941                            .dwattr $C$DW$T$61, DW_AT_decl_line(0x4d)
     942                            .dwattr $C$DW$T$61, DW_AT_decl_column(0x10)
     943                    
     944                    $C$DW$T$4       .dwtag  DW_TAG_base_type
     945                            .dwattr $C$DW$T$4, DW_AT_encoding(DW_ATE_boolean)
     946                            .dwattr $C$DW$T$4, DW_AT_name("bool")
     947                            .dwattr $C$DW$T$4, DW_AT_byte_size(0x01)
     948                    
     949                    $C$DW$T$5       .dwtag  DW_TAG_base_type
     950                            .dwattr $C$DW$T$5, DW_AT_encoding(DW_ATE_signed_char)
     951                            .dwattr $C$DW$T$5, DW_AT_name("signed char")
     952                            .dwattr $C$DW$T$5, DW_AT_byte_size(0x01)
     953                    
     954                    $C$DW$T$62      .dwtag  DW_TAG_typedef
     955                            .dwattr $C$DW$T$62, DW_AT_name("__int8_t")
     956                            .dwattr $C$DW$T$62, DW_AT_type(*$C$DW$T$5)
     957                            .dwattr $C$DW$T$62, DW_AT_language(DW_LANG_C)
     958                            .dwattr $C$DW$T$62, DW_AT_decl_file("C:/TI_CodeComposer/ccsv8/tools/compiler/ti-cgt-arm_18.1.2
     959                            .dwattr $C$DW$T$62, DW_AT_decl_line(0x39)
     960                            .dwattr $C$DW$T$62, DW_AT_decl_column(0x16)
     961                    
     962                    $C$DW$T$63      .dwtag  DW_TAG_typedef
     963                            .dwattr $C$DW$T$63, DW_AT_name("__int_least8_t")
     964                            .dwattr $C$DW$T$63, DW_AT_type(*$C$DW$T$62)
     965                            .dwattr $C$DW$T$63, DW_AT_language(DW_LANG_C)
     966                            .dwattr $C$DW$T$63, DW_AT_decl_file("C:/TI_CodeComposer/ccsv8/tools/compiler/ti-cgt-arm_18.1.2
     967                            .dwattr $C$DW$T$63, DW_AT_decl_line(0x58)
     968                            .dwattr $C$DW$T$63, DW_AT_decl_column(0x12)
     969                    
     970                    $C$DW$T$64      .dwtag  DW_TAG_typedef
     971                            .dwattr $C$DW$T$64, DW_AT_name("int_least8_t")
     972                            .dwattr $C$DW$T$64, DW_AT_type(*$C$DW$T$63)
     973                            .dwattr $C$DW$T$64, DW_AT_language(DW_LANG_C)
     974                            .dwattr $C$DW$T$64, DW_AT_decl_file("C:/TI_CodeComposer/ccsv8/tools/compiler/ti-cgt-arm_18.1.2
     975                            .dwattr $C$DW$T$64, DW_AT_decl_line(0x28)
     976                            .dwattr $C$DW$T$64, DW_AT_decl_column(0x19)
     977                    
     978                    $C$DW$T$65      .dwtag  DW_TAG_typedef
     979                            .dwattr $C$DW$T$65, DW_AT_name("int8_t")
     980                            .dwattr $C$DW$T$65, DW_AT_type(*$C$DW$T$62)
     981                            .dwattr $C$DW$T$65, DW_AT_language(DW_LANG_C)
     982                            .dwattr $C$DW$T$65, DW_AT_decl_file("C:/TI_CodeComposer/ccsv8/tools/compiler/ti-cgt-arm_18.1.2
     983                            .dwattr $C$DW$T$65, DW_AT_decl_line(0x24)
     984                            .dwattr $C$DW$T$65, DW_AT_decl_column(0x13)
     985                    
     986                    $C$DW$T$6       .dwtag  DW_TAG_base_type
     987                            .dwattr $C$DW$T$6, DW_AT_encoding(DW_ATE_unsigned_char)
     988                            .dwattr $C$DW$T$6, DW_AT_name("unsigned char")
     989                            .dwattr $C$DW$T$6, DW_AT_byte_size(0x01)
     990                    
TI ARM Assembler PC v18.1.2 Thu Aug 23 17:26:16 2018

Tools Copyright (c) 1996-2017 Texas Instruments Incorporated
list.asm                                                             PAGE   19

     991                    $C$DW$T$25      .dwtag  DW_TAG_typedef
     992                            .dwattr $C$DW$T$25, DW_AT_name("__uint8_t")
     993                            .dwattr $C$DW$T$25, DW_AT_type(*$C$DW$T$6)
     994                            .dwattr $C$DW$T$25, DW_AT_language(DW_LANG_C)
     995                            .dwattr $C$DW$T$25, DW_AT_decl_file("C:/TI_CodeComposer/ccsv8/tools/compiler/ti-cgt-arm_18.1.2
     996                            .dwattr $C$DW$T$25, DW_AT_decl_line(0x3a)
     997                            .dwattr $C$DW$T$25, DW_AT_decl_column(0x18)
     998                    
     999                    $C$DW$T$66      .dwtag  DW_TAG_typedef
    1000                            .dwattr $C$DW$T$66, DW_AT_name("__sa_family_t")
    1001                            .dwattr $C$DW$T$66, DW_AT_type(*$C$DW$T$25)
    1002                            .dwattr $C$DW$T$66, DW_AT_language(DW_LANG_C)
    1003                            .dwattr $C$DW$T$66, DW_AT_decl_file("C:/TI_CodeComposer/ccsv8/tools/compiler/ti-cgt-arm_18.1.2
    1004                            .dwattr $C$DW$T$66, DW_AT_decl_line(0x43)
    1005                            .dwattr $C$DW$T$66, DW_AT_decl_column(0x13)
    1006                    
    1007                    $C$DW$T$67      .dwtag  DW_TAG_typedef
    1008                            .dwattr $C$DW$T$67, DW_AT_name("__uint_least8_t")
    1009                            .dwattr $C$DW$T$67, DW_AT_type(*$C$DW$T$25)
    1010                            .dwattr $C$DW$T$67, DW_AT_language(DW_LANG_C)
    1011                            .dwattr $C$DW$T$67, DW_AT_decl_file("C:/TI_CodeComposer/ccsv8/tools/compiler/ti-cgt-arm_18.1.2
    1012                            .dwattr $C$DW$T$67, DW_AT_decl_line(0x6d)
    1013                            .dwattr $C$DW$T$67, DW_AT_decl_column(0x13)
    1014                    
    1015                    $C$DW$T$68      .dwtag  DW_TAG_typedef
    1016                            .dwattr $C$DW$T$68, DW_AT_name("uint_least8_t")
    1017                            .dwattr $C$DW$T$68, DW_AT_type(*$C$DW$T$67)
    1018                            .dwattr $C$DW$T$68, DW_AT_language(DW_LANG_C)
    1019                            .dwattr $C$DW$T$68, DW_AT_decl_file("C:/TI_CodeComposer/ccsv8/tools/compiler/ti-cgt-arm_18.1.2
    1020                            .dwattr $C$DW$T$68, DW_AT_decl_line(0x2d)
    1021                            .dwattr $C$DW$T$68, DW_AT_decl_column(0x1a)
    1022                    
    1023                    $C$DW$T$26      .dwtag  DW_TAG_typedef
    1024                            .dwattr $C$DW$T$26, DW_AT_name("uint8_t")
    1025                            .dwattr $C$DW$T$26, DW_AT_type(*$C$DW$T$25)
    1026                            .dwattr $C$DW$T$26, DW_AT_language(DW_LANG_C)
    1027                            .dwattr $C$DW$T$26, DW_AT_decl_file("C:/TI_CodeComposer/ccsv8/tools/compiler/ti-cgt-arm_18.1.2
    1028                            .dwattr $C$DW$T$26, DW_AT_decl_line(0x38)
    1029                            .dwattr $C$DW$T$26, DW_AT_decl_column(0x14)
    1030                    
    1031                    $C$DW$T$27      .dwtag  DW_TAG_pointer_type
    1032                            .dwattr $C$DW$T$27, DW_AT_type(*$C$DW$T$26)
    1033                            .dwattr $C$DW$T$27, DW_AT_address_class(0x20)
    1034                    
    1035                    $C$DW$T$69      .dwtag  DW_TAG_typedef
    1036                            .dwattr $C$DW$T$69, DW_AT_name("portCHAR")
    1037                            .dwattr $C$DW$T$69, DW_AT_type(*$C$DW$T$26)
    1038                            .dwattr $C$DW$T$69, DW_AT_language(DW_LANG_C)
    1039                            .dwattr $C$DW$T$69, DW_AT_decl_file("C:\Projects\EECS_388_Test_Workspace\EECS_388_Base_Project
    1040                            .dwattr $C$DW$T$69, DW_AT_decl_line(0x60)
    1041                            .dwattr $C$DW$T$69, DW_AT_decl_column(0x12)
    1042                    
    1043                    $C$DW$T$7       .dwtag  DW_TAG_base_type
    1044                            .dwattr $C$DW$T$7, DW_AT_encoding(DW_ATE_signed_char)
    1045                            .dwattr $C$DW$T$7, DW_AT_name("wchar_t")
TI ARM Assembler PC v18.1.2 Thu Aug 23 17:26:16 2018

Tools Copyright (c) 1996-2017 Texas Instruments Incorporated
list.asm                                                             PAGE   20

    1046                            .dwattr $C$DW$T$7, DW_AT_byte_size(0x02)
    1047                    
    1048                    $C$DW$T$8       .dwtag  DW_TAG_base_type
    1049                            .dwattr $C$DW$T$8, DW_AT_encoding(DW_ATE_signed)
    1050                            .dwattr $C$DW$T$8, DW_AT_name("short")
    1051                            .dwattr $C$DW$T$8, DW_AT_byte_size(0x02)
    1052                    
    1053                    $C$DW$T$70      .dwtag  DW_TAG_typedef
    1054                            .dwattr $C$DW$T$70, DW_AT_name("__int16_t")
    1055                            .dwattr $C$DW$T$70, DW_AT_type(*$C$DW$T$8)
    1056                            .dwattr $C$DW$T$70, DW_AT_language(DW_LANG_C)
    1057                            .dwattr $C$DW$T$70, DW_AT_decl_file("C:/TI_CodeComposer/ccsv8/tools/compiler/ti-cgt-arm_18.1.2
    1058                            .dwattr $C$DW$T$70, DW_AT_decl_line(0x3b)
    1059                            .dwattr $C$DW$T$70, DW_AT_decl_column(0x11)
    1060                    
    1061                    $C$DW$T$71      .dwtag  DW_TAG_typedef
    1062                            .dwattr $C$DW$T$71, DW_AT_name("__int_least16_t")
    1063                            .dwattr $C$DW$T$71, DW_AT_type(*$C$DW$T$70)
    1064                            .dwattr $C$DW$T$71, DW_AT_language(DW_LANG_C)
    1065                            .dwattr $C$DW$T$71, DW_AT_decl_file("C:/TI_CodeComposer/ccsv8/tools/compiler/ti-cgt-arm_18.1.2
    1066                            .dwattr $C$DW$T$71, DW_AT_decl_line(0x59)
    1067                            .dwattr $C$DW$T$71, DW_AT_decl_column(0x13)
    1068                    
    1069                    $C$DW$T$72      .dwtag  DW_TAG_typedef
    1070                            .dwattr $C$DW$T$72, DW_AT_name("int_least16_t")
    1071                            .dwattr $C$DW$T$72, DW_AT_type(*$C$DW$T$71)
    1072                            .dwattr $C$DW$T$72, DW_AT_language(DW_LANG_C)
    1073                            .dwattr $C$DW$T$72, DW_AT_decl_file("C:/TI_CodeComposer/ccsv8/tools/compiler/ti-cgt-arm_18.1.2
    1074                            .dwattr $C$DW$T$72, DW_AT_decl_line(0x29)
    1075                            .dwattr $C$DW$T$72, DW_AT_decl_column(0x1a)
    1076                    
    1077                    $C$DW$T$73      .dwtag  DW_TAG_typedef
    1078                            .dwattr $C$DW$T$73, DW_AT_name("int16_t")
    1079                            .dwattr $C$DW$T$73, DW_AT_type(*$C$DW$T$70)
    1080                            .dwattr $C$DW$T$73, DW_AT_language(DW_LANG_C)
    1081                            .dwattr $C$DW$T$73, DW_AT_decl_file("C:/TI_CodeComposer/ccsv8/tools/compiler/ti-cgt-arm_18.1.2
    1082                            .dwattr $C$DW$T$73, DW_AT_decl_line(0x29)
    1083                            .dwattr $C$DW$T$73, DW_AT_decl_column(0x14)
    1084                    
    1085                    $C$DW$T$74      .dwtag  DW_TAG_typedef
    1086                            .dwattr $C$DW$T$74, DW_AT_name("portSHORT")
    1087                            .dwattr $C$DW$T$74, DW_AT_type(*$C$DW$T$73)
    1088                            .dwattr $C$DW$T$74, DW_AT_language(DW_LANG_C)
    1089                            .dwattr $C$DW$T$74, DW_AT_decl_file("C:\Projects\EECS_388_Test_Workspace\EECS_388_Base_Project
    1090                            .dwattr $C$DW$T$74, DW_AT_decl_line(0x64)
    1091                            .dwattr $C$DW$T$74, DW_AT_decl_column(0x12)
    1092                    
    1093                    $C$DW$T$9       .dwtag  DW_TAG_base_type
    1094                            .dwattr $C$DW$T$9, DW_AT_encoding(DW_ATE_unsigned)
    1095                            .dwattr $C$DW$T$9, DW_AT_name("unsigned short")
    1096                            .dwattr $C$DW$T$9, DW_AT_byte_size(0x02)
    1097                    
    1098                    $C$DW$T$75      .dwtag  DW_TAG_typedef
    1099                            .dwattr $C$DW$T$75, DW_AT_name("___wchar_t")
    1100                            .dwattr $C$DW$T$75, DW_AT_type(*$C$DW$T$9)
TI ARM Assembler PC v18.1.2 Thu Aug 23 17:26:16 2018

Tools Copyright (c) 1996-2017 Texas Instruments Incorporated
list.asm                                                             PAGE   21

    1101                            .dwattr $C$DW$T$75, DW_AT_language(DW_LANG_C)
    1102                            .dwattr $C$DW$T$75, DW_AT_decl_file("C:/TI_CodeComposer/ccsv8/tools/compiler/ti-cgt-arm_18.1.2
    1103                            .dwattr $C$DW$T$75, DW_AT_decl_line(0x76)
    1104                            .dwattr $C$DW$T$75, DW_AT_decl_column(0x1a)
    1105                    
    1106                    $C$DW$T$76      .dwtag  DW_TAG_typedef
    1107                            .dwattr $C$DW$T$76, DW_AT_name("__uint16_t")
    1108                            .dwattr $C$DW$T$76, DW_AT_type(*$C$DW$T$9)
    1109                            .dwattr $C$DW$T$76, DW_AT_language(DW_LANG_C)
    1110                            .dwattr $C$DW$T$76, DW_AT_decl_file("C:/TI_CodeComposer/ccsv8/tools/compiler/ti-cgt-arm_18.1.2
    1111                            .dwattr $C$DW$T$76, DW_AT_decl_line(0x3c)
    1112                            .dwattr $C$DW$T$76, DW_AT_decl_column(0x19)
    1113                    
    1114                    $C$DW$T$77      .dwtag  DW_TAG_typedef
    1115                            .dwattr $C$DW$T$77, DW_AT_name("__mode_t")
    1116                            .dwattr $C$DW$T$77, DW_AT_type(*$C$DW$T$76)
    1117                            .dwattr $C$DW$T$77, DW_AT_language(DW_LANG_C)
    1118                            .dwattr $C$DW$T$77, DW_AT_decl_file("C:/TI_CodeComposer/ccsv8/tools/compiler/ti-cgt-arm_18.1.2
    1119                            .dwattr $C$DW$T$77, DW_AT_decl_line(0x39)
    1120                            .dwattr $C$DW$T$77, DW_AT_decl_column(0x14)
    1121                    
    1122                    $C$DW$T$78      .dwtag  DW_TAG_typedef
    1123                            .dwattr $C$DW$T$78, DW_AT_name("__uint_least16_t")
    1124                            .dwattr $C$DW$T$78, DW_AT_type(*$C$DW$T$76)
    1125                            .dwattr $C$DW$T$78, DW_AT_language(DW_LANG_C)
    1126                            .dwattr $C$DW$T$78, DW_AT_decl_file("C:/TI_CodeComposer/ccsv8/tools/compiler/ti-cgt-arm_18.1.2
    1127                            .dwattr $C$DW$T$78, DW_AT_decl_line(0x6e)
    1128                            .dwattr $C$DW$T$78, DW_AT_decl_column(0x14)
    1129                    
    1130                    $C$DW$T$79      .dwtag  DW_TAG_typedef
    1131                            .dwattr $C$DW$T$79, DW_AT_name("__char16_t")
    1132                            .dwattr $C$DW$T$79, DW_AT_type(*$C$DW$T$78)
    1133                            .dwattr $C$DW$T$79, DW_AT_language(DW_LANG_C)
    1134                            .dwattr $C$DW$T$79, DW_AT_decl_file("C:/TI_CodeComposer/ccsv8/tools/compiler/ti-cgt-arm_18.1.2
    1135                            .dwattr $C$DW$T$79, DW_AT_decl_line(0x66)
    1136                            .dwattr $C$DW$T$79, DW_AT_decl_column(0x1a)
    1137                    
    1138                    $C$DW$T$80      .dwtag  DW_TAG_typedef
    1139                            .dwattr $C$DW$T$80, DW_AT_name("uint_least16_t")
    1140                            .dwattr $C$DW$T$80, DW_AT_type(*$C$DW$T$78)
    1141                            .dwattr $C$DW$T$80, DW_AT_language(DW_LANG_C)
    1142                            .dwattr $C$DW$T$80, DW_AT_decl_file("C:/TI_CodeComposer/ccsv8/tools/compiler/ti-cgt-arm_18.1.2
    1143                            .dwattr $C$DW$T$80, DW_AT_decl_line(0x2e)
    1144                            .dwattr $C$DW$T$80, DW_AT_decl_column(0x1a)
    1145                    
    1146                    $C$DW$T$81      .dwtag  DW_TAG_typedef
    1147                            .dwattr $C$DW$T$81, DW_AT_name("uint16_t")
    1148                            .dwattr $C$DW$T$81, DW_AT_type(*$C$DW$T$76)
    1149                            .dwattr $C$DW$T$81, DW_AT_language(DW_LANG_C)
    1150                            .dwattr $C$DW$T$81, DW_AT_decl_file("C:/TI_CodeComposer/ccsv8/tools/compiler/ti-cgt-arm_18.1.2
    1151                            .dwattr $C$DW$T$81, DW_AT_decl_line(0x3d)
    1152                            .dwattr $C$DW$T$81, DW_AT_decl_column(0x15)
    1153                    
    1154                    $C$DW$T$82      .dwtag  DW_TAG_typedef
    1155                            .dwattr $C$DW$T$82, DW_AT_name("wchar_t")
TI ARM Assembler PC v18.1.2 Thu Aug 23 17:26:16 2018

Tools Copyright (c) 1996-2017 Texas Instruments Incorporated
list.asm                                                             PAGE   22

    1156                            .dwattr $C$DW$T$82, DW_AT_type(*$C$DW$T$9)
    1157                            .dwattr $C$DW$T$82, DW_AT_language(DW_LANG_C)
    1158                            .dwattr $C$DW$T$82, DW_AT_decl_file("C:/TI_CodeComposer/ccsv8/tools/compiler/ti-cgt-arm_18.1.2
    1159                            .dwattr $C$DW$T$82, DW_AT_decl_line(0x6e)
    1160                            .dwattr $C$DW$T$82, DW_AT_decl_column(0x1a)
    1161                    
    1162                    $C$DW$T$10      .dwtag  DW_TAG_base_type
    1163                            .dwattr $C$DW$T$10, DW_AT_encoding(DW_ATE_signed)
    1164                            .dwattr $C$DW$T$10, DW_AT_name("int")
    1165                            .dwattr $C$DW$T$10, DW_AT_byte_size(0x04)
    1166                    
    1167                    $C$DW$T$83      .dwtag  DW_TAG_typedef
    1168                            .dwattr $C$DW$T$83, DW_AT_name("_Mbstatet")
    1169                            .dwattr $C$DW$T$83, DW_AT_type(*$C$DW$T$10)
    1170                            .dwattr $C$DW$T$83, DW_AT_language(DW_LANG_C)
    1171                            .dwattr $C$DW$T$83, DW_AT_decl_file("C:/TI_CodeComposer/ccsv8/tools/compiler/ti-cgt-arm_18.1.2
    1172                            .dwattr $C$DW$T$83, DW_AT_decl_line(0x84)
    1173                            .dwattr $C$DW$T$83, DW_AT_decl_column(0x0d)
    1174                    
    1175                    $C$DW$T$84      .dwtag  DW_TAG_typedef
    1176                            .dwattr $C$DW$T$84, DW_AT_name("__mbstate_t")
    1177                            .dwattr $C$DW$T$84, DW_AT_type(*$C$DW$T$83)
    1178                            .dwattr $C$DW$T$84, DW_AT_language(DW_LANG_C)
    1179                            .dwattr $C$DW$T$84, DW_AT_decl_file("C:/TI_CodeComposer/ccsv8/tools/compiler/ti-cgt-arm_18.1.2
    1180                            .dwattr $C$DW$T$84, DW_AT_decl_line(0x87)
    1181                            .dwattr $C$DW$T$84, DW_AT_decl_column(0x13)
    1182                    
    1183                    $C$DW$T$85      .dwtag  DW_TAG_typedef
    1184                            .dwattr $C$DW$T$85, DW_AT_name("__accmode_t")
    1185                            .dwattr $C$DW$T$85, DW_AT_type(*$C$DW$T$10)
    1186                            .dwattr $C$DW$T$85, DW_AT_language(DW_LANG_C)
    1187                            .dwattr $C$DW$T$85, DW_AT_decl_file("C:/TI_CodeComposer/ccsv8/tools/compiler/ti-cgt-arm_18.1.2
    1188                            .dwattr $C$DW$T$85, DW_AT_decl_line(0x3a)
    1189                            .dwattr $C$DW$T$85, DW_AT_decl_column(0x0e)
    1190                    
    1191                    
    1192                    $C$DW$T$86      .dwtag  DW_TAG_subroutine_type
    1193                            .dwattr $C$DW$T$86, DW_AT_type(*$C$DW$T$10)
    1194                            .dwattr $C$DW$T$86, DW_AT_language(DW_LANG_C)
    1195                    $C$DW$40        .dwtag  DW_TAG_formal_parameter
    1196                            .dwattr $C$DW$40, DW_AT_type(*$C$DW$T$58)
    1197                    
    1198                    $C$DW$41        .dwtag  DW_TAG_formal_parameter
    1199                            .dwattr $C$DW$41, DW_AT_type(*$C$DW$T$58)
    1200                    
    1201                            .dwendtag $C$DW$T$86
    1202                    
    1203                    $C$DW$T$87      .dwtag  DW_TAG_pointer_type
    1204                            .dwattr $C$DW$T$87, DW_AT_type(*$C$DW$T$86)
    1205                            .dwattr $C$DW$T$87, DW_AT_address_class(0x20)
    1206                    
    1207                    $C$DW$T$88      .dwtag  DW_TAG_typedef
    1208                            .dwattr $C$DW$T$88, DW_AT_name("__TI_compar_fn")
    1209                            .dwattr $C$DW$T$88, DW_AT_type(*$C$DW$T$87)
    1210                            .dwattr $C$DW$T$88, DW_AT_language(DW_LANG_C)
TI ARM Assembler PC v18.1.2 Thu Aug 23 17:26:16 2018

Tools Copyright (c) 1996-2017 Texas Instruments Incorporated
list.asm                                                             PAGE   23

    1211                            .dwattr $C$DW$T$88, DW_AT_decl_file("C:/TI_CodeComposer/ccsv8/tools/compiler/ti-cgt-arm_18.1.2
    1212                            .dwattr $C$DW$T$88, DW_AT_decl_line(0xb5)
    1213                            .dwattr $C$DW$T$88, DW_AT_decl_column(0x13)
    1214                    
    1215                    $C$DW$T$89      .dwtag  DW_TAG_typedef
    1216                            .dwattr $C$DW$T$89, DW_AT_name("__cpulevel_t")
    1217                            .dwattr $C$DW$T$89, DW_AT_type(*$C$DW$T$10)
    1218                            .dwattr $C$DW$T$89, DW_AT_language(DW_LANG_C)
    1219                            .dwattr $C$DW$T$89, DW_AT_decl_file("C:/TI_CodeComposer/ccsv8/tools/compiler/ti-cgt-arm_18.1.2
    1220                            .dwattr $C$DW$T$89, DW_AT_decl_line(0x4b)
    1221                            .dwattr $C$DW$T$89, DW_AT_decl_column(0x0e)
    1222                    
    1223                    $C$DW$T$90      .dwtag  DW_TAG_typedef
    1224                            .dwattr $C$DW$T$90, DW_AT_name("__cpusetid_t")
    1225                            .dwattr $C$DW$T$90, DW_AT_type(*$C$DW$T$10)
    1226                            .dwattr $C$DW$T$90, DW_AT_language(DW_LANG_C)
    1227                            .dwattr $C$DW$T$90, DW_AT_decl_file("C:/TI_CodeComposer/ccsv8/tools/compiler/ti-cgt-arm_18.1.2
    1228                            .dwattr $C$DW$T$90, DW_AT_decl_line(0x4c)
    1229                            .dwattr $C$DW$T$90, DW_AT_decl_column(0x0e)
    1230                    
    1231                    $C$DW$T$91      .dwtag  DW_TAG_typedef
    1232                            .dwattr $C$DW$T$91, DW_AT_name("__cpuwhich_t")
    1233                            .dwattr $C$DW$T$91, DW_AT_type(*$C$DW$T$10)
    1234                            .dwattr $C$DW$T$91, DW_AT_language(DW_LANG_C)
    1235                            .dwattr $C$DW$T$91, DW_AT_decl_file("C:/TI_CodeComposer/ccsv8/tools/compiler/ti-cgt-arm_18.1.2
    1236                            .dwattr $C$DW$T$91, DW_AT_decl_line(0x4a)
    1237                            .dwattr $C$DW$T$91, DW_AT_decl_column(0x0e)
    1238                    
    1239                    $C$DW$T$92      .dwtag  DW_TAG_typedef
    1240                            .dwattr $C$DW$T$92, DW_AT_name("__ct_rune_t")
    1241                            .dwattr $C$DW$T$92, DW_AT_type(*$C$DW$T$10)
    1242                            .dwattr $C$DW$T$92, DW_AT_language(DW_LANG_C)
    1243                            .dwattr $C$DW$T$92, DW_AT_decl_file("C:/TI_CodeComposer/ccsv8/tools/compiler/ti-cgt-arm_18.1.2
    1244                            .dwattr $C$DW$T$92, DW_AT_decl_line(0x60)
    1245                            .dwattr $C$DW$T$92, DW_AT_decl_column(0x0e)
    1246                    
    1247                    $C$DW$T$93      .dwtag  DW_TAG_typedef
    1248                            .dwattr $C$DW$T$93, DW_AT_name("__rune_t")
    1249                            .dwattr $C$DW$T$93, DW_AT_type(*$C$DW$T$92)
    1250                            .dwattr $C$DW$T$93, DW_AT_language(DW_LANG_C)
    1251                            .dwattr $C$DW$T$93, DW_AT_decl_file("C:/TI_CodeComposer/ccsv8/tools/compiler/ti-cgt-arm_18.1.2
    1252                            .dwattr $C$DW$T$93, DW_AT_decl_line(0x61)
    1253                            .dwattr $C$DW$T$93, DW_AT_decl_column(0x15)
    1254                    
    1255                    $C$DW$T$94      .dwtag  DW_TAG_typedef
    1256                            .dwattr $C$DW$T$94, DW_AT_name("__wint_t")
    1257                            .dwattr $C$DW$T$94, DW_AT_type(*$C$DW$T$92)
    1258                            .dwattr $C$DW$T$94, DW_AT_language(DW_LANG_C)
    1259                            .dwattr $C$DW$T$94, DW_AT_decl_file("C:/TI_CodeComposer/ccsv8/tools/compiler/ti-cgt-arm_18.1.2
    1260                            .dwattr $C$DW$T$94, DW_AT_decl_line(0x62)
    1261                            .dwattr $C$DW$T$94, DW_AT_decl_column(0x15)
    1262                    
    1263                    $C$DW$T$95      .dwtag  DW_TAG_typedef
    1264                            .dwattr $C$DW$T$95, DW_AT_name("__int32_t")
    1265                            .dwattr $C$DW$T$95, DW_AT_type(*$C$DW$T$10)
TI ARM Assembler PC v18.1.2 Thu Aug 23 17:26:16 2018

Tools Copyright (c) 1996-2017 Texas Instruments Incorporated
list.asm                                                             PAGE   24

    1266                            .dwattr $C$DW$T$95, DW_AT_language(DW_LANG_C)
    1267                            .dwattr $C$DW$T$95, DW_AT_decl_file("C:/TI_CodeComposer/ccsv8/tools/compiler/ti-cgt-arm_18.1.2
    1268                            .dwattr $C$DW$T$95, DW_AT_decl_line(0x3d)
    1269                            .dwattr $C$DW$T$95, DW_AT_decl_column(0x0f)
    1270                    
    1271                    $C$DW$T$96      .dwtag  DW_TAG_typedef
    1272                            .dwattr $C$DW$T$96, DW_AT_name("__blksize_t")
    1273                            .dwattr $C$DW$T$96, DW_AT_type(*$C$DW$T$95)
    1274                            .dwattr $C$DW$T$96, DW_AT_language(DW_LANG_C)
    1275                            .dwattr $C$DW$T$96, DW_AT_decl_file("C:/TI_CodeComposer/ccsv8/tools/compiler/ti-cgt-arm_18.1.2
    1276                            .dwattr $C$DW$T$96, DW_AT_decl_line(0x2e)
    1277                            .dwattr $C$DW$T$96, DW_AT_decl_column(0x13)
    1278                    
    1279                    $C$DW$T$97      .dwtag  DW_TAG_typedef
    1280                            .dwattr $C$DW$T$97, DW_AT_name("__clockid_t")
    1281                            .dwattr $C$DW$T$97, DW_AT_type(*$C$DW$T$95)
    1282                            .dwattr $C$DW$T$97, DW_AT_language(DW_LANG_C)
    1283                            .dwattr $C$DW$T$97, DW_AT_decl_file("C:/TI_CodeComposer/ccsv8/tools/compiler/ti-cgt-arm_18.1.2
    1284                            .dwattr $C$DW$T$97, DW_AT_decl_line(0x30)
    1285                            .dwattr $C$DW$T$97, DW_AT_decl_column(0x13)
    1286                    
    1287                    $C$DW$T$98      .dwtag  DW_TAG_typedef
    1288                            .dwattr $C$DW$T$98, DW_AT_name("__critical_t")
    1289                            .dwattr $C$DW$T$98, DW_AT_type(*$C$DW$T$95)
    1290                            .dwattr $C$DW$T$98, DW_AT_language(DW_LANG_C)
    1291                            .dwattr $C$DW$T$98, DW_AT_decl_file("C:/TI_CodeComposer/ccsv8/tools/compiler/ti-cgt-arm_18.1.2
    1292                            .dwattr $C$DW$T$98, DW_AT_decl_line(0x4e)
    1293                            .dwattr $C$DW$T$98, DW_AT_decl_column(0x13)
    1294                    
    1295                    $C$DW$T$99      .dwtag  DW_TAG_typedef
    1296                            .dwattr $C$DW$T$99, DW_AT_name("__int_fast16_t")
    1297                            .dwattr $C$DW$T$99, DW_AT_type(*$C$DW$T$95)
    1298                            .dwattr $C$DW$T$99, DW_AT_language(DW_LANG_C)
    1299                            .dwattr $C$DW$T$99, DW_AT_decl_file("C:/TI_CodeComposer/ccsv8/tools/compiler/ti-cgt-arm_18.1.2
    1300                            .dwattr $C$DW$T$99, DW_AT_decl_line(0x55)
    1301                            .dwattr $C$DW$T$99, DW_AT_decl_column(0x13)
    1302                    
    1303                    $C$DW$T$100     .dwtag  DW_TAG_typedef
    1304                            .dwattr $C$DW$T$100, DW_AT_name("int_fast16_t")
    1305                            .dwattr $C$DW$T$100, DW_AT_type(*$C$DW$T$99)
    1306                            .dwattr $C$DW$T$100, DW_AT_language(DW_LANG_C)
    1307                            .dwattr $C$DW$T$100, DW_AT_decl_file("C:/TI_CodeComposer/ccsv8/tools/compiler/ti-cgt-arm_18.1.
    1308                            .dwattr $C$DW$T$100, DW_AT_decl_line(0x33)
    1309                            .dwattr $C$DW$T$100, DW_AT_decl_column(0x19)
    1310                    
    1311                    $C$DW$T$101     .dwtag  DW_TAG_typedef
    1312                            .dwattr $C$DW$T$101, DW_AT_name("__int_fast32_t")
    1313                            .dwattr $C$DW$T$101, DW_AT_type(*$C$DW$T$95)
    1314                            .dwattr $C$DW$T$101, DW_AT_language(DW_LANG_C)
    1315                            .dwattr $C$DW$T$101, DW_AT_decl_file("C:/TI_CodeComposer/ccsv8/tools/compiler/ti-cgt-arm_18.1.
    1316                            .dwattr $C$DW$T$101, DW_AT_decl_line(0x56)
    1317                            .dwattr $C$DW$T$101, DW_AT_decl_column(0x13)
    1318                    
    1319                    $C$DW$T$102     .dwtag  DW_TAG_typedef
    1320                            .dwattr $C$DW$T$102, DW_AT_name("int_fast32_t")
TI ARM Assembler PC v18.1.2 Thu Aug 23 17:26:16 2018

Tools Copyright (c) 1996-2017 Texas Instruments Incorporated
list.asm                                                             PAGE   25

    1321                            .dwattr $C$DW$T$102, DW_AT_type(*$C$DW$T$101)
    1322                            .dwattr $C$DW$T$102, DW_AT_language(DW_LANG_C)
    1323                            .dwattr $C$DW$T$102, DW_AT_decl_file("C:/TI_CodeComposer/ccsv8/tools/compiler/ti-cgt-arm_18.1.
    1324                            .dwattr $C$DW$T$102, DW_AT_decl_line(0x34)
    1325                            .dwattr $C$DW$T$102, DW_AT_decl_column(0x19)
    1326                    
    1327                    $C$DW$T$103     .dwtag  DW_TAG_typedef
    1328                            .dwattr $C$DW$T$103, DW_AT_name("__int_fast8_t")
    1329                            .dwattr $C$DW$T$103, DW_AT_type(*$C$DW$T$95)
    1330                            .dwattr $C$DW$T$103, DW_AT_language(DW_LANG_C)
    1331                            .dwattr $C$DW$T$103, DW_AT_decl_file("C:/TI_CodeComposer/ccsv8/tools/compiler/ti-cgt-arm_18.1.
    1332                            .dwattr $C$DW$T$103, DW_AT_decl_line(0x54)
    1333                            .dwattr $C$DW$T$103, DW_AT_decl_column(0x13)
    1334                    
    1335                    $C$DW$T$104     .dwtag  DW_TAG_typedef
    1336                            .dwattr $C$DW$T$104, DW_AT_name("int_fast8_t")
    1337                            .dwattr $C$DW$T$104, DW_AT_type(*$C$DW$T$103)
    1338                            .dwattr $C$DW$T$104, DW_AT_language(DW_LANG_C)
    1339                            .dwattr $C$DW$T$104, DW_AT_decl_file("C:/TI_CodeComposer/ccsv8/tools/compiler/ti-cgt-arm_18.1.
    1340                            .dwattr $C$DW$T$104, DW_AT_decl_line(0x32)
    1341                            .dwattr $C$DW$T$104, DW_AT_decl_column(0x18)
    1342                    
    1343                    $C$DW$T$105     .dwtag  DW_TAG_typedef
    1344                            .dwattr $C$DW$T$105, DW_AT_name("__int_least32_t")
    1345                            .dwattr $C$DW$T$105, DW_AT_type(*$C$DW$T$95)
    1346                            .dwattr $C$DW$T$105, DW_AT_language(DW_LANG_C)
    1347                            .dwattr $C$DW$T$105, DW_AT_decl_file("C:/TI_CodeComposer/ccsv8/tools/compiler/ti-cgt-arm_18.1.
    1348                            .dwattr $C$DW$T$105, DW_AT_decl_line(0x5a)
    1349                            .dwattr $C$DW$T$105, DW_AT_decl_column(0x13)
    1350                    
    1351                    $C$DW$T$106     .dwtag  DW_TAG_typedef
    1352                            .dwattr $C$DW$T$106, DW_AT_name("int_least32_t")
    1353                            .dwattr $C$DW$T$106, DW_AT_type(*$C$DW$T$105)
    1354                            .dwattr $C$DW$T$106, DW_AT_language(DW_LANG_C)
    1355                            .dwattr $C$DW$T$106, DW_AT_decl_file("C:/TI_CodeComposer/ccsv8/tools/compiler/ti-cgt-arm_18.1.
    1356                            .dwattr $C$DW$T$106, DW_AT_decl_line(0x2a)
    1357                            .dwattr $C$DW$T$106, DW_AT_decl_column(0x1a)
    1358                    
    1359                    $C$DW$T$107     .dwtag  DW_TAG_typedef
    1360                            .dwattr $C$DW$T$107, DW_AT_name("__intfptr_t")
    1361                            .dwattr $C$DW$T$107, DW_AT_type(*$C$DW$T$95)
    1362                            .dwattr $C$DW$T$107, DW_AT_language(DW_LANG_C)
    1363                            .dwattr $C$DW$T$107, DW_AT_decl_file("C:/TI_CodeComposer/ccsv8/tools/compiler/ti-cgt-arm_18.1.
    1364                            .dwattr $C$DW$T$107, DW_AT_decl_line(0x51)
    1365                            .dwattr $C$DW$T$107, DW_AT_decl_column(0x13)
    1366                    
    1367                    $C$DW$T$108     .dwtag  DW_TAG_typedef
    1368                            .dwattr $C$DW$T$108, DW_AT_name("__intptr_t")
    1369                            .dwattr $C$DW$T$108, DW_AT_type(*$C$DW$T$95)
    1370                            .dwattr $C$DW$T$108, DW_AT_language(DW_LANG_C)
    1371                            .dwattr $C$DW$T$108, DW_AT_decl_file("C:/TI_CodeComposer/ccsv8/tools/compiler/ti-cgt-arm_18.1.
    1372                            .dwattr $C$DW$T$108, DW_AT_decl_line(0x53)
    1373                            .dwattr $C$DW$T$108, DW_AT_decl_column(0x13)
    1374                    
    1375                    $C$DW$T$109     .dwtag  DW_TAG_typedef
TI ARM Assembler PC v18.1.2 Thu Aug 23 17:26:16 2018

Tools Copyright (c) 1996-2017 Texas Instruments Incorporated
list.asm                                                             PAGE   26

    1376                            .dwattr $C$DW$T$109, DW_AT_name("intptr_t")
    1377                            .dwattr $C$DW$T$109, DW_AT_type(*$C$DW$T$108)
    1378                            .dwattr $C$DW$T$109, DW_AT_language(DW_LANG_C)
    1379                            .dwattr $C$DW$T$109, DW_AT_decl_file("C:/TI_CodeComposer/ccsv8/tools/compiler/ti-cgt-arm_18.1.
    1380                            .dwattr $C$DW$T$109, DW_AT_decl_line(0x4c)
    1381                            .dwattr $C$DW$T$109, DW_AT_decl_column(0x15)
    1382                    
    1383                    $C$DW$T$110     .dwtag  DW_TAG_typedef
    1384                            .dwattr $C$DW$T$110, DW_AT_name("__lwpid_t")
    1385                            .dwattr $C$DW$T$110, DW_AT_type(*$C$DW$T$95)
    1386                            .dwattr $C$DW$T$110, DW_AT_language(DW_LANG_C)
    1387                            .dwattr $C$DW$T$110, DW_AT_decl_file("C:/TI_CodeComposer/ccsv8/tools/compiler/ti-cgt-arm_18.1.
    1388                            .dwattr $C$DW$T$110, DW_AT_decl_line(0x38)
    1389                            .dwattr $C$DW$T$110, DW_AT_decl_column(0x13)
    1390                    
    1391                    $C$DW$T$111     .dwtag  DW_TAG_typedef
    1392                            .dwattr $C$DW$T$111, DW_AT_name("__pid_t")
    1393                            .dwattr $C$DW$T$111, DW_AT_type(*$C$DW$T$95)
    1394                            .dwattr $C$DW$T$111, DW_AT_language(DW_LANG_C)
    1395                            .dwattr $C$DW$T$111, DW_AT_decl_file("C:/TI_CodeComposer/ccsv8/tools/compiler/ti-cgt-arm_18.1.
    1396                            .dwattr $C$DW$T$111, DW_AT_decl_line(0x3f)
    1397                            .dwattr $C$DW$T$111, DW_AT_decl_column(0x13)
    1398                    
    1399                    $C$DW$T$112     .dwtag  DW_TAG_typedef
    1400                            .dwattr $C$DW$T$112, DW_AT_name("__ptrdiff_t")
    1401                            .dwattr $C$DW$T$112, DW_AT_type(*$C$DW$T$95)
    1402                            .dwattr $C$DW$T$112, DW_AT_language(DW_LANG_C)
    1403                            .dwattr $C$DW$T$112, DW_AT_decl_file("C:/TI_CodeComposer/ccsv8/tools/compiler/ti-cgt-arm_18.1.
    1404                            .dwattr $C$DW$T$112, DW_AT_decl_line(0x5c)
    1405                            .dwattr $C$DW$T$112, DW_AT_decl_column(0x13)
    1406                    
    1407                    $C$DW$T$113     .dwtag  DW_TAG_typedef
    1408                            .dwattr $C$DW$T$113, DW_AT_name("__register_t")
    1409                            .dwattr $C$DW$T$113, DW_AT_type(*$C$DW$T$95)
    1410                            .dwattr $C$DW$T$113, DW_AT_language(DW_LANG_C)
    1411                            .dwattr $C$DW$T$113, DW_AT_decl_file("C:/TI_CodeComposer/ccsv8/tools/compiler/ti-cgt-arm_18.1.
    1412                            .dwattr $C$DW$T$113, DW_AT_decl_line(0x5d)
    1413                            .dwattr $C$DW$T$113, DW_AT_decl_column(0x13)
    1414                    
    1415                    $C$DW$T$114     .dwtag  DW_TAG_typedef
    1416                            .dwattr $C$DW$T$114, DW_AT_name("__segsz_t")
    1417                            .dwattr $C$DW$T$114, DW_AT_type(*$C$DW$T$95)
    1418                            .dwattr $C$DW$T$114, DW_AT_language(DW_LANG_C)
    1419                            .dwattr $C$DW$T$114, DW_AT_decl_file("C:/TI_CodeComposer/ccsv8/tools/compiler/ti-cgt-arm_18.1.
    1420                            .dwattr $C$DW$T$114, DW_AT_decl_line(0x5e)
    1421                            .dwattr $C$DW$T$114, DW_AT_decl_column(0x13)
    1422                    
    1423                    $C$DW$T$115     .dwtag  DW_TAG_typedef
    1424                            .dwattr $C$DW$T$115, DW_AT_name("__ssize_t")
    1425                            .dwattr $C$DW$T$115, DW_AT_type(*$C$DW$T$95)
    1426                            .dwattr $C$DW$T$115, DW_AT_language(DW_LANG_C)
    1427                            .dwattr $C$DW$T$115, DW_AT_decl_file("C:/TI_CodeComposer/ccsv8/tools/compiler/ti-cgt-arm_18.1.
    1428                            .dwattr $C$DW$T$115, DW_AT_decl_line(0x60)
    1429                            .dwattr $C$DW$T$115, DW_AT_decl_column(0x13)
    1430                    
TI ARM Assembler PC v18.1.2 Thu Aug 23 17:26:16 2018

Tools Copyright (c) 1996-2017 Texas Instruments Incorporated
list.asm                                                             PAGE   27

    1431                    $C$DW$T$116     .dwtag  DW_TAG_typedef
    1432                            .dwattr $C$DW$T$116, DW_AT_name("int32_t")
    1433                            .dwattr $C$DW$T$116, DW_AT_type(*$C$DW$T$95)
    1434                            .dwattr $C$DW$T$116, DW_AT_language(DW_LANG_C)
    1435                            .dwattr $C$DW$T$116, DW_AT_decl_file("C:/TI_CodeComposer/ccsv8/tools/compiler/ti-cgt-arm_18.1.
    1436                            .dwattr $C$DW$T$116, DW_AT_decl_line(0x2e)
    1437                            .dwattr $C$DW$T$116, DW_AT_decl_column(0x14)
    1438                    
    1439                    $C$DW$T$117     .dwtag  DW_TAG_typedef
    1440                            .dwattr $C$DW$T$117, DW_AT_name("BaseType_t")
    1441                            .dwattr $C$DW$T$117, DW_AT_type(*$C$DW$T$116)
    1442                            .dwattr $C$DW$T$117, DW_AT_language(DW_LANG_C)
    1443                            .dwattr $C$DW$T$117, DW_AT_decl_file("C:\Projects\EECS_388_Test_Workspace\EECS_388_Base_Projec
    1444                            .dwattr $C$DW$T$117, DW_AT_decl_line(0x69)
    1445                            .dwattr $C$DW$T$117, DW_AT_decl_column(0x12)
    1446                    
    1447                    $C$DW$T$118     .dwtag  DW_TAG_typedef
    1448                            .dwattr $C$DW$T$118, DW_AT_name("portBASE_TYPE")
    1449                            .dwattr $C$DW$T$118, DW_AT_type(*$C$DW$T$116)
    1450                            .dwattr $C$DW$T$118, DW_AT_language(DW_LANG_C)
    1451                            .dwattr $C$DW$T$118, DW_AT_decl_file("C:\Projects\EECS_388_Test_Workspace\EECS_388_Base_Projec
    1452                            .dwattr $C$DW$T$118, DW_AT_decl_line(0x66)
    1453                            .dwattr $C$DW$T$118, DW_AT_decl_column(0x12)
    1454                    
    1455                    $C$DW$T$119     .dwtag  DW_TAG_typedef
    1456                            .dwattr $C$DW$T$119, DW_AT_name("portLONG")
    1457                            .dwattr $C$DW$T$119, DW_AT_type(*$C$DW$T$116)
    1458                            .dwattr $C$DW$T$119, DW_AT_language(DW_LANG_C)
    1459                            .dwattr $C$DW$T$119, DW_AT_decl_file("C:\Projects\EECS_388_Test_Workspace\EECS_388_Base_Projec
    1460                            .dwattr $C$DW$T$119, DW_AT_decl_line(0x63)
    1461                            .dwattr $C$DW$T$119, DW_AT_decl_column(0x12)
    1462                    
    1463                    $C$DW$T$120     .dwtag  DW_TAG_typedef
    1464                            .dwattr $C$DW$T$120, DW_AT_name("__nl_item")
    1465                            .dwattr $C$DW$T$120, DW_AT_type(*$C$DW$T$10)
    1466                            .dwattr $C$DW$T$120, DW_AT_language(DW_LANG_C)
    1467                            .dwattr $C$DW$T$120, DW_AT_decl_file("C:/TI_CodeComposer/ccsv8/tools/compiler/ti-cgt-arm_18.1.
    1468                            .dwattr $C$DW$T$120, DW_AT_decl_line(0x3b)
    1469                            .dwattr $C$DW$T$120, DW_AT_decl_column(0x0e)
    1470                    
    1471                    $C$DW$T$121     .dwtag  DW_TAG_typedef
    1472                            .dwattr $C$DW$T$121, DW_AT_name("ptrdiff_t")
    1473                            .dwattr $C$DW$T$121, DW_AT_type(*$C$DW$T$10)
    1474                            .dwattr $C$DW$T$121, DW_AT_language(DW_LANG_C)
    1475                            .dwattr $C$DW$T$121, DW_AT_decl_file("C:/TI_CodeComposer/ccsv8/tools/compiler/ti-cgt-arm_18.1.
    1476                            .dwattr $C$DW$T$121, DW_AT_decl_line(0x36)
    1477                            .dwattr $C$DW$T$121, DW_AT_decl_column(0x1c)
    1478                    
    1479                    $C$DW$T$11      .dwtag  DW_TAG_base_type
    1480                            .dwattr $C$DW$T$11, DW_AT_encoding(DW_ATE_unsigned)
    1481                            .dwattr $C$DW$T$11, DW_AT_name("unsigned int")
    1482                            .dwattr $C$DW$T$11, DW_AT_byte_size(0x04)
    1483                    
    1484                    $C$DW$T$31      .dwtag  DW_TAG_typedef
    1485                            .dwattr $C$DW$T$31, DW_AT_name("__uint32_t")
TI ARM Assembler PC v18.1.2 Thu Aug 23 17:26:16 2018

Tools Copyright (c) 1996-2017 Texas Instruments Incorporated
list.asm                                                             PAGE   28

    1486                            .dwattr $C$DW$T$31, DW_AT_type(*$C$DW$T$11)
    1487                            .dwattr $C$DW$T$31, DW_AT_language(DW_LANG_C)
    1488                            .dwattr $C$DW$T$31, DW_AT_decl_file("C:/TI_CodeComposer/ccsv8/tools/compiler/ti-cgt-arm_18.1.2
    1489                            .dwattr $C$DW$T$31, DW_AT_decl_line(0x3e)
    1490                            .dwattr $C$DW$T$31, DW_AT_decl_column(0x17)
    1491                    
    1492                    $C$DW$T$122     .dwtag  DW_TAG_typedef
    1493                            .dwattr $C$DW$T$122, DW_AT_name("__clock_t")
    1494                            .dwattr $C$DW$T$122, DW_AT_type(*$C$DW$T$31)
    1495                            .dwattr $C$DW$T$122, DW_AT_language(DW_LANG_C)
    1496                            .dwattr $C$DW$T$122, DW_AT_decl_file("C:/TI_CodeComposer/ccsv8/tools/compiler/ti-cgt-arm_18.1.
    1497                            .dwattr $C$DW$T$122, DW_AT_decl_line(0x4d)
    1498                            .dwattr $C$DW$T$122, DW_AT_decl_column(0x14)
    1499                    
    1500                    $C$DW$T$123     .dwtag  DW_TAG_typedef
    1501                            .dwattr $C$DW$T$123, DW_AT_name("__fflags_t")
    1502                            .dwattr $C$DW$T$123, DW_AT_type(*$C$DW$T$31)
    1503                            .dwattr $C$DW$T$123, DW_AT_language(DW_LANG_C)
    1504                            .dwattr $C$DW$T$123, DW_AT_decl_file("C:/TI_CodeComposer/ccsv8/tools/compiler/ti-cgt-arm_18.1.
    1505                            .dwattr $C$DW$T$123, DW_AT_decl_line(0x31)
    1506                            .dwattr $C$DW$T$123, DW_AT_decl_column(0x14)
    1507                    
    1508                    $C$DW$T$124     .dwtag  DW_TAG_typedef
    1509                            .dwattr $C$DW$T$124, DW_AT_name("__fixpt_t")
    1510                            .dwattr $C$DW$T$124, DW_AT_type(*$C$DW$T$31)
    1511                            .dwattr $C$DW$T$124, DW_AT_language(DW_LANG_C)
    1512                            .dwattr $C$DW$T$124, DW_AT_decl_file("C:/TI_CodeComposer/ccsv8/tools/compiler/ti-cgt-arm_18.1.
    1513                            .dwattr $C$DW$T$124, DW_AT_decl_line(0x76)
    1514                            .dwattr $C$DW$T$124, DW_AT_decl_column(0x14)
    1515                    
    1516                    $C$DW$T$125     .dwtag  DW_TAG_typedef
    1517                            .dwattr $C$DW$T$125, DW_AT_name("__gid_t")
    1518                            .dwattr $C$DW$T$125, DW_AT_type(*$C$DW$T$31)
    1519                            .dwattr $C$DW$T$125, DW_AT_language(DW_LANG_C)
    1520                            .dwattr $C$DW$T$125, DW_AT_decl_file("C:/TI_CodeComposer/ccsv8/tools/compiler/ti-cgt-arm_18.1.
    1521                            .dwattr $C$DW$T$125, DW_AT_decl_line(0x34)
    1522                            .dwattr $C$DW$T$125, DW_AT_decl_column(0x14)
    1523                    
    1524                    $C$DW$T$126     .dwtag  DW_TAG_typedef
    1525                            .dwattr $C$DW$T$126, DW_AT_name("__size_t")
    1526                            .dwattr $C$DW$T$126, DW_AT_type(*$C$DW$T$31)
    1527                            .dwattr $C$DW$T$126, DW_AT_language(DW_LANG_C)
    1528                            .dwattr $C$DW$T$126, DW_AT_decl_file("C:/TI_CodeComposer/ccsv8/tools/compiler/ti-cgt-arm_18.1.
    1529                            .dwattr $C$DW$T$126, DW_AT_decl_line(0x5f)
    1530                            .dwattr $C$DW$T$126, DW_AT_decl_column(0x14)
    1531                    
    1532                    $C$DW$T$127     .dwtag  DW_TAG_typedef
    1533                            .dwattr $C$DW$T$127, DW_AT_name("__socklen_t")
    1534                            .dwattr $C$DW$T$127, DW_AT_type(*$C$DW$T$31)
    1535                            .dwattr $C$DW$T$127, DW_AT_language(DW_LANG_C)
    1536                            .dwattr $C$DW$T$127, DW_AT_decl_file("C:/TI_CodeComposer/ccsv8/tools/compiler/ti-cgt-arm_18.1.
    1537                            .dwattr $C$DW$T$127, DW_AT_decl_line(0x44)
    1538                            .dwattr $C$DW$T$127, DW_AT_decl_column(0x14)
    1539                    
    1540                    $C$DW$T$128     .dwtag  DW_TAG_typedef
TI ARM Assembler PC v18.1.2 Thu Aug 23 17:26:16 2018

Tools Copyright (c) 1996-2017 Texas Instruments Incorporated
list.asm                                                             PAGE   29

    1541                            .dwattr $C$DW$T$128, DW_AT_name("__time_t")
    1542                            .dwattr $C$DW$T$128, DW_AT_type(*$C$DW$T$31)
    1543                            .dwattr $C$DW$T$128, DW_AT_language(DW_LANG_C)
    1544                            .dwattr $C$DW$T$128, DW_AT_decl_file("C:/TI_CodeComposer/ccsv8/tools/compiler/ti-cgt-arm_18.1.
    1545                            .dwattr $C$DW$T$128, DW_AT_decl_line(0x64)
    1546                            .dwattr $C$DW$T$128, DW_AT_decl_column(0x19)
    1547                    
    1548                    $C$DW$T$129     .dwtag  DW_TAG_typedef
    1549                            .dwattr $C$DW$T$129, DW_AT_name("__u_register_t")
    1550                            .dwattr $C$DW$T$129, DW_AT_type(*$C$DW$T$31)
    1551                            .dwattr $C$DW$T$129, DW_AT_language(DW_LANG_C)
    1552                            .dwattr $C$DW$T$129, DW_AT_decl_file("C:/TI_CodeComposer/ccsv8/tools/compiler/ti-cgt-arm_18.1.
    1553                            .dwattr $C$DW$T$129, DW_AT_decl_line(0x71)
    1554                            .dwattr $C$DW$T$129, DW_AT_decl_column(0x14)
    1555                    
    1556                    $C$DW$T$130     .dwtag  DW_TAG_typedef
    1557                            .dwattr $C$DW$T$130, DW_AT_name("__uid_t")
    1558                            .dwattr $C$DW$T$130, DW_AT_type(*$C$DW$T$31)
    1559                            .dwattr $C$DW$T$130, DW_AT_language(DW_LANG_C)
    1560                            .dwattr $C$DW$T$130, DW_AT_decl_file("C:/TI_CodeComposer/ccsv8/tools/compiler/ti-cgt-arm_18.1.
    1561                            .dwattr $C$DW$T$130, DW_AT_decl_line(0x48)
    1562                            .dwattr $C$DW$T$130, DW_AT_decl_column(0x14)
    1563                    
    1564                    $C$DW$T$131     .dwtag  DW_TAG_typedef
    1565                            .dwattr $C$DW$T$131, DW_AT_name("__uint_fast16_t")
    1566                            .dwattr $C$DW$T$131, DW_AT_type(*$C$DW$T$31)
    1567                            .dwattr $C$DW$T$131, DW_AT_language(DW_LANG_C)
    1568                            .dwattr $C$DW$T$131, DW_AT_decl_file("C:/TI_CodeComposer/ccsv8/tools/compiler/ti-cgt-arm_18.1.
    1569                            .dwattr $C$DW$T$131, DW_AT_decl_line(0x6a)
    1570                            .dwattr $C$DW$T$131, DW_AT_decl_column(0x14)
    1571                    
    1572                    $C$DW$T$132     .dwtag  DW_TAG_typedef
    1573                            .dwattr $C$DW$T$132, DW_AT_name("uint_fast16_t")
    1574                            .dwattr $C$DW$T$132, DW_AT_type(*$C$DW$T$131)
    1575                            .dwattr $C$DW$T$132, DW_AT_language(DW_LANG_C)
    1576                            .dwattr $C$DW$T$132, DW_AT_decl_file("C:/TI_CodeComposer/ccsv8/tools/compiler/ti-cgt-arm_18.1.
    1577                            .dwattr $C$DW$T$132, DW_AT_decl_line(0x38)
    1578                            .dwattr $C$DW$T$132, DW_AT_decl_column(0x1a)
    1579                    
    1580                    $C$DW$T$133     .dwtag  DW_TAG_typedef
    1581                            .dwattr $C$DW$T$133, DW_AT_name("__uint_fast32_t")
    1582                            .dwattr $C$DW$T$133, DW_AT_type(*$C$DW$T$31)
    1583                            .dwattr $C$DW$T$133, DW_AT_language(DW_LANG_C)
    1584                            .dwattr $C$DW$T$133, DW_AT_decl_file("C:/TI_CodeComposer/ccsv8/tools/compiler/ti-cgt-arm_18.1.
    1585                            .dwattr $C$DW$T$133, DW_AT_decl_line(0x6b)
    1586                            .dwattr $C$DW$T$133, DW_AT_decl_column(0x14)
    1587                    
    1588                    $C$DW$T$134     .dwtag  DW_TAG_typedef
    1589                            .dwattr $C$DW$T$134, DW_AT_name("uint_fast32_t")
    1590                            .dwattr $C$DW$T$134, DW_AT_type(*$C$DW$T$133)
    1591                            .dwattr $C$DW$T$134, DW_AT_language(DW_LANG_C)
    1592                            .dwattr $C$DW$T$134, DW_AT_decl_file("C:/TI_CodeComposer/ccsv8/tools/compiler/ti-cgt-arm_18.1.
    1593                            .dwattr $C$DW$T$134, DW_AT_decl_line(0x39)
    1594                            .dwattr $C$DW$T$134, DW_AT_decl_column(0x1a)
    1595                    
TI ARM Assembler PC v18.1.2 Thu Aug 23 17:26:16 2018

Tools Copyright (c) 1996-2017 Texas Instruments Incorporated
list.asm                                                             PAGE   30

    1596                    $C$DW$T$135     .dwtag  DW_TAG_typedef
    1597                            .dwattr $C$DW$T$135, DW_AT_name("__uint_fast8_t")
    1598                            .dwattr $C$DW$T$135, DW_AT_type(*$C$DW$T$31)
    1599                            .dwattr $C$DW$T$135, DW_AT_language(DW_LANG_C)
    1600                            .dwattr $C$DW$T$135, DW_AT_decl_file("C:/TI_CodeComposer/ccsv8/tools/compiler/ti-cgt-arm_18.1.
    1601                            .dwattr $C$DW$T$135, DW_AT_decl_line(0x69)
    1602                            .dwattr $C$DW$T$135, DW_AT_decl_column(0x14)
    1603                    
    1604                    $C$DW$T$136     .dwtag  DW_TAG_typedef
    1605                            .dwattr $C$DW$T$136, DW_AT_name("uint_fast8_t")
    1606                            .dwattr $C$DW$T$136, DW_AT_type(*$C$DW$T$135)
    1607                            .dwattr $C$DW$T$136, DW_AT_language(DW_LANG_C)
    1608                            .dwattr $C$DW$T$136, DW_AT_decl_file("C:/TI_CodeComposer/ccsv8/tools/compiler/ti-cgt-arm_18.1.
    1609                            .dwattr $C$DW$T$136, DW_AT_decl_line(0x37)
    1610                            .dwattr $C$DW$T$136, DW_AT_decl_column(0x19)
    1611                    
    1612                    $C$DW$T$137     .dwtag  DW_TAG_typedef
    1613                            .dwattr $C$DW$T$137, DW_AT_name("__uint_least32_t")
    1614                            .dwattr $C$DW$T$137, DW_AT_type(*$C$DW$T$31)
    1615                            .dwattr $C$DW$T$137, DW_AT_language(DW_LANG_C)
    1616                            .dwattr $C$DW$T$137, DW_AT_decl_file("C:/TI_CodeComposer/ccsv8/tools/compiler/ti-cgt-arm_18.1.
    1617                            .dwattr $C$DW$T$137, DW_AT_decl_line(0x6f)
    1618                            .dwattr $C$DW$T$137, DW_AT_decl_column(0x14)
    1619                    
    1620                    $C$DW$T$138     .dwtag  DW_TAG_typedef
    1621                            .dwattr $C$DW$T$138, DW_AT_name("__char32_t")
    1622                            .dwattr $C$DW$T$138, DW_AT_type(*$C$DW$T$137)
    1623                            .dwattr $C$DW$T$138, DW_AT_language(DW_LANG_C)
    1624                            .dwattr $C$DW$T$138, DW_AT_decl_file("C:/TI_CodeComposer/ccsv8/tools/compiler/ti-cgt-arm_18.1.
    1625                            .dwattr $C$DW$T$138, DW_AT_decl_line(0x67)
    1626                            .dwattr $C$DW$T$138, DW_AT_decl_column(0x1a)
    1627                    
    1628                    $C$DW$T$139     .dwtag  DW_TAG_typedef
    1629                            .dwattr $C$DW$T$139, DW_AT_name("uint_least32_t")
    1630                            .dwattr $C$DW$T$139, DW_AT_type(*$C$DW$T$137)
    1631                            .dwattr $C$DW$T$139, DW_AT_language(DW_LANG_C)
    1632                            .dwattr $C$DW$T$139, DW_AT_decl_file("C:/TI_CodeComposer/ccsv8/tools/compiler/ti-cgt-arm_18.1.
    1633                            .dwattr $C$DW$T$139, DW_AT_decl_line(0x2f)
    1634                            .dwattr $C$DW$T$139, DW_AT_decl_column(0x1a)
    1635                    
    1636                    $C$DW$T$140     .dwtag  DW_TAG_typedef
    1637                            .dwattr $C$DW$T$140, DW_AT_name("__uintfptr_t")
    1638                            .dwattr $C$DW$T$140, DW_AT_type(*$C$DW$T$31)
    1639                            .dwattr $C$DW$T$140, DW_AT_language(DW_LANG_C)
    1640                            .dwattr $C$DW$T$140, DW_AT_decl_file("C:/TI_CodeComposer/ccsv8/tools/compiler/ti-cgt-arm_18.1.
    1641                            .dwattr $C$DW$T$140, DW_AT_decl_line(0x66)
    1642                            .dwattr $C$DW$T$140, DW_AT_decl_column(0x14)
    1643                    
    1644                    $C$DW$T$141     .dwtag  DW_TAG_typedef
    1645                            .dwattr $C$DW$T$141, DW_AT_name("__uintptr_t")
    1646                            .dwattr $C$DW$T$141, DW_AT_type(*$C$DW$T$31)
    1647                            .dwattr $C$DW$T$141, DW_AT_language(DW_LANG_C)
    1648                            .dwattr $C$DW$T$141, DW_AT_decl_file("C:/TI_CodeComposer/ccsv8/tools/compiler/ti-cgt-arm_18.1.
    1649                            .dwattr $C$DW$T$141, DW_AT_decl_line(0x68)
    1650                            .dwattr $C$DW$T$141, DW_AT_decl_column(0x14)
TI ARM Assembler PC v18.1.2 Thu Aug 23 17:26:16 2018

Tools Copyright (c) 1996-2017 Texas Instruments Incorporated
list.asm                                                             PAGE   31

    1651                    
    1652                    $C$DW$T$142     .dwtag  DW_TAG_typedef
    1653                            .dwattr $C$DW$T$142, DW_AT_name("uintptr_t")
    1654                            .dwattr $C$DW$T$142, DW_AT_type(*$C$DW$T$141)
    1655                            .dwattr $C$DW$T$142, DW_AT_language(DW_LANG_C)
    1656                            .dwattr $C$DW$T$142, DW_AT_decl_file("C:/TI_CodeComposer/ccsv8/tools/compiler/ti-cgt-arm_18.1.
    1657                            .dwattr $C$DW$T$142, DW_AT_decl_line(0x50)
    1658                            .dwattr $C$DW$T$142, DW_AT_decl_column(0x16)
    1659                    
    1660                    $C$DW$T$143     .dwtag  DW_TAG_typedef
    1661                            .dwattr $C$DW$T$143, DW_AT_name("__vm_offset_t")
    1662                            .dwattr $C$DW$T$143, DW_AT_type(*$C$DW$T$31)
    1663                            .dwattr $C$DW$T$143, DW_AT_language(DW_LANG_C)
    1664                            .dwattr $C$DW$T$143, DW_AT_decl_file("C:/TI_CodeComposer/ccsv8/tools/compiler/ti-cgt-arm_18.1.
    1665                            .dwattr $C$DW$T$143, DW_AT_decl_line(0x72)
    1666                            .dwattr $C$DW$T$143, DW_AT_decl_column(0x14)
    1667                    
    1668                    $C$DW$T$144     .dwtag  DW_TAG_typedef
    1669                            .dwattr $C$DW$T$144, DW_AT_name("__vm_paddr_t")
    1670                            .dwattr $C$DW$T$144, DW_AT_type(*$C$DW$T$31)
    1671                            .dwattr $C$DW$T$144, DW_AT_language(DW_LANG_C)
    1672                            .dwattr $C$DW$T$144, DW_AT_decl_file("C:/TI_CodeComposer/ccsv8/tools/compiler/ti-cgt-arm_18.1.
    1673                            .dwattr $C$DW$T$144, DW_AT_decl_line(0x73)
    1674                            .dwattr $C$DW$T$144, DW_AT_decl_column(0x14)
    1675                    
    1676                    $C$DW$T$145     .dwtag  DW_TAG_typedef
    1677                            .dwattr $C$DW$T$145, DW_AT_name("__vm_size_t")
    1678                            .dwattr $C$DW$T$145, DW_AT_type(*$C$DW$T$31)
    1679                            .dwattr $C$DW$T$145, DW_AT_language(DW_LANG_C)
    1680                            .dwattr $C$DW$T$145, DW_AT_decl_file("C:/TI_CodeComposer/ccsv8/tools/compiler/ti-cgt-arm_18.1.
    1681                            .dwattr $C$DW$T$145, DW_AT_decl_line(0x74)
    1682                            .dwattr $C$DW$T$145, DW_AT_decl_column(0x14)
    1683                    
    1684                    $C$DW$T$32      .dwtag  DW_TAG_typedef
    1685                            .dwattr $C$DW$T$32, DW_AT_name("uint32_t")
    1686                            .dwattr $C$DW$T$32, DW_AT_type(*$C$DW$T$31)
    1687                            .dwattr $C$DW$T$32, DW_AT_language(DW_LANG_C)
    1688                            .dwattr $C$DW$T$32, DW_AT_decl_file("C:/TI_CodeComposer/ccsv8/tools/compiler/ti-cgt-arm_18.1.2
    1689                            .dwattr $C$DW$T$32, DW_AT_decl_line(0x42)
    1690                            .dwattr $C$DW$T$32, DW_AT_decl_column(0x15)
    1691                    
    1692                    $C$DW$T$146     .dwtag  DW_TAG_typedef
    1693                            .dwattr $C$DW$T$146, DW_AT_name("StackType_t")
    1694                            .dwattr $C$DW$T$146, DW_AT_type(*$C$DW$T$32)
    1695                            .dwattr $C$DW$T$146, DW_AT_language(DW_LANG_C)
    1696                            .dwattr $C$DW$T$146, DW_AT_decl_file("C:\Projects\EECS_388_Test_Workspace\EECS_388_Base_Projec
    1697                            .dwattr $C$DW$T$146, DW_AT_decl_line(0x68)
    1698                            .dwattr $C$DW$T$146, DW_AT_decl_column(0x12)
    1699                    
    1700                    $C$DW$T$38      .dwtag  DW_TAG_typedef
    1701                            .dwattr $C$DW$T$38, DW_AT_name("TickType_t")
    1702                            .dwattr $C$DW$T$38, DW_AT_type(*$C$DW$T$32)
    1703                            .dwattr $C$DW$T$38, DW_AT_language(DW_LANG_C)
    1704                            .dwattr $C$DW$T$38, DW_AT_decl_file("C:\Projects\EECS_388_Test_Workspace\EECS_388_Base_Project
    1705                            .dwattr $C$DW$T$38, DW_AT_decl_line(0x70)
TI ARM Assembler PC v18.1.2 Thu Aug 23 17:26:16 2018

Tools Copyright (c) 1996-2017 Texas Instruments Incorporated
list.asm                                                             PAGE   32

    1706                            .dwattr $C$DW$T$38, DW_AT_decl_column(0x13)
    1707                    
    1708                    $C$DW$T$147     .dwtag  DW_TAG_const_type
    1709                            .dwattr $C$DW$T$147, DW_AT_type(*$C$DW$T$38)
    1710                    
    1711                    $C$DW$T$33      .dwtag  DW_TAG_typedef
    1712                            .dwattr $C$DW$T$33, DW_AT_name("UBaseType_t")
    1713                            .dwattr $C$DW$T$33, DW_AT_type(*$C$DW$T$32)
    1714                            .dwattr $C$DW$T$33, DW_AT_language(DW_LANG_C)
    1715                            .dwattr $C$DW$T$33, DW_AT_decl_file("C:\Projects\EECS_388_Test_Workspace\EECS_388_Base_Project
    1716                            .dwattr $C$DW$T$33, DW_AT_decl_line(0x6a)
    1717                            .dwattr $C$DW$T$33, DW_AT_decl_column(0x12)
    1718                    
    1719                    $C$DW$T$149     .dwtag  DW_TAG_typedef
    1720                            .dwattr $C$DW$T$149, DW_AT_name("portSTACK_TYPE")
    1721                            .dwattr $C$DW$T$149, DW_AT_type(*$C$DW$T$32)
    1722                            .dwattr $C$DW$T$149, DW_AT_language(DW_LANG_C)
    1723                            .dwattr $C$DW$T$149, DW_AT_decl_file("C:\Projects\EECS_388_Test_Workspace\EECS_388_Base_Projec
    1724                            .dwattr $C$DW$T$149, DW_AT_decl_line(0x65)
    1725                            .dwattr $C$DW$T$149, DW_AT_decl_column(0x12)
    1726                    
    1727                    $C$DW$T$150     .dwtag  DW_TAG_typedef
    1728                            .dwattr $C$DW$T$150, DW_AT_name("__useconds_t")
    1729                            .dwattr $C$DW$T$150, DW_AT_type(*$C$DW$T$11)
    1730                            .dwattr $C$DW$T$150, DW_AT_language(DW_LANG_C)
    1731                            .dwattr $C$DW$T$150, DW_AT_decl_file("C:/TI_CodeComposer/ccsv8/tools/compiler/ti-cgt-arm_18.1.
    1732                            .dwattr $C$DW$T$150, DW_AT_decl_line(0x49)
    1733                            .dwattr $C$DW$T$150, DW_AT_decl_column(0x16)
    1734                    
    1735                    $C$DW$T$28      .dwtag  DW_TAG_typedef
    1736                            .dwattr $C$DW$T$28, DW_AT_name("size_t")
    1737                            .dwattr $C$DW$T$28, DW_AT_type(*$C$DW$T$11)
    1738                            .dwattr $C$DW$T$28, DW_AT_language(DW_LANG_C)
    1739                            .dwattr $C$DW$T$28, DW_AT_decl_file("C:/TI_CodeComposer/ccsv8/tools/compiler/ti-cgt-arm_18.1.2
    1740                            .dwattr $C$DW$T$28, DW_AT_decl_line(0x68)
    1741                            .dwattr $C$DW$T$28, DW_AT_decl_column(0x19)
    1742                    
    1743                    $C$DW$T$12      .dwtag  DW_TAG_base_type
    1744                            .dwattr $C$DW$T$12, DW_AT_encoding(DW_ATE_signed)
    1745                            .dwattr $C$DW$T$12, DW_AT_name("long")
    1746                            .dwattr $C$DW$T$12, DW_AT_byte_size(0x04)
    1747                    
    1748                    $C$DW$T$151     .dwtag  DW_TAG_typedef
    1749                            .dwattr $C$DW$T$151, DW_AT_name("__key_t")
    1750                            .dwattr $C$DW$T$151, DW_AT_type(*$C$DW$T$12)
    1751                            .dwattr $C$DW$T$151, DW_AT_language(DW_LANG_C)
    1752                            .dwattr $C$DW$T$151, DW_AT_decl_file("C:/TI_CodeComposer/ccsv8/tools/compiler/ti-cgt-arm_18.1.
    1753                            .dwattr $C$DW$T$151, DW_AT_decl_line(0x37)
    1754                            .dwattr $C$DW$T$151, DW_AT_decl_column(0x0f)
    1755                    
    1756                    $C$DW$T$152     .dwtag  DW_TAG_typedef
    1757                            .dwattr $C$DW$T$152, DW_AT_name("__suseconds_t")
    1758                            .dwattr $C$DW$T$152, DW_AT_type(*$C$DW$T$12)
    1759                            .dwattr $C$DW$T$152, DW_AT_language(DW_LANG_C)
    1760                            .dwattr $C$DW$T$152, DW_AT_decl_file("C:/TI_CodeComposer/ccsv8/tools/compiler/ti-cgt-arm_18.1.
TI ARM Assembler PC v18.1.2 Thu Aug 23 17:26:16 2018

Tools Copyright (c) 1996-2017 Texas Instruments Incorporated
list.asm                                                             PAGE   33

    1761                            .dwattr $C$DW$T$152, DW_AT_decl_line(0x45)
    1762                            .dwattr $C$DW$T$152, DW_AT_decl_column(0x0f)
    1763                    
    1764                    $C$DW$T$13      .dwtag  DW_TAG_base_type
    1765                            .dwattr $C$DW$T$13, DW_AT_encoding(DW_ATE_unsigned)
    1766                            .dwattr $C$DW$T$13, DW_AT_name("unsigned long")
    1767                            .dwattr $C$DW$T$13, DW_AT_byte_size(0x04)
    1768                    
    1769                    $C$DW$T$14      .dwtag  DW_TAG_base_type
    1770                            .dwattr $C$DW$T$14, DW_AT_encoding(DW_ATE_signed)
    1771                            .dwattr $C$DW$T$14, DW_AT_name("long long")
    1772                            .dwattr $C$DW$T$14, DW_AT_byte_size(0x08)
    1773                    
    1774                    $C$DW$T$153     .dwtag  DW_TAG_typedef
    1775                            .dwattr $C$DW$T$153, DW_AT_name("__int64_t")
    1776                            .dwattr $C$DW$T$153, DW_AT_type(*$C$DW$T$14)
    1777                            .dwattr $C$DW$T$153, DW_AT_language(DW_LANG_C)
    1778                            .dwattr $C$DW$T$153, DW_AT_decl_file("C:/TI_CodeComposer/ccsv8/tools/compiler/ti-cgt-arm_18.1.
    1779                            .dwattr $C$DW$T$153, DW_AT_decl_line(0x43)
    1780                            .dwattr $C$DW$T$153, DW_AT_decl_column(0x14)
    1781                    
    1782                    $C$DW$T$154     .dwtag  DW_TAG_typedef
    1783                            .dwattr $C$DW$T$154, DW_AT_name("__blkcnt_t")
    1784                            .dwattr $C$DW$T$154, DW_AT_type(*$C$DW$T$153)
    1785                            .dwattr $C$DW$T$154, DW_AT_language(DW_LANG_C)
    1786                            .dwattr $C$DW$T$154, DW_AT_decl_file("C:/TI_CodeComposer/ccsv8/tools/compiler/ti-cgt-arm_18.1.
    1787                            .dwattr $C$DW$T$154, DW_AT_decl_line(0x2f)
    1788                            .dwattr $C$DW$T$154, DW_AT_decl_column(0x13)
    1789                    
    1790                    $C$DW$T$155     .dwtag  DW_TAG_typedef
    1791                            .dwattr $C$DW$T$155, DW_AT_name("__id_t")
    1792                            .dwattr $C$DW$T$155, DW_AT_type(*$C$DW$T$153)
    1793                            .dwattr $C$DW$T$155, DW_AT_language(DW_LANG_C)
    1794                            .dwattr $C$DW$T$155, DW_AT_decl_file("C:/TI_CodeComposer/ccsv8/tools/compiler/ti-cgt-arm_18.1.
    1795                            .dwattr $C$DW$T$155, DW_AT_decl_line(0x35)
    1796                            .dwattr $C$DW$T$155, DW_AT_decl_column(0x13)
    1797                    
    1798                    $C$DW$T$156     .dwtag  DW_TAG_typedef
    1799                            .dwattr $C$DW$T$156, DW_AT_name("__int_fast64_t")
    1800                            .dwattr $C$DW$T$156, DW_AT_type(*$C$DW$T$153)
    1801                            .dwattr $C$DW$T$156, DW_AT_language(DW_LANG_C)
    1802                            .dwattr $C$DW$T$156, DW_AT_decl_file("C:/TI_CodeComposer/ccsv8/tools/compiler/ti-cgt-arm_18.1.
    1803                            .dwattr $C$DW$T$156, DW_AT_decl_line(0x57)
    1804                            .dwattr $C$DW$T$156, DW_AT_decl_column(0x13)
    1805                    
    1806                    $C$DW$T$157     .dwtag  DW_TAG_typedef
    1807                            .dwattr $C$DW$T$157, DW_AT_name("int_fast64_t")
    1808                            .dwattr $C$DW$T$157, DW_AT_type(*$C$DW$T$156)
    1809                            .dwattr $C$DW$T$157, DW_AT_language(DW_LANG_C)
    1810                            .dwattr $C$DW$T$157, DW_AT_decl_file("C:/TI_CodeComposer/ccsv8/tools/compiler/ti-cgt-arm_18.1.
    1811                            .dwattr $C$DW$T$157, DW_AT_decl_line(0x35)
    1812                            .dwattr $C$DW$T$157, DW_AT_decl_column(0x19)
    1813                    
    1814                    $C$DW$T$158     .dwtag  DW_TAG_typedef
    1815                            .dwattr $C$DW$T$158, DW_AT_name("__int_least64_t")
TI ARM Assembler PC v18.1.2 Thu Aug 23 17:26:16 2018

Tools Copyright (c) 1996-2017 Texas Instruments Incorporated
list.asm                                                             PAGE   34

    1816                            .dwattr $C$DW$T$158, DW_AT_type(*$C$DW$T$153)
    1817                            .dwattr $C$DW$T$158, DW_AT_language(DW_LANG_C)
    1818                            .dwattr $C$DW$T$158, DW_AT_decl_file("C:/TI_CodeComposer/ccsv8/tools/compiler/ti-cgt-arm_18.1.
    1819                            .dwattr $C$DW$T$158, DW_AT_decl_line(0x5b)
    1820                            .dwattr $C$DW$T$158, DW_AT_decl_column(0x13)
    1821                    
    1822                    $C$DW$T$159     .dwtag  DW_TAG_typedef
    1823                            .dwattr $C$DW$T$159, DW_AT_name("int_least64_t")
    1824                            .dwattr $C$DW$T$159, DW_AT_type(*$C$DW$T$158)
    1825                            .dwattr $C$DW$T$159, DW_AT_language(DW_LANG_C)
    1826                            .dwattr $C$DW$T$159, DW_AT_decl_file("C:/TI_CodeComposer/ccsv8/tools/compiler/ti-cgt-arm_18.1.
    1827                            .dwattr $C$DW$T$159, DW_AT_decl_line(0x2b)
    1828                            .dwattr $C$DW$T$159, DW_AT_decl_column(0x1a)
    1829                    
    1830                    $C$DW$T$160     .dwtag  DW_TAG_typedef
    1831                            .dwattr $C$DW$T$160, DW_AT_name("__intmax_t")
    1832                            .dwattr $C$DW$T$160, DW_AT_type(*$C$DW$T$153)
    1833                            .dwattr $C$DW$T$160, DW_AT_language(DW_LANG_C)
    1834                            .dwattr $C$DW$T$160, DW_AT_decl_file("C:/TI_CodeComposer/ccsv8/tools/compiler/ti-cgt-arm_18.1.
    1835                            .dwattr $C$DW$T$160, DW_AT_decl_line(0x52)
    1836                            .dwattr $C$DW$T$160, DW_AT_decl_column(0x13)
    1837                    
    1838                    $C$DW$T$161     .dwtag  DW_TAG_typedef
    1839                            .dwattr $C$DW$T$161, DW_AT_name("intmax_t")
    1840                            .dwattr $C$DW$T$161, DW_AT_type(*$C$DW$T$160)
    1841                            .dwattr $C$DW$T$161, DW_AT_language(DW_LANG_C)
    1842                            .dwattr $C$DW$T$161, DW_AT_decl_file("C:/TI_CodeComposer/ccsv8/tools/compiler/ti-cgt-arm_18.1.
    1843                            .dwattr $C$DW$T$161, DW_AT_decl_line(0x54)
    1844                            .dwattr $C$DW$T$161, DW_AT_decl_column(0x15)
    1845                    
    1846                    $C$DW$T$162     .dwtag  DW_TAG_typedef
    1847                            .dwattr $C$DW$T$162, DW_AT_name("__off64_t")
    1848                            .dwattr $C$DW$T$162, DW_AT_type(*$C$DW$T$153)
    1849                            .dwattr $C$DW$T$162, DW_AT_language(DW_LANG_C)
    1850                            .dwattr $C$DW$T$162, DW_AT_decl_file("C:/TI_CodeComposer/ccsv8/tools/compiler/ti-cgt-arm_18.1.
    1851                            .dwattr $C$DW$T$162, DW_AT_decl_line(0x3e)
    1852                            .dwattr $C$DW$T$162, DW_AT_decl_column(0x13)
    1853                    
    1854                    $C$DW$T$163     .dwtag  DW_TAG_typedef
    1855                            .dwattr $C$DW$T$163, DW_AT_name("__off_t")
    1856                            .dwattr $C$DW$T$163, DW_AT_type(*$C$DW$T$153)
    1857                            .dwattr $C$DW$T$163, DW_AT_language(DW_LANG_C)
    1858                            .dwattr $C$DW$T$163, DW_AT_decl_file("C:/TI_CodeComposer/ccsv8/tools/compiler/ti-cgt-arm_18.1.
    1859                            .dwattr $C$DW$T$163, DW_AT_decl_line(0x3d)
    1860                            .dwattr $C$DW$T$163, DW_AT_decl_column(0x13)
    1861                    
    1862                    $C$DW$T$164     .dwtag  DW_TAG_typedef
    1863                            .dwattr $C$DW$T$164, DW_AT_name("__rlim_t")
    1864                            .dwattr $C$DW$T$164, DW_AT_type(*$C$DW$T$153)
    1865                            .dwattr $C$DW$T$164, DW_AT_language(DW_LANG_C)
    1866                            .dwattr $C$DW$T$164, DW_AT_decl_file("C:/TI_CodeComposer/ccsv8/tools/compiler/ti-cgt-arm_18.1.
    1867                            .dwattr $C$DW$T$164, DW_AT_decl_line(0x40)
    1868                            .dwattr $C$DW$T$164, DW_AT_decl_column(0x13)
    1869                    
    1870                    $C$DW$T$165     .dwtag  DW_TAG_typedef
TI ARM Assembler PC v18.1.2 Thu Aug 23 17:26:16 2018

Tools Copyright (c) 1996-2017 Texas Instruments Incorporated
list.asm                                                             PAGE   35

    1871                            .dwattr $C$DW$T$165, DW_AT_name("int64_t")
    1872                            .dwattr $C$DW$T$165, DW_AT_type(*$C$DW$T$153)
    1873                            .dwattr $C$DW$T$165, DW_AT_language(DW_LANG_C)
    1874                            .dwattr $C$DW$T$165, DW_AT_decl_file("C:/TI_CodeComposer/ccsv8/tools/compiler/ti-cgt-arm_18.1.
    1875                            .dwattr $C$DW$T$165, DW_AT_decl_line(0x33)
    1876                            .dwattr $C$DW$T$165, DW_AT_decl_column(0x14)
    1877                    
    1878                    $C$DW$T$166     .dwtag  DW_TAG_typedef
    1879                            .dwattr $C$DW$T$166, DW_AT_name("portDOUBLE")
    1880                            .dwattr $C$DW$T$166, DW_AT_type(*$C$DW$T$165)
    1881                            .dwattr $C$DW$T$166, DW_AT_language(DW_LANG_C)
    1882                            .dwattr $C$DW$T$166, DW_AT_decl_file("C:\Projects\EECS_388_Test_Workspace\EECS_388_Base_Projec
    1883                            .dwattr $C$DW$T$166, DW_AT_decl_line(0x62)
    1884                            .dwattr $C$DW$T$166, DW_AT_decl_column(0x12)
    1885                    
    1886                    $C$DW$T$15      .dwtag  DW_TAG_base_type
    1887                            .dwattr $C$DW$T$15, DW_AT_encoding(DW_ATE_unsigned)
    1888                            .dwattr $C$DW$T$15, DW_AT_name("unsigned long long")
    1889                            .dwattr $C$DW$T$15, DW_AT_byte_size(0x08)
    1890                    
    1891                    $C$DW$T$167     .dwtag  DW_TAG_typedef
    1892                            .dwattr $C$DW$T$167, DW_AT_name("__uint64_t")
    1893                            .dwattr $C$DW$T$167, DW_AT_type(*$C$DW$T$15)
    1894                            .dwattr $C$DW$T$167, DW_AT_language(DW_LANG_C)
    1895                            .dwattr $C$DW$T$167, DW_AT_decl_file("C:/TI_CodeComposer/ccsv8/tools/compiler/ti-cgt-arm_18.1.
    1896                            .dwattr $C$DW$T$167, DW_AT_decl_line(0x48)
    1897                            .dwattr $C$DW$T$167, DW_AT_decl_column(0x1c)
    1898                    
    1899                    $C$DW$T$168     .dwtag  DW_TAG_typedef
    1900                            .dwattr $C$DW$T$168, DW_AT_name("__dev_t")
    1901                            .dwattr $C$DW$T$168, DW_AT_type(*$C$DW$T$167)
    1902                            .dwattr $C$DW$T$168, DW_AT_language(DW_LANG_C)
    1903                            .dwattr $C$DW$T$168, DW_AT_decl_file("C:/TI_CodeComposer/ccsv8/tools/compiler/ti-cgt-arm_18.1.
    1904                            .dwattr $C$DW$T$168, DW_AT_decl_line(0x74)
    1905                            .dwattr $C$DW$T$168, DW_AT_decl_column(0x14)
    1906                    
    1907                    $C$DW$T$169     .dwtag  DW_TAG_typedef
    1908                            .dwattr $C$DW$T$169, DW_AT_name("__fsblkcnt_t")
    1909                            .dwattr $C$DW$T$169, DW_AT_type(*$C$DW$T$167)
    1910                            .dwattr $C$DW$T$169, DW_AT_language(DW_LANG_C)
    1911                            .dwattr $C$DW$T$169, DW_AT_decl_file("C:/TI_CodeComposer/ccsv8/tools/compiler/ti-cgt-arm_18.1.
    1912                            .dwattr $C$DW$T$169, DW_AT_decl_line(0x32)
    1913                            .dwattr $C$DW$T$169, DW_AT_decl_column(0x14)
    1914                    
    1915                    $C$DW$T$170     .dwtag  DW_TAG_typedef
    1916                            .dwattr $C$DW$T$170, DW_AT_name("__fsfilcnt_t")
    1917                            .dwattr $C$DW$T$170, DW_AT_type(*$C$DW$T$167)
    1918                            .dwattr $C$DW$T$170, DW_AT_language(DW_LANG_C)
    1919                            .dwattr $C$DW$T$170, DW_AT_decl_file("C:/TI_CodeComposer/ccsv8/tools/compiler/ti-cgt-arm_18.1.
    1920                            .dwattr $C$DW$T$170, DW_AT_decl_line(0x33)
    1921                            .dwattr $C$DW$T$170, DW_AT_decl_column(0x14)
    1922                    
    1923                    $C$DW$T$171     .dwtag  DW_TAG_typedef
    1924                            .dwattr $C$DW$T$171, DW_AT_name("__ino_t")
    1925                            .dwattr $C$DW$T$171, DW_AT_type(*$C$DW$T$167)
TI ARM Assembler PC v18.1.2 Thu Aug 23 17:26:16 2018

Tools Copyright (c) 1996-2017 Texas Instruments Incorporated
list.asm                                                             PAGE   36

    1926                            .dwattr $C$DW$T$171, DW_AT_language(DW_LANG_C)
    1927                            .dwattr $C$DW$T$171, DW_AT_decl_file("C:/TI_CodeComposer/ccsv8/tools/compiler/ti-cgt-arm_18.1.
    1928                            .dwattr $C$DW$T$171, DW_AT_decl_line(0x36)
    1929                            .dwattr $C$DW$T$171, DW_AT_decl_column(0x14)
    1930                    
    1931                    $C$DW$T$172     .dwtag  DW_TAG_typedef
    1932                            .dwattr $C$DW$T$172, DW_AT_name("__nlink_t")
    1933                            .dwattr $C$DW$T$172, DW_AT_type(*$C$DW$T$167)
    1934                            .dwattr $C$DW$T$172, DW_AT_language(DW_LANG_C)
    1935                            .dwattr $C$DW$T$172, DW_AT_decl_file("C:/TI_CodeComposer/ccsv8/tools/compiler/ti-cgt-arm_18.1.
    1936                            .dwattr $C$DW$T$172, DW_AT_decl_line(0x3c)
    1937                            .dwattr $C$DW$T$172, DW_AT_decl_column(0x14)
    1938                    
    1939                    $C$DW$T$173     .dwtag  DW_TAG_typedef
    1940                            .dwattr $C$DW$T$173, DW_AT_name("__uint_fast64_t")
    1941                            .dwattr $C$DW$T$173, DW_AT_type(*$C$DW$T$167)
    1942                            .dwattr $C$DW$T$173, DW_AT_language(DW_LANG_C)
    1943                            .dwattr $C$DW$T$173, DW_AT_decl_file("C:/TI_CodeComposer/ccsv8/tools/compiler/ti-cgt-arm_18.1.
    1944                            .dwattr $C$DW$T$173, DW_AT_decl_line(0x6c)
    1945                            .dwattr $C$DW$T$173, DW_AT_decl_column(0x14)
    1946                    
    1947                    $C$DW$T$174     .dwtag  DW_TAG_typedef
    1948                            .dwattr $C$DW$T$174, DW_AT_name("uint_fast64_t")
    1949                            .dwattr $C$DW$T$174, DW_AT_type(*$C$DW$T$173)
    1950                            .dwattr $C$DW$T$174, DW_AT_language(DW_LANG_C)
    1951                            .dwattr $C$DW$T$174, DW_AT_decl_file("C:/TI_CodeComposer/ccsv8/tools/compiler/ti-cgt-arm_18.1.
    1952                            .dwattr $C$DW$T$174, DW_AT_decl_line(0x3a)
    1953                            .dwattr $C$DW$T$174, DW_AT_decl_column(0x1a)
    1954                    
    1955                    $C$DW$T$175     .dwtag  DW_TAG_typedef
    1956                            .dwattr $C$DW$T$175, DW_AT_name("__uint_least64_t")
    1957                            .dwattr $C$DW$T$175, DW_AT_type(*$C$DW$T$167)
    1958                            .dwattr $C$DW$T$175, DW_AT_language(DW_LANG_C)
    1959                            .dwattr $C$DW$T$175, DW_AT_decl_file("C:/TI_CodeComposer/ccsv8/tools/compiler/ti-cgt-arm_18.1.
    1960                            .dwattr $C$DW$T$175, DW_AT_decl_line(0x70)
    1961                            .dwattr $C$DW$T$175, DW_AT_decl_column(0x14)
    1962                    
    1963                    $C$DW$T$176     .dwtag  DW_TAG_typedef
    1964                            .dwattr $C$DW$T$176, DW_AT_name("uint_least64_t")
    1965                            .dwattr $C$DW$T$176, DW_AT_type(*$C$DW$T$175)
    1966                            .dwattr $C$DW$T$176, DW_AT_language(DW_LANG_C)
    1967                            .dwattr $C$DW$T$176, DW_AT_decl_file("C:/TI_CodeComposer/ccsv8/tools/compiler/ti-cgt-arm_18.1.
    1968                            .dwattr $C$DW$T$176, DW_AT_decl_line(0x30)
    1969                            .dwattr $C$DW$T$176, DW_AT_decl_column(0x1a)
    1970                    
    1971                    $C$DW$T$177     .dwtag  DW_TAG_typedef
    1972                            .dwattr $C$DW$T$177, DW_AT_name("__uintmax_t")
    1973                            .dwattr $C$DW$T$177, DW_AT_type(*$C$DW$T$167)
    1974                            .dwattr $C$DW$T$177, DW_AT_language(DW_LANG_C)
    1975                            .dwattr $C$DW$T$177, DW_AT_decl_file("C:/TI_CodeComposer/ccsv8/tools/compiler/ti-cgt-arm_18.1.
    1976                            .dwattr $C$DW$T$177, DW_AT_decl_line(0x67)
    1977                            .dwattr $C$DW$T$177, DW_AT_decl_column(0x14)
    1978                    
    1979                    $C$DW$T$178     .dwtag  DW_TAG_typedef
    1980                            .dwattr $C$DW$T$178, DW_AT_name("__rman_res_t")
TI ARM Assembler PC v18.1.2 Thu Aug 23 17:26:16 2018

Tools Copyright (c) 1996-2017 Texas Instruments Incorporated
list.asm                                                             PAGE   37

    1981                            .dwattr $C$DW$T$178, DW_AT_type(*$C$DW$T$177)
    1982                            .dwattr $C$DW$T$178, DW_AT_language(DW_LANG_C)
    1983                            .dwattr $C$DW$T$178, DW_AT_decl_file("C:/TI_CodeComposer/ccsv8/tools/compiler/ti-cgt-arm_18.1.
    1984                            .dwattr $C$DW$T$178, DW_AT_decl_line(0x8f)
    1985                            .dwattr $C$DW$T$178, DW_AT_decl_column(0x19)
    1986                    
    1987                    $C$DW$T$179     .dwtag  DW_TAG_typedef
    1988                            .dwattr $C$DW$T$179, DW_AT_name("uintmax_t")
    1989                            .dwattr $C$DW$T$179, DW_AT_type(*$C$DW$T$177)
    1990                            .dwattr $C$DW$T$179, DW_AT_language(DW_LANG_C)
    1991                            .dwattr $C$DW$T$179, DW_AT_decl_file("C:/TI_CodeComposer/ccsv8/tools/compiler/ti-cgt-arm_18.1.
    1992                            .dwattr $C$DW$T$179, DW_AT_decl_line(0x58)
    1993                            .dwattr $C$DW$T$179, DW_AT_decl_column(0x16)
    1994                    
    1995                    $C$DW$T$180     .dwtag  DW_TAG_typedef
    1996                            .dwattr $C$DW$T$180, DW_AT_name("uint64_t")
    1997                            .dwattr $C$DW$T$180, DW_AT_type(*$C$DW$T$167)
    1998                            .dwattr $C$DW$T$180, DW_AT_language(DW_LANG_C)
    1999                            .dwattr $C$DW$T$180, DW_AT_decl_file("C:/TI_CodeComposer/ccsv8/tools/compiler/ti-cgt-arm_18.1.
    2000                            .dwattr $C$DW$T$180, DW_AT_decl_line(0x47)
    2001                            .dwattr $C$DW$T$180, DW_AT_decl_column(0x15)
    2002                    
    2003                    $C$DW$T$16      .dwtag  DW_TAG_base_type
    2004                            .dwattr $C$DW$T$16, DW_AT_encoding(DW_ATE_float)
    2005                            .dwattr $C$DW$T$16, DW_AT_name("float")
    2006                            .dwattr $C$DW$T$16, DW_AT_byte_size(0x04)
    2007                    
    2008                    $C$DW$T$181     .dwtag  DW_TAG_typedef
    2009                            .dwattr $C$DW$T$181, DW_AT_name("__float_t")
    2010                            .dwattr $C$DW$T$181, DW_AT_type(*$C$DW$T$16)
    2011                            .dwattr $C$DW$T$181, DW_AT_language(DW_LANG_C)
    2012                            .dwattr $C$DW$T$181, DW_AT_decl_file("C:/TI_CodeComposer/ccsv8/tools/compiler/ti-cgt-arm_18.1.
    2013                            .dwattr $C$DW$T$181, DW_AT_decl_line(0x50)
    2014                            .dwattr $C$DW$T$181, DW_AT_decl_column(0x10)
    2015                    
    2016                    $C$DW$T$182     .dwtag  DW_TAG_typedef
    2017                            .dwattr $C$DW$T$182, DW_AT_name("portFLOAT")
    2018                            .dwattr $C$DW$T$182, DW_AT_type(*$C$DW$T$16)
    2019                            .dwattr $C$DW$T$182, DW_AT_language(DW_LANG_C)
    2020                            .dwattr $C$DW$T$182, DW_AT_decl_file("C:\Projects\EECS_388_Test_Workspace\EECS_388_Base_Projec
    2021                            .dwattr $C$DW$T$182, DW_AT_decl_line(0x61)
    2022                            .dwattr $C$DW$T$182, DW_AT_decl_column(0x10)
    2023                    
    2024                    $C$DW$T$17      .dwtag  DW_TAG_base_type
    2025                            .dwattr $C$DW$T$17, DW_AT_encoding(DW_ATE_float)
    2026                            .dwattr $C$DW$T$17, DW_AT_name("double")
    2027                            .dwattr $C$DW$T$17, DW_AT_byte_size(0x08)
    2028                    
    2029                    $C$DW$T$183     .dwtag  DW_TAG_typedef
    2030                            .dwattr $C$DW$T$183, DW_AT_name("__double_t")
    2031                            .dwattr $C$DW$T$183, DW_AT_type(*$C$DW$T$17)
    2032                            .dwattr $C$DW$T$183, DW_AT_language(DW_LANG_C)
    2033                            .dwattr $C$DW$T$183, DW_AT_decl_file("C:/TI_CodeComposer/ccsv8/tools/compiler/ti-cgt-arm_18.1.
    2034                            .dwattr $C$DW$T$183, DW_AT_decl_line(0x4f)
    2035                            .dwattr $C$DW$T$183, DW_AT_decl_column(0x11)
TI ARM Assembler PC v18.1.2 Thu Aug 23 17:26:16 2018

Tools Copyright (c) 1996-2017 Texas Instruments Incorporated
list.asm                                                             PAGE   38

    2036                    
    2037                    $C$DW$T$18      .dwtag  DW_TAG_base_type
    2038                            .dwattr $C$DW$T$18, DW_AT_encoding(DW_ATE_float)
    2039                            .dwattr $C$DW$T$18, DW_AT_name("long double")
    2040                            .dwattr $C$DW$T$18, DW_AT_byte_size(0x08)
    2041                    
    2042                    $C$DW$T$184     .dwtag  DW_TAG_typedef
    2043                            .dwattr $C$DW$T$184, DW_AT_name("max_align_t")
    2044                            .dwattr $C$DW$T$184, DW_AT_type(*$C$DW$T$18)
    2045                            .dwattr $C$DW$T$184, DW_AT_language(DW_LANG_C)
    2046                            .dwattr $C$DW$T$184, DW_AT_decl_file("C:/TI_CodeComposer/ccsv8/tools/compiler/ti-cgt-arm_18.1.
    2047                            .dwattr $C$DW$T$184, DW_AT_decl_line(0x4f)
    2048                            .dwattr $C$DW$T$184, DW_AT_decl_column(0x15)
    2049                    
    2050                    
    2051                    $C$DW$T$19      .dwtag  DW_TAG_structure_type
    2052                            .dwattr $C$DW$T$19, DW_AT_name("__mq")
    2053                            .dwattr $C$DW$T$19, DW_AT_declaration
    2054                            .dwattr $C$DW$T$19, DW_AT_decl_file("C:/TI_CodeComposer/ccsv8/tools/compiler/ti-cgt-arm_18.1.2
    2055                            .dwattr $C$DW$T$19, DW_AT_decl_line(0x47)
    2056                            .dwattr $C$DW$T$19, DW_AT_decl_column(0x10)
    2057                            .dwendtag $C$DW$T$19
    2058                    
    2059                    $C$DW$T$185     .dwtag  DW_TAG_pointer_type
    2060                            .dwattr $C$DW$T$185, DW_AT_type(*$C$DW$T$19)
    2061                            .dwattr $C$DW$T$185, DW_AT_address_class(0x20)
    2062                    
    2063                    $C$DW$T$186     .dwtag  DW_TAG_typedef
    2064                            .dwattr $C$DW$T$186, DW_AT_name("__mqd_t")
    2065                            .dwattr $C$DW$T$186, DW_AT_type(*$C$DW$T$185)
    2066                            .dwattr $C$DW$T$186, DW_AT_language(DW_LANG_C)
    2067                            .dwattr $C$DW$T$186, DW_AT_decl_file("C:/TI_CodeComposer/ccsv8/tools/compiler/ti-cgt-arm_18.1.
    2068                            .dwattr $C$DW$T$186, DW_AT_decl_line(0x47)
    2069                            .dwattr $C$DW$T$186, DW_AT_decl_column(0x16)
    2070                    
    2071                    
    2072                    $C$DW$T$20      .dwtag  DW_TAG_structure_type
    2073                            .dwattr $C$DW$T$20, DW_AT_name("__timer")
    2074                            .dwattr $C$DW$T$20, DW_AT_declaration
    2075                            .dwattr $C$DW$T$20, DW_AT_decl_file("C:/TI_CodeComposer/ccsv8/tools/compiler/ti-cgt-arm_18.1.2
    2076                            .dwattr $C$DW$T$20, DW_AT_decl_line(0x46)
    2077                            .dwattr $C$DW$T$20, DW_AT_decl_column(0x10)
    2078                            .dwendtag $C$DW$T$20
    2079                    
    2080                    $C$DW$T$187     .dwtag  DW_TAG_pointer_type
    2081                            .dwattr $C$DW$T$187, DW_AT_type(*$C$DW$T$20)
    2082                            .dwattr $C$DW$T$187, DW_AT_address_class(0x20)
    2083                    
    2084                    $C$DW$T$188     .dwtag  DW_TAG_typedef
    2085                            .dwattr $C$DW$T$188, DW_AT_name("__timer_t")
    2086                            .dwattr $C$DW$T$188, DW_AT_type(*$C$DW$T$187)
    2087                            .dwattr $C$DW$T$188, DW_AT_language(DW_LANG_C)
    2088                            .dwattr $C$DW$T$188, DW_AT_decl_file("C:/TI_CodeComposer/ccsv8/tools/compiler/ti-cgt-arm_18.1.
    2089                            .dwattr $C$DW$T$188, DW_AT_decl_line(0x46)
    2090                            .dwattr $C$DW$T$188, DW_AT_decl_column(0x19)
TI ARM Assembler PC v18.1.2 Thu Aug 23 17:26:16 2018

Tools Copyright (c) 1996-2017 Texas Instruments Incorporated
list.asm                                                             PAGE   39

    2091                    
    2092                    
    2093                    $C$DW$T$30      .dwtag  DW_TAG_structure_type
    2094                            .dwattr $C$DW$T$30, DW_AT_name("__va_list_t")
    2095                            .dwattr $C$DW$T$30, DW_AT_byte_size(0x04)
    2096                    $C$DW$42        .dwtag  DW_TAG_member
    2097                            .dwattr $C$DW$42, DW_AT_type(*$C$DW$T$3)
    2098                            .dwattr $C$DW$42, DW_AT_name("__ap")
    2099                            .dwattr $C$DW$42, DW_AT_TI_symbol_name("__ap")
    2100                            .dwattr $C$DW$42, DW_AT_data_member_location[DW_OP_plus_uconst 0x0]
    2101                            .dwattr $C$DW$42, DW_AT_accessibility(DW_ACCESS_public)
    2102                            .dwattr $C$DW$42, DW_AT_decl_file("C:/TI_CodeComposer/ccsv8/tools/compiler/ti-cgt-arm_18.1.2.L
    2103                            .dwattr $C$DW$42, DW_AT_decl_line(0x88)
    2104                            .dwattr $C$DW$42, DW_AT_decl_column(0x0c)
    2105                    
    2106                            .dwattr $C$DW$T$30, DW_AT_decl_file("C:/TI_CodeComposer/ccsv8/tools/compiler/ti-cgt-arm_18.1.2
    2107                            .dwattr $C$DW$T$30, DW_AT_decl_line(0x87)
    2108                            .dwattr $C$DW$T$30, DW_AT_decl_column(0x10)
    2109                            .dwendtag $C$DW$T$30
    2110                    
    2111                    $C$DW$T$189     .dwtag  DW_TAG_typedef
    2112                            .dwattr $C$DW$T$189, DW_AT_name("__va_list")
    2113                            .dwattr $C$DW$T$189, DW_AT_type(*$C$DW$T$30)
    2114                            .dwattr $C$DW$T$189, DW_AT_language(DW_LANG_C)
    2115                            .dwattr $C$DW$T$189, DW_AT_decl_file("C:/TI_CodeComposer/ccsv8/tools/compiler/ti-cgt-arm_18.1.
    2116                            .dwattr $C$DW$T$189, DW_AT_decl_line(0x89)
    2117                            .dwattr $C$DW$T$189, DW_AT_decl_column(0x03)
    2118                    
    2119                    $C$DW$T$190     .dwtag  DW_TAG_typedef
    2120                            .dwattr $C$DW$T$190, DW_AT_name("va_list")
    2121                            .dwattr $C$DW$T$190, DW_AT_type(*$C$DW$T$189)
    2122                            .dwattr $C$DW$T$190, DW_AT_language(DW_LANG_C)
    2123                            .dwattr $C$DW$T$190, DW_AT_decl_file("C:/TI_CodeComposer/ccsv8/tools/compiler/ti-cgt-arm_18.1.
    2124                            .dwattr $C$DW$T$190, DW_AT_decl_line(0x33)
    2125                            .dwattr $C$DW$T$190, DW_AT_decl_column(0x13)
    2126                    
    2127                    
    2128                    $C$DW$T$37      .dwtag  DW_TAG_structure_type
    2129                            .dwattr $C$DW$T$37, DW_AT_name("xLIST")
    2130                            .dwattr $C$DW$T$37, DW_AT_byte_size(0x14)
    2131                    $C$DW$43        .dwtag  DW_TAG_member
    2132                            .dwattr $C$DW$43, DW_AT_type(*$C$DW$T$33)
    2133                            .dwattr $C$DW$43, DW_AT_name("uxNumberOfItems")
    2134                            .dwattr $C$DW$43, DW_AT_TI_symbol_name("uxNumberOfItems")
    2135                            .dwattr $C$DW$43, DW_AT_data_member_location[DW_OP_plus_uconst 0x0]
    2136                            .dwattr $C$DW$43, DW_AT_accessibility(DW_ACCESS_public)
    2137                            .dwattr $C$DW$43, DW_AT_decl_file("C:\Projects\EECS_388_Test_Workspace\EECS_388_Base_Project_F
    2138                            .dwattr $C$DW$43, DW_AT_decl_line(0xd0)
    2139                            .dwattr $C$DW$43, DW_AT_decl_column(0x22)
    2140                    
    2141                    $C$DW$44        .dwtag  DW_TAG_member
    2142                            .dwattr $C$DW$44, DW_AT_type(*$C$DW$T$35)
    2143                            .dwattr $C$DW$44, DW_AT_name("pxIndex")
    2144                            .dwattr $C$DW$44, DW_AT_TI_symbol_name("pxIndex")
    2145                            .dwattr $C$DW$44, DW_AT_data_member_location[DW_OP_plus_uconst 0x4]
TI ARM Assembler PC v18.1.2 Thu Aug 23 17:26:16 2018

Tools Copyright (c) 1996-2017 Texas Instruments Incorporated
list.asm                                                             PAGE   40

    2146                            .dwattr $C$DW$44, DW_AT_accessibility(DW_ACCESS_public)
    2147                            .dwattr $C$DW$44, DW_AT_decl_file("C:\Projects\EECS_388_Test_Workspace\EECS_388_Base_Project_F
    2148                            .dwattr $C$DW$44, DW_AT_decl_line(0xd1)
    2149                            .dwattr $C$DW$44, DW_AT_decl_column(0x23)
    2150                    
    2151                    $C$DW$45        .dwtag  DW_TAG_member
    2152                            .dwattr $C$DW$45, DW_AT_type(*$C$DW$T$36)
    2153                            .dwattr $C$DW$45, DW_AT_name("xListEnd")
    2154                            .dwattr $C$DW$45, DW_AT_TI_symbol_name("xListEnd")
    2155                            .dwattr $C$DW$45, DW_AT_data_member_location[DW_OP_plus_uconst 0x8]
    2156                            .dwattr $C$DW$45, DW_AT_accessibility(DW_ACCESS_public)
    2157                            .dwattr $C$DW$45, DW_AT_decl_file("C:\Projects\EECS_388_Test_Workspace\EECS_388_Base_Project_F
    2158                            .dwattr $C$DW$45, DW_AT_decl_line(0xd2)
    2159                            .dwattr $C$DW$45, DW_AT_decl_column(0x11)
    2160                    
    2161                            .dwattr $C$DW$T$37, DW_AT_decl_file("C:\Projects\EECS_388_Test_Workspace\EECS_388_Base_Project
    2162                            .dwattr $C$DW$T$37, DW_AT_decl_line(0xcd)
    2163                            .dwattr $C$DW$T$37, DW_AT_decl_column(0x10)
    2164                            .dwendtag $C$DW$T$37
    2165                    
    2166                    $C$DW$T$47      .dwtag  DW_TAG_typedef
    2167                            .dwattr $C$DW$T$47, DW_AT_name("List_t")
    2168                            .dwattr $C$DW$T$47, DW_AT_type(*$C$DW$T$37)
    2169                            .dwattr $C$DW$T$47, DW_AT_language(DW_LANG_C)
    2170                            .dwattr $C$DW$T$47, DW_AT_decl_file("C:\Projects\EECS_388_Test_Workspace\EECS_388_Base_Project
    2171                            .dwattr $C$DW$T$47, DW_AT_decl_line(0xd4)
    2172                            .dwattr $C$DW$T$47, DW_AT_decl_column(0x03)
    2173                    
    2174                    $C$DW$T$48      .dwtag  DW_TAG_pointer_type
    2175                            .dwattr $C$DW$T$48, DW_AT_type(*$C$DW$T$47)
    2176                            .dwattr $C$DW$T$48, DW_AT_address_class(0x20)
    2177                    
    2178                    $C$DW$T$49      .dwtag  DW_TAG_const_type
    2179                            .dwattr $C$DW$T$49, DW_AT_type(*$C$DW$T$48)
    2180                    
    2181                    
    2182                    $C$DW$T$40      .dwtag  DW_TAG_structure_type
    2183                            .dwattr $C$DW$T$40, DW_AT_name("xLIST_ITEM")
    2184                            .dwattr $C$DW$T$40, DW_AT_byte_size(0x14)
    2185                    $C$DW$46        .dwtag  DW_TAG_member
    2186                            .dwattr $C$DW$46, DW_AT_type(*$C$DW$T$38)
    2187                            .dwattr $C$DW$46, DW_AT_name("xItemValue")
    2188                            .dwattr $C$DW$46, DW_AT_TI_symbol_name("xItemValue")
    2189                            .dwattr $C$DW$46, DW_AT_data_member_location[DW_OP_plus_uconst 0x0]
    2190                            .dwattr $C$DW$46, DW_AT_accessibility(DW_ACCESS_public)
    2191                            .dwattr $C$DW$46, DW_AT_decl_file("C:\Projects\EECS_388_Test_Workspace\EECS_388_Base_Project_F
    2192                            .dwattr $C$DW$46, DW_AT_decl_line(0xb8)
    2193                            .dwattr $C$DW$46, DW_AT_decl_column(0x21)
    2194                    
    2195                    $C$DW$47        .dwtag  DW_TAG_member
    2196                            .dwattr $C$DW$47, DW_AT_type(*$C$DW$T$39)
    2197                            .dwattr $C$DW$47, DW_AT_name("pxNext")
    2198                            .dwattr $C$DW$47, DW_AT_TI_symbol_name("pxNext")
    2199                            .dwattr $C$DW$47, DW_AT_data_member_location[DW_OP_plus_uconst 0x4]
    2200                            .dwattr $C$DW$47, DW_AT_accessibility(DW_ACCESS_public)
TI ARM Assembler PC v18.1.2 Thu Aug 23 17:26:16 2018

Tools Copyright (c) 1996-2017 Texas Instruments Incorporated
list.asm                                                             PAGE   41

    2201                            .dwattr $C$DW$47, DW_AT_decl_file("C:\Projects\EECS_388_Test_Workspace\EECS_388_Base_Project_F
    2202                            .dwattr $C$DW$47, DW_AT_decl_line(0xb9)
    2203                            .dwattr $C$DW$47, DW_AT_decl_column(0x2a)
    2204                    
    2205                    $C$DW$48        .dwtag  DW_TAG_member
    2206                            .dwattr $C$DW$48, DW_AT_type(*$C$DW$T$39)
    2207                            .dwattr $C$DW$48, DW_AT_name("pxPrevious")
    2208                            .dwattr $C$DW$48, DW_AT_TI_symbol_name("pxPrevious")
    2209                            .dwattr $C$DW$48, DW_AT_data_member_location[DW_OP_plus_uconst 0x8]
    2210                            .dwattr $C$DW$48, DW_AT_accessibility(DW_ACCESS_public)
    2211                            .dwattr $C$DW$48, DW_AT_decl_file("C:\Projects\EECS_388_Test_Workspace\EECS_388_Base_Project_F
    2212                            .dwattr $C$DW$48, DW_AT_decl_line(0xba)
    2213                            .dwattr $C$DW$48, DW_AT_decl_column(0x2a)
    2214                    
    2215                    $C$DW$49        .dwtag  DW_TAG_member
    2216                            .dwattr $C$DW$49, DW_AT_type(*$C$DW$T$3)
    2217                            .dwattr $C$DW$49, DW_AT_name("pvOwner")
    2218                            .dwattr $C$DW$49, DW_AT_TI_symbol_name("pvOwner")
    2219                            .dwattr $C$DW$49, DW_AT_data_member_location[DW_OP_plus_uconst 0xc]
    2220                            .dwattr $C$DW$49, DW_AT_accessibility(DW_ACCESS_public)
    2221                            .dwattr $C$DW$49, DW_AT_decl_file("C:\Projects\EECS_388_Test_Workspace\EECS_388_Base_Project_F
    2222                            .dwattr $C$DW$49, DW_AT_decl_line(0xbb)
    2223                            .dwattr $C$DW$49, DW_AT_decl_column(0x09)
    2224                    
    2225                    $C$DW$50        .dwtag  DW_TAG_member
    2226                            .dwattr $C$DW$50, DW_AT_type(*$C$DW$T$3)
    2227                            .dwattr $C$DW$50, DW_AT_name("pvContainer")
    2228                            .dwattr $C$DW$50, DW_AT_TI_symbol_name("pvContainer")
    2229                            .dwattr $C$DW$50, DW_AT_data_member_location[DW_OP_plus_uconst 0x10]
    2230                            .dwattr $C$DW$50, DW_AT_accessibility(DW_ACCESS_public)
    2231                            .dwattr $C$DW$50, DW_AT_decl_file("C:\Projects\EECS_388_Test_Workspace\EECS_388_Base_Project_F
    2232                            .dwattr $C$DW$50, DW_AT_decl_line(0xbc)
    2233                            .dwattr $C$DW$50, DW_AT_decl_column(0x1d)
    2234                    
    2235                            .dwattr $C$DW$T$40, DW_AT_decl_file("C:\Projects\EECS_388_Test_Workspace\EECS_388_Base_Project
    2236                            .dwattr $C$DW$T$40, DW_AT_decl_line(0xb5)
    2237                            .dwattr $C$DW$T$40, DW_AT_decl_column(0x08)
    2238                            .dwendtag $C$DW$T$40
    2239                    
    2240                    $C$DW$T$34      .dwtag  DW_TAG_typedef
    2241                            .dwattr $C$DW$T$34, DW_AT_name("ListItem_t")
    2242                            .dwattr $C$DW$T$34, DW_AT_type(*$C$DW$T$40)
    2243                            .dwattr $C$DW$T$34, DW_AT_language(DW_LANG_C)
    2244                            .dwattr $C$DW$T$34, DW_AT_decl_file("C:\Projects\EECS_388_Test_Workspace\EECS_388_Base_Project
    2245                            .dwattr $C$DW$T$34, DW_AT_decl_line(0xbf)
    2246                            .dwattr $C$DW$T$34, DW_AT_decl_column(0x1b)
    2247                    
    2248                    $C$DW$T$35      .dwtag  DW_TAG_pointer_type
    2249                            .dwattr $C$DW$T$35, DW_AT_type(*$C$DW$T$34)
    2250                            .dwattr $C$DW$T$35, DW_AT_address_class(0x20)
    2251                    
    2252                    $C$DW$T$51      .dwtag  DW_TAG_const_type
    2253                            .dwattr $C$DW$T$51, DW_AT_type(*$C$DW$T$35)
    2254                    
    2255                    $C$DW$T$39      .dwtag  DW_TAG_pointer_type
TI ARM Assembler PC v18.1.2 Thu Aug 23 17:26:16 2018

Tools Copyright (c) 1996-2017 Texas Instruments Incorporated
list.asm                                                             PAGE   42

    2256                            .dwattr $C$DW$T$39, DW_AT_type(*$C$DW$T$40)
    2257                            .dwattr $C$DW$T$39, DW_AT_address_class(0x20)
    2258                    
    2259                    
    2260                    $C$DW$T$41      .dwtag  DW_TAG_structure_type
    2261                            .dwattr $C$DW$T$41, DW_AT_name("xMINI_LIST_ITEM")
    2262                            .dwattr $C$DW$T$41, DW_AT_byte_size(0x0c)
    2263                    $C$DW$51        .dwtag  DW_TAG_member
    2264                            .dwattr $C$DW$51, DW_AT_type(*$C$DW$T$38)
    2265                            .dwattr $C$DW$51, DW_AT_name("xItemValue")
    2266                            .dwattr $C$DW$51, DW_AT_TI_symbol_name("xItemValue")
    2267                            .dwattr $C$DW$51, DW_AT_data_member_location[DW_OP_plus_uconst 0x0]
    2268                            .dwattr $C$DW$51, DW_AT_accessibility(DW_ACCESS_public)
    2269                            .dwattr $C$DW$51, DW_AT_decl_file("C:\Projects\EECS_388_Test_Workspace\EECS_388_Base_Project_F
    2270                            .dwattr $C$DW$51, DW_AT_decl_line(0xc4)
    2271                            .dwattr $C$DW$51, DW_AT_decl_column(0x21)
    2272                    
    2273                    $C$DW$52        .dwtag  DW_TAG_member
    2274                            .dwattr $C$DW$52, DW_AT_type(*$C$DW$T$39)
    2275                            .dwattr $C$DW$52, DW_AT_name("pxNext")
    2276                            .dwattr $C$DW$52, DW_AT_TI_symbol_name("pxNext")
    2277                            .dwattr $C$DW$52, DW_AT_data_member_location[DW_OP_plus_uconst 0x4]
    2278                            .dwattr $C$DW$52, DW_AT_accessibility(DW_ACCESS_public)
    2279                            .dwattr $C$DW$52, DW_AT_decl_file("C:\Projects\EECS_388_Test_Workspace\EECS_388_Base_Project_F
    2280                            .dwattr $C$DW$52, DW_AT_decl_line(0xc5)
    2281                            .dwattr $C$DW$52, DW_AT_decl_column(0x2a)
    2282                    
    2283                    $C$DW$53        .dwtag  DW_TAG_member
    2284                            .dwattr $C$DW$53, DW_AT_type(*$C$DW$T$39)
    2285                            .dwattr $C$DW$53, DW_AT_name("pxPrevious")
    2286                            .dwattr $C$DW$53, DW_AT_TI_symbol_name("pxPrevious")
    2287                            .dwattr $C$DW$53, DW_AT_data_member_location[DW_OP_plus_uconst 0x8]
    2288                            .dwattr $C$DW$53, DW_AT_accessibility(DW_ACCESS_public)
    2289                            .dwattr $C$DW$53, DW_AT_decl_file("C:\Projects\EECS_388_Test_Workspace\EECS_388_Base_Project_F
    2290                            .dwattr $C$DW$53, DW_AT_decl_line(0xc6)
    2291                            .dwattr $C$DW$53, DW_AT_decl_column(0x2a)
    2292                    
    2293                            .dwattr $C$DW$T$41, DW_AT_decl_file("C:\Projects\EECS_388_Test_Workspace\EECS_388_Base_Project
    2294                            .dwattr $C$DW$T$41, DW_AT_decl_line(0xc1)
    2295                            .dwattr $C$DW$T$41, DW_AT_decl_column(0x08)
    2296                            .dwendtag $C$DW$T$41
    2297                    
    2298                    $C$DW$T$36      .dwtag  DW_TAG_typedef
    2299                            .dwattr $C$DW$T$36, DW_AT_name("MiniListItem_t")
    2300                            .dwattr $C$DW$T$36, DW_AT_type(*$C$DW$T$41)
    2301                            .dwattr $C$DW$T$36, DW_AT_language(DW_LANG_C)
    2302                            .dwattr $C$DW$T$36, DW_AT_decl_file("C:\Projects\EECS_388_Test_Workspace\EECS_388_Base_Project
    2303                            .dwattr $C$DW$T$36, DW_AT_decl_line(0xc8)
    2304                            .dwattr $C$DW$T$36, DW_AT_decl_column(0x20)
    2305                    
    2306                            .dwattr $C$DW$CU, DW_AT_language(DW_LANG_C)
    2307                    
    2308                    ;***************************************************************
    2309                    ;* DWARF CIE ENTRIES                                           *
    2310                    ;***************************************************************
TI ARM Assembler PC v18.1.2 Thu Aug 23 17:26:16 2018

Tools Copyright (c) 1996-2017 Texas Instruments Incorporated
list.asm                                                             PAGE   43

    2311                    
    2312                    $C$DW$CIE       .dwcie 14
    2313                            .dwcfi  cfa_register, 13
    2314                            .dwcfi  cfa_offset, 0
    2315                            .dwcfi  same_value, 4
    2316                            .dwcfi  same_value, 5
    2317                            .dwcfi  same_value, 6
    2318                            .dwcfi  same_value, 7
    2319                            .dwcfi  same_value, 8
    2320                            .dwcfi  same_value, 9
    2321                            .dwcfi  same_value, 10
    2322                            .dwcfi  same_value, 11
    2323                            .dwcfi  same_value, 80
    2324                            .dwcfi  same_value, 81
    2325                            .dwcfi  same_value, 82
    2326                            .dwcfi  same_value, 83
    2327                            .dwcfi  same_value, 84
    2328                            .dwcfi  same_value, 85
    2329                            .dwcfi  same_value, 86
    2330                            .dwcfi  same_value, 87
    2331                            .dwcfi  same_value, 88
    2332                            .dwcfi  same_value, 89
    2333                            .dwcfi  same_value, 90
    2334                            .dwcfi  same_value, 91
    2335                            .dwcfi  same_value, 92
    2336                            .dwcfi  same_value, 93
    2337                            .dwcfi  same_value, 94
    2338                            .dwcfi  same_value, 95
    2339                            .dwendentry
    2340                    
    2341                    ;***************************************************************
    2342                    ;* DWARF REGISTER MAP                                          *
    2343                    ;***************************************************************
    2344                    
    2345                    $C$DW$54        .dwtag  DW_TAG_TI_assign_register
    2346                            .dwattr $C$DW$54, DW_AT_name("A1")
    2347                            .dwattr $C$DW$54, DW_AT_location[DW_OP_reg0]
    2348                    
    2349                    $C$DW$55        .dwtag  DW_TAG_TI_assign_register
    2350                            .dwattr $C$DW$55, DW_AT_name("A2")
    2351                            .dwattr $C$DW$55, DW_AT_location[DW_OP_reg1]
    2352                    
    2353                    $C$DW$56        .dwtag  DW_TAG_TI_assign_register
    2354                            .dwattr $C$DW$56, DW_AT_name("A3")
    2355                            .dwattr $C$DW$56, DW_AT_location[DW_OP_reg2]
    2356                    
    2357                    $C$DW$57        .dwtag  DW_TAG_TI_assign_register
    2358                            .dwattr $C$DW$57, DW_AT_name("A4")
    2359                            .dwattr $C$DW$57, DW_AT_location[DW_OP_reg3]
    2360                    
    2361                    $C$DW$58        .dwtag  DW_TAG_TI_assign_register
    2362                            .dwattr $C$DW$58, DW_AT_name("V1")
    2363                            .dwattr $C$DW$58, DW_AT_location[DW_OP_reg4]
    2364                    
    2365                    $C$DW$59        .dwtag  DW_TAG_TI_assign_register
TI ARM Assembler PC v18.1.2 Thu Aug 23 17:26:16 2018

Tools Copyright (c) 1996-2017 Texas Instruments Incorporated
list.asm                                                             PAGE   44

    2366                            .dwattr $C$DW$59, DW_AT_name("V2")
    2367                            .dwattr $C$DW$59, DW_AT_location[DW_OP_reg5]
    2368                    
    2369                    $C$DW$60        .dwtag  DW_TAG_TI_assign_register
    2370                            .dwattr $C$DW$60, DW_AT_name("V3")
    2371                            .dwattr $C$DW$60, DW_AT_location[DW_OP_reg6]
    2372                    
    2373                    $C$DW$61        .dwtag  DW_TAG_TI_assign_register
    2374                            .dwattr $C$DW$61, DW_AT_name("V4")
    2375                            .dwattr $C$DW$61, DW_AT_location[DW_OP_reg7]
    2376                    
    2377                    $C$DW$62        .dwtag  DW_TAG_TI_assign_register
    2378                            .dwattr $C$DW$62, DW_AT_name("V5")
    2379                            .dwattr $C$DW$62, DW_AT_location[DW_OP_reg8]
    2380                    
    2381                    $C$DW$63        .dwtag  DW_TAG_TI_assign_register
    2382                            .dwattr $C$DW$63, DW_AT_name("V6")
    2383                            .dwattr $C$DW$63, DW_AT_location[DW_OP_reg9]
    2384                    
    2385                    $C$DW$64        .dwtag  DW_TAG_TI_assign_register
    2386                            .dwattr $C$DW$64, DW_AT_name("V7")
    2387                            .dwattr $C$DW$64, DW_AT_location[DW_OP_reg10]
    2388                    
    2389                    $C$DW$65        .dwtag  DW_TAG_TI_assign_register
    2390                            .dwattr $C$DW$65, DW_AT_name("V8")
    2391                            .dwattr $C$DW$65, DW_AT_location[DW_OP_reg11]
    2392                    
    2393                    $C$DW$66        .dwtag  DW_TAG_TI_assign_register
    2394                            .dwattr $C$DW$66, DW_AT_name("V9")
    2395                            .dwattr $C$DW$66, DW_AT_location[DW_OP_reg12]
    2396                    
    2397                    $C$DW$67        .dwtag  DW_TAG_TI_assign_register
    2398                            .dwattr $C$DW$67, DW_AT_name("SP")
    2399                            .dwattr $C$DW$67, DW_AT_location[DW_OP_reg13]
    2400                    
    2401                    $C$DW$68        .dwtag  DW_TAG_TI_assign_register
    2402                            .dwattr $C$DW$68, DW_AT_name("LR")
    2403                            .dwattr $C$DW$68, DW_AT_location[DW_OP_reg14]
    2404                    
    2405                    $C$DW$69        .dwtag  DW_TAG_TI_assign_register
    2406                            .dwattr $C$DW$69, DW_AT_name("PC")
    2407                            .dwattr $C$DW$69, DW_AT_location[DW_OP_reg15]
    2408                    
    2409                    $C$DW$70        .dwtag  DW_TAG_TI_assign_register
    2410                            .dwattr $C$DW$70, DW_AT_name("SR")
    2411                            .dwattr $C$DW$70, DW_AT_location[DW_OP_reg17]
    2412                    
    2413                    $C$DW$71        .dwtag  DW_TAG_TI_assign_register
    2414                            .dwattr $C$DW$71, DW_AT_name("AP")
    2415                            .dwattr $C$DW$71, DW_AT_location[DW_OP_reg7]
    2416                    
    2417                    $C$DW$72        .dwtag  DW_TAG_TI_assign_register
    2418                            .dwattr $C$DW$72, DW_AT_name("D0")
    2419                            .dwattr $C$DW$72, DW_AT_location[DW_OP_regx 0x40]
    2420                    
TI ARM Assembler PC v18.1.2 Thu Aug 23 17:26:16 2018

Tools Copyright (c) 1996-2017 Texas Instruments Incorporated
list.asm                                                             PAGE   45

    2421                    $C$DW$73        .dwtag  DW_TAG_TI_assign_register
    2422                            .dwattr $C$DW$73, DW_AT_name("D0_hi")
    2423                            .dwattr $C$DW$73, DW_AT_location[DW_OP_regx 0x41]
    2424                    
    2425                    $C$DW$74        .dwtag  DW_TAG_TI_assign_register
    2426                            .dwattr $C$DW$74, DW_AT_name("D1")
    2427                            .dwattr $C$DW$74, DW_AT_location[DW_OP_regx 0x42]
    2428                    
    2429                    $C$DW$75        .dwtag  DW_TAG_TI_assign_register
    2430                            .dwattr $C$DW$75, DW_AT_name("D1_hi")
    2431                            .dwattr $C$DW$75, DW_AT_location[DW_OP_regx 0x43]
    2432                    
    2433                    $C$DW$76        .dwtag  DW_TAG_TI_assign_register
    2434                            .dwattr $C$DW$76, DW_AT_name("D2")
    2435                            .dwattr $C$DW$76, DW_AT_location[DW_OP_regx 0x44]
    2436                    
    2437                    $C$DW$77        .dwtag  DW_TAG_TI_assign_register
    2438                            .dwattr $C$DW$77, DW_AT_name("D2_hi")
    2439                            .dwattr $C$DW$77, DW_AT_location[DW_OP_regx 0x45]
    2440                    
    2441                    $C$DW$78        .dwtag  DW_TAG_TI_assign_register
    2442                            .dwattr $C$DW$78, DW_AT_name("D3")
    2443                            .dwattr $C$DW$78, DW_AT_location[DW_OP_regx 0x46]
    2444                    
    2445                    $C$DW$79        .dwtag  DW_TAG_TI_assign_register
    2446                            .dwattr $C$DW$79, DW_AT_name("D3_hi")
    2447                            .dwattr $C$DW$79, DW_AT_location[DW_OP_regx 0x47]
    2448                    
    2449                    $C$DW$80        .dwtag  DW_TAG_TI_assign_register
    2450                            .dwattr $C$DW$80, DW_AT_name("D4")
    2451                            .dwattr $C$DW$80, DW_AT_location[DW_OP_regx 0x48]
    2452                    
    2453                    $C$DW$81        .dwtag  DW_TAG_TI_assign_register
    2454                            .dwattr $C$DW$81, DW_AT_name("D4_hi")
    2455                            .dwattr $C$DW$81, DW_AT_location[DW_OP_regx 0x49]
    2456                    
    2457                    $C$DW$82        .dwtag  DW_TAG_TI_assign_register
    2458                            .dwattr $C$DW$82, DW_AT_name("D5")
    2459                            .dwattr $C$DW$82, DW_AT_location[DW_OP_regx 0x4a]
    2460                    
    2461                    $C$DW$83        .dwtag  DW_TAG_TI_assign_register
    2462                            .dwattr $C$DW$83, DW_AT_name("D5_hi")
    2463                            .dwattr $C$DW$83, DW_AT_location[DW_OP_regx 0x4b]
    2464                    
    2465                    $C$DW$84        .dwtag  DW_TAG_TI_assign_register
    2466                            .dwattr $C$DW$84, DW_AT_name("D6")
    2467                            .dwattr $C$DW$84, DW_AT_location[DW_OP_regx 0x4c]
    2468                    
    2469                    $C$DW$85        .dwtag  DW_TAG_TI_assign_register
    2470                            .dwattr $C$DW$85, DW_AT_name("D6_hi")
    2471                            .dwattr $C$DW$85, DW_AT_location[DW_OP_regx 0x4d]
    2472                    
    2473                    $C$DW$86        .dwtag  DW_TAG_TI_assign_register
    2474                            .dwattr $C$DW$86, DW_AT_name("D7")
    2475                            .dwattr $C$DW$86, DW_AT_location[DW_OP_regx 0x4e]
TI ARM Assembler PC v18.1.2 Thu Aug 23 17:26:16 2018

Tools Copyright (c) 1996-2017 Texas Instruments Incorporated
list.asm                                                             PAGE   46

    2476                    
    2477                    $C$DW$87        .dwtag  DW_TAG_TI_assign_register
    2478                            .dwattr $C$DW$87, DW_AT_name("D7_hi")
    2479                            .dwattr $C$DW$87, DW_AT_location[DW_OP_regx 0x4f]
    2480                    
    2481                    $C$DW$88        .dwtag  DW_TAG_TI_assign_register
    2482                            .dwattr $C$DW$88, DW_AT_name("D8")
    2483                            .dwattr $C$DW$88, DW_AT_location[DW_OP_regx 0x50]
    2484                    
    2485                    $C$DW$89        .dwtag  DW_TAG_TI_assign_register
    2486                            .dwattr $C$DW$89, DW_AT_name("D8_hi")
    2487                            .dwattr $C$DW$89, DW_AT_location[DW_OP_regx 0x51]
    2488                    
    2489                    $C$DW$90        .dwtag  DW_TAG_TI_assign_register
    2490                            .dwattr $C$DW$90, DW_AT_name("D9")
    2491                            .dwattr $C$DW$90, DW_AT_location[DW_OP_regx 0x52]
    2492                    
    2493                    $C$DW$91        .dwtag  DW_TAG_TI_assign_register
    2494                            .dwattr $C$DW$91, DW_AT_name("D9_hi")
    2495                            .dwattr $C$DW$91, DW_AT_location[DW_OP_regx 0x53]
    2496                    
    2497                    $C$DW$92        .dwtag  DW_TAG_TI_assign_register
    2498                            .dwattr $C$DW$92, DW_AT_name("D10")
    2499                            .dwattr $C$DW$92, DW_AT_location[DW_OP_regx 0x54]
    2500                    
    2501                    $C$DW$93        .dwtag  DW_TAG_TI_assign_register
    2502                            .dwattr $C$DW$93, DW_AT_name("D10_hi")
    2503                            .dwattr $C$DW$93, DW_AT_location[DW_OP_regx 0x55]
    2504                    
    2505                    $C$DW$94        .dwtag  DW_TAG_TI_assign_register
    2506                            .dwattr $C$DW$94, DW_AT_name("D11")
    2507                            .dwattr $C$DW$94, DW_AT_location[DW_OP_regx 0x56]
    2508                    
    2509                    $C$DW$95        .dwtag  DW_TAG_TI_assign_register
    2510                            .dwattr $C$DW$95, DW_AT_name("D11_hi")
    2511                            .dwattr $C$DW$95, DW_AT_location[DW_OP_regx 0x57]
    2512                    
    2513                    $C$DW$96        .dwtag  DW_TAG_TI_assign_register
    2514                            .dwattr $C$DW$96, DW_AT_name("D12")
    2515                            .dwattr $C$DW$96, DW_AT_location[DW_OP_regx 0x58]
    2516                    
    2517                    $C$DW$97        .dwtag  DW_TAG_TI_assign_register
    2518                            .dwattr $C$DW$97, DW_AT_name("D12_hi")
    2519                            .dwattr $C$DW$97, DW_AT_location[DW_OP_regx 0x59]
    2520                    
    2521                    $C$DW$98        .dwtag  DW_TAG_TI_assign_register
    2522                            .dwattr $C$DW$98, DW_AT_name("D13")
    2523                            .dwattr $C$DW$98, DW_AT_location[DW_OP_regx 0x5a]
    2524                    
    2525                    $C$DW$99        .dwtag  DW_TAG_TI_assign_register
    2526                            .dwattr $C$DW$99, DW_AT_name("D13_hi")
    2527                            .dwattr $C$DW$99, DW_AT_location[DW_OP_regx 0x5b]
    2528                    
    2529                    $C$DW$100       .dwtag  DW_TAG_TI_assign_register
    2530                            .dwattr $C$DW$100, DW_AT_name("D14")
TI ARM Assembler PC v18.1.2 Thu Aug 23 17:26:16 2018

Tools Copyright (c) 1996-2017 Texas Instruments Incorporated
list.asm                                                             PAGE   47

    2531                            .dwattr $C$DW$100, DW_AT_location[DW_OP_regx 0x5c]
    2532                    
    2533                    $C$DW$101       .dwtag  DW_TAG_TI_assign_register
    2534                            .dwattr $C$DW$101, DW_AT_name("D14_hi")
    2535                            .dwattr $C$DW$101, DW_AT_location[DW_OP_regx 0x5d]
    2536                    
    2537                    $C$DW$102       .dwtag  DW_TAG_TI_assign_register
    2538                            .dwattr $C$DW$102, DW_AT_name("D15")
    2539                            .dwattr $C$DW$102, DW_AT_location[DW_OP_regx 0x5e]
    2540                    
    2541                    $C$DW$103       .dwtag  DW_TAG_TI_assign_register
    2542                            .dwattr $C$DW$103, DW_AT_name("D15_hi")
    2543                            .dwattr $C$DW$103, DW_AT_location[DW_OP_regx 0x5f]
    2544                    
    2545                    $C$DW$104       .dwtag  DW_TAG_TI_assign_register
    2546                            .dwattr $C$DW$104, DW_AT_name("FPEXC")
    2547                            .dwattr $C$DW$104, DW_AT_location[DW_OP_reg18]
    2548                    
    2549                    $C$DW$105       .dwtag  DW_TAG_TI_assign_register
    2550                            .dwattr $C$DW$105, DW_AT_name("FPSCR")
    2551                            .dwattr $C$DW$105, DW_AT_location[DW_OP_reg19]
    2552                    
    2553                            .dwendtag $C$DW$CU
    2554                    

--------------------------
Thumb2 Statistics
--------------------------
Number of Thumb2 ins converted to Thumb = 0 (0%)
Number of Thumb ins in input = 155 (95%)
Number of Thumb2 ins encoded as Thumb2 = 7 (100%)
Number of Thumb2 ins converted to 2 OPND Thumb = 11


No Assembly Errors, No Assembly Warnings
