TI ARM Assembler PC v18.1.2 Thu Aug 23 17:26:18 2018

Tools Copyright (c) 1996-2017 Texas Instruments Incorporated
tasks.asm                                                            PAGE    1

       1                    ;******************************************************************************
       2                    ;* TI ARM C/C++ Codegen                                        PC v18.1.2.LTS *
       3                    ;* Date/Time created: Thu Aug 23 17:26:17 2018                                *
       4                    ;******************************************************************************
       5                            .compiler_opts --abi=eabi --arm_vmrs_si_workaround=off --code_state=16 --diag_wrap=off --embed
       6 00000000                   .thumb
       7                    
       8                    $C$DW$CU        .dwtag  DW_TAG_compile_unit
       9                            .dwattr $C$DW$CU, DW_AT_name("../Source/tasks.c")
      10                            .dwattr $C$DW$CU, DW_AT_producer("TI TI ARM C/C++ Codegen PC v18.1.2.LTS Copyright (c) 1996-20
      11                            .dwattr $C$DW$CU, DW_AT_TI_version(0x01)
      12                            .dwattr $C$DW$CU, DW_AT_comp_dir("C:\Projects\EECS_388_Test_Workspace\EECS_388_Base_Project_Fa
      13                            .global pxCurrentTCB
      14 00000000                   .data
      15                            .align  4
      16                            .elfsym pxCurrentTCB,SYM_SIZE(4)
      17 00000000           pxCurrentTCB:
      18 00000000 00000000          .bits   0,32                    ; pxCurrentTCB @ 0
      19                    
      20                    $C$DW$1 .dwtag  DW_TAG_variable
      21                            .dwattr $C$DW$1, DW_AT_name("pxCurrentTCB")
      22                            .dwattr $C$DW$1, DW_AT_TI_symbol_name("pxCurrentTCB")
      23                            .dwattr $C$DW$1, DW_AT_location[DW_OP_addr pxCurrentTCB]
      24                            .dwattr $C$DW$1, DW_AT_type(*$C$DW$T$326)
      25                            .dwattr $C$DW$1, DW_AT_external
      26                            .dwattr $C$DW$1, DW_AT_decl_file("../Source/tasks.c")
      27                            .dwattr $C$DW$1, DW_AT_decl_line(0xd4)
      28                            .dwattr $C$DW$1, DW_AT_decl_column(0x22)
      29                    
      30 00000000           pxReadyTasksLists:      .usect  ".bss:pxReadyTasksLists",100,4
      31                            .clink ".bss:pxReadyTasksLists"
      32                    $C$DW$2 .dwtag  DW_TAG_variable
      33                            .dwattr $C$DW$2, DW_AT_name("pxReadyTasksLists")
      34                            .dwattr $C$DW$2, DW_AT_TI_symbol_name("pxReadyTasksLists")
      35                            .dwattr $C$DW$2, DW_AT_type(*$C$DW$T$328)
      36                            .dwattr $C$DW$2, DW_AT_location[DW_OP_addr pxReadyTasksLists]
      37                            .dwattr $C$DW$2, DW_AT_decl_file("../Source/tasks.c")
      38                            .dwattr $C$DW$2, DW_AT_decl_line(0xd7)
      39                            .dwattr $C$DW$2, DW_AT_decl_column(0x1f)
      40                    
      41 00000000           xDelayedTaskList1:      .usect  ".bss:xDelayedTaskList1",20,4
      42                            .clink ".bss:xDelayedTaskList1"
      43                    $C$DW$3 .dwtag  DW_TAG_variable
      44                            .dwattr $C$DW$3, DW_AT_name("xDelayedTaskList1")
      45                            .dwattr $C$DW$3, DW_AT_TI_symbol_name("xDelayedTaskList1")
      46                            .dwattr $C$DW$3, DW_AT_type(*$C$DW$T$97)
      47                            .dwattr $C$DW$3, DW_AT_location[DW_OP_addr xDelayedTaskList1]
      48                            .dwattr $C$DW$3, DW_AT_decl_file("../Source/tasks.c")
      49                            .dwattr $C$DW$3, DW_AT_decl_line(0xd8)
      50                            .dwattr $C$DW$3, DW_AT_decl_column(0x1f)
      51                    
      52 00000000           xDelayedTaskList2:      .usect  ".bss:xDelayedTaskList2",20,4
      53                            .clink ".bss:xDelayedTaskList2"
      54                    $C$DW$4 .dwtag  DW_TAG_variable
      55                            .dwattr $C$DW$4, DW_AT_name("xDelayedTaskList2")
TI ARM Assembler PC v18.1.2 Thu Aug 23 17:26:18 2018

Tools Copyright (c) 1996-2017 Texas Instruments Incorporated
tasks.asm                                                            PAGE    2

      56                            .dwattr $C$DW$4, DW_AT_TI_symbol_name("xDelayedTaskList2")
      57                            .dwattr $C$DW$4, DW_AT_type(*$C$DW$T$97)
      58                            .dwattr $C$DW$4, DW_AT_location[DW_OP_addr xDelayedTaskList2]
      59                            .dwattr $C$DW$4, DW_AT_decl_file("../Source/tasks.c")
      60                            .dwattr $C$DW$4, DW_AT_decl_line(0xd9)
      61                            .dwattr $C$DW$4, DW_AT_decl_column(0x1f)
      62                    
      63 00000000                   .bss    pxDelayedTaskList,4,4
      64                    $C$DW$5 .dwtag  DW_TAG_variable
      65                            .dwattr $C$DW$5, DW_AT_name("pxDelayedTaskList")
      66                            .dwattr $C$DW$5, DW_AT_TI_symbol_name("pxDelayedTaskList")
      67                            .dwattr $C$DW$5, DW_AT_type(*$C$DW$T$327)
      68                            .dwattr $C$DW$5, DW_AT_location[DW_OP_addr pxDelayedTaskList]
      69                            .dwattr $C$DW$5, DW_AT_decl_file("../Source/tasks.c")
      70                            .dwattr $C$DW$5, DW_AT_decl_line(0xda)
      71                            .dwattr $C$DW$5, DW_AT_decl_column(0x2a)
      72                    
      73 00000004                   .bss    pxOverflowDelayedTaskList,4,4
      74                    $C$DW$6 .dwtag  DW_TAG_variable
      75                            .dwattr $C$DW$6, DW_AT_name("pxOverflowDelayedTaskList")
      76                            .dwattr $C$DW$6, DW_AT_TI_symbol_name("pxOverflowDelayedTaskList")
      77                            .dwattr $C$DW$6, DW_AT_type(*$C$DW$T$327)
      78                            .dwattr $C$DW$6, DW_AT_location[DW_OP_addr pxOverflowDelayedTaskList]
      79                            .dwattr $C$DW$6, DW_AT_decl_file("../Source/tasks.c")
      80                            .dwattr $C$DW$6, DW_AT_decl_line(0xdb)
      81                            .dwattr $C$DW$6, DW_AT_decl_column(0x2a)
      82                    
      83 00000000           xPendingReadyList:      .usect  ".bss:xPendingReadyList",20,4
      84                            .clink ".bss:xPendingReadyList"
      85                    $C$DW$7 .dwtag  DW_TAG_variable
      86                            .dwattr $C$DW$7, DW_AT_name("xPendingReadyList")
      87                            .dwattr $C$DW$7, DW_AT_TI_symbol_name("xPendingReadyList")
      88                            .dwattr $C$DW$7, DW_AT_type(*$C$DW$T$97)
      89                            .dwattr $C$DW$7, DW_AT_location[DW_OP_addr xPendingReadyList]
      90                            .dwattr $C$DW$7, DW_AT_decl_file("../Source/tasks.c")
      91                            .dwattr $C$DW$7, DW_AT_decl_line(0xdc)
      92                            .dwattr $C$DW$7, DW_AT_decl_column(0x1f)
      93                    
      94 00000000           xTasksWaitingTermination:       .usect  ".bss:xTasksWaitingTermination",20,4
      95                            .clink ".bss:xTasksWaitingTermination"
      96                    $C$DW$8 .dwtag  DW_TAG_variable
      97                            .dwattr $C$DW$8, DW_AT_name("xTasksWaitingTermination")
      98                            .dwattr $C$DW$8, DW_AT_TI_symbol_name("xTasksWaitingTermination")
      99                            .dwattr $C$DW$8, DW_AT_type(*$C$DW$T$97)
     100                            .dwattr $C$DW$8, DW_AT_location[DW_OP_addr xTasksWaitingTermination]
     101                            .dwattr $C$DW$8, DW_AT_decl_file("../Source/tasks.c")
     102                            .dwattr $C$DW$8, DW_AT_decl_line(0xe0)
     103                            .dwattr $C$DW$8, DW_AT_decl_column(0x20)
     104                    
     105 00000004                   .data
     106                            .align  4
     107                            .elfsym uxTasksDeleted,SYM_SIZE(4)
     108 00000004           uxTasksDeleted:
     109 00000004 00000000          .bits   0,32                    ; uxTasksDeleted @ 0
     110                    
TI ARM Assembler PC v18.1.2 Thu Aug 23 17:26:18 2018

Tools Copyright (c) 1996-2017 Texas Instruments Incorporated
tasks.asm                                                            PAGE    3

     111                    $C$DW$9 .dwtag  DW_TAG_variable
     112                            .dwattr $C$DW$9, DW_AT_name("uxTasksDeleted")
     113                            .dwattr $C$DW$9, DW_AT_TI_symbol_name("uxTasksDeleted")
     114                            .dwattr $C$DW$9, DW_AT_type(*$C$DW$T$259)
     115                            .dwattr $C$DW$9, DW_AT_location[DW_OP_addr uxTasksDeleted]
     116                            .dwattr $C$DW$9, DW_AT_decl_file("../Source/tasks.c")
     117                            .dwattr $C$DW$9, DW_AT_decl_line(0xe1)
     118                            .dwattr $C$DW$9, DW_AT_decl_column(0x2e)
     119                    
     120 00000000           xSuspendedTaskList:     .usect  ".bss:xSuspendedTaskList",20,4
     121                            .clink ".bss:xSuspendedTaskList"
     122                    $C$DW$10        .dwtag  DW_TAG_variable
     123                            .dwattr $C$DW$10, DW_AT_name("xSuspendedTaskList")
     124                            .dwattr $C$DW$10, DW_AT_TI_symbol_name("xSuspendedTaskList")
     125                            .dwattr $C$DW$10, DW_AT_type(*$C$DW$T$97)
     126                            .dwattr $C$DW$10, DW_AT_location[DW_OP_addr xSuspendedTaskList]
     127                            .dwattr $C$DW$10, DW_AT_decl_file("../Source/tasks.c")
     128                            .dwattr $C$DW$10, DW_AT_decl_line(0xe7)
     129                            .dwattr $C$DW$10, DW_AT_decl_column(0x20)
     130                    
     131 00000008                   .data
     132                            .align  4
     133                            .elfsym uxCurrentNumberOfTasks,SYM_SIZE(4)
     134 00000008           uxCurrentNumberOfTasks:
     135 00000008 00000000          .bits   0,32                    ; uxCurrentNumberOfTasks @ 0
     136                    
     137                    $C$DW$11        .dwtag  DW_TAG_variable
     138                            .dwattr $C$DW$11, DW_AT_name("uxCurrentNumberOfTasks")
     139                            .dwattr $C$DW$11, DW_AT_TI_symbol_name("uxCurrentNumberOfTasks")
     140                            .dwattr $C$DW$11, DW_AT_type(*$C$DW$T$259)
     141                            .dwattr $C$DW$11, DW_AT_location[DW_OP_addr uxCurrentNumberOfTasks]
     142                            .dwattr $C$DW$11, DW_AT_decl_file("../Source/tasks.c")
     143                            .dwattr $C$DW$11, DW_AT_decl_line(0xf2)
     144                            .dwattr $C$DW$11, DW_AT_decl_column(0x2d)
     145                    
     146 0000000c                   .data
     147                            .align  4
     148                            .elfsym xTickCount,SYM_SIZE(4)
     149 0000000c           xTickCount:
     150 0000000c 00000000          .bits   0,32                    ; xTickCount @ 0
     151                    
     152                    $C$DW$12        .dwtag  DW_TAG_variable
     153                            .dwattr $C$DW$12, DW_AT_name("xTickCount")
     154                            .dwattr $C$DW$12, DW_AT_TI_symbol_name("xTickCount")
     155                            .dwattr $C$DW$12, DW_AT_type(*$C$DW$T$257)
     156                            .dwattr $C$DW$12, DW_AT_location[DW_OP_addr xTickCount]
     157                            .dwattr $C$DW$12, DW_AT_decl_file("../Source/tasks.c")
     158                            .dwattr $C$DW$12, DW_AT_decl_line(0xf3)
     159                            .dwattr $C$DW$12, DW_AT_decl_column(0x2c)
     160                    
     161 00000010                   .data
     162                            .align  4
     163                            .elfsym uxTopReadyPriority,SYM_SIZE(4)
     164 00000010           uxTopReadyPriority:
     165 00000010 00000000          .bits   0,32                    ; uxTopReadyPriority @ 0
TI ARM Assembler PC v18.1.2 Thu Aug 23 17:26:18 2018

Tools Copyright (c) 1996-2017 Texas Instruments Incorporated
tasks.asm                                                            PAGE    4

     166                    
     167                    $C$DW$13        .dwtag  DW_TAG_variable
     168                            .dwattr $C$DW$13, DW_AT_name("uxTopReadyPriority")
     169                            .dwattr $C$DW$13, DW_AT_TI_symbol_name("uxTopReadyPriority")
     170                            .dwattr $C$DW$13, DW_AT_type(*$C$DW$T$259)
     171                            .dwattr $C$DW$13, DW_AT_location[DW_OP_addr uxTopReadyPriority]
     172                            .dwattr $C$DW$13, DW_AT_decl_file("../Source/tasks.c")
     173                            .dwattr $C$DW$13, DW_AT_decl_line(0xf4)
     174                            .dwattr $C$DW$13, DW_AT_decl_column(0x2d)
     175                    
     176 00000014                   .data
     177                            .align  4
     178                            .elfsym xSchedulerRunning,SYM_SIZE(4)
     179 00000014           xSchedulerRunning:
     180 00000014 00000000          .bits   0,32                    ; xSchedulerRunning @ 0
     181                    
     182                    $C$DW$14        .dwtag  DW_TAG_variable
     183                            .dwattr $C$DW$14, DW_AT_name("xSchedulerRunning")
     184                            .dwattr $C$DW$14, DW_AT_TI_symbol_name("xSchedulerRunning")
     185                            .dwattr $C$DW$14, DW_AT_type(*$C$DW$T$204)
     186                            .dwattr $C$DW$14, DW_AT_location[DW_OP_addr xSchedulerRunning]
     187                            .dwattr $C$DW$14, DW_AT_decl_file("../Source/tasks.c")
     188                            .dwattr $C$DW$14, DW_AT_decl_line(0xf5)
     189                            .dwattr $C$DW$14, DW_AT_decl_column(0x2c)
     190                    
     191 00000018                   .data
     192                            .align  4
     193                            .elfsym uxPendedTicks,SYM_SIZE(4)
     194 00000018           uxPendedTicks:
     195 00000018 00000000          .bits   0,32                    ; uxPendedTicks @ 0
     196                    
     197                    $C$DW$15        .dwtag  DW_TAG_variable
     198                            .dwattr $C$DW$15, DW_AT_name("uxPendedTicks")
     199                            .dwattr $C$DW$15, DW_AT_TI_symbol_name("uxPendedTicks")
     200                            .dwattr $C$DW$15, DW_AT_type(*$C$DW$T$259)
     201                            .dwattr $C$DW$15, DW_AT_location[DW_OP_addr uxPendedTicks]
     202                            .dwattr $C$DW$15, DW_AT_decl_file("../Source/tasks.c")
     203                            .dwattr $C$DW$15, DW_AT_decl_line(0xf6)
     204                            .dwattr $C$DW$15, DW_AT_decl_column(0x2d)
     205                    
     206 0000001c                   .data
     207                            .align  4
     208                            .elfsym xYieldPending,SYM_SIZE(4)
     209 0000001c           xYieldPending:
     210 0000001c 00000000          .bits   0,32                    ; xYieldPending @ 0
     211                    
     212                    $C$DW$16        .dwtag  DW_TAG_variable
     213                            .dwattr $C$DW$16, DW_AT_name("xYieldPending")
     214                            .dwattr $C$DW$16, DW_AT_TI_symbol_name("xYieldPending")
     215                            .dwattr $C$DW$16, DW_AT_type(*$C$DW$T$204)
     216                            .dwattr $C$DW$16, DW_AT_location[DW_OP_addr xYieldPending]
     217                            .dwattr $C$DW$16, DW_AT_decl_file("../Source/tasks.c")
     218                            .dwattr $C$DW$16, DW_AT_decl_line(0xf7)
     219                            .dwattr $C$DW$16, DW_AT_decl_column(0x2c)
     220                    
TI ARM Assembler PC v18.1.2 Thu Aug 23 17:26:18 2018

Tools Copyright (c) 1996-2017 Texas Instruments Incorporated
tasks.asm                                                            PAGE    5

     221 00000020                   .data
     222                            .align  4
     223                            .elfsym xNumOfOverflows,SYM_SIZE(4)
     224 00000020           xNumOfOverflows:
     225 00000020 00000000          .bits   0,32                    ; xNumOfOverflows @ 0
     226                    
     227                    $C$DW$17        .dwtag  DW_TAG_variable
     228                            .dwattr $C$DW$17, DW_AT_name("xNumOfOverflows")
     229                            .dwattr $C$DW$17, DW_AT_TI_symbol_name("xNumOfOverflows")
     230                            .dwattr $C$DW$17, DW_AT_type(*$C$DW$T$204)
     231                            .dwattr $C$DW$17, DW_AT_location[DW_OP_addr xNumOfOverflows]
     232                            .dwattr $C$DW$17, DW_AT_decl_file("../Source/tasks.c")
     233                            .dwattr $C$DW$17, DW_AT_decl_line(0xf8)
     234                            .dwattr $C$DW$17, DW_AT_decl_column(0x2c)
     235                    
     236 00000024                   .data
     237                            .align  4
     238                            .elfsym uxTaskNumber,SYM_SIZE(4)
     239 00000024           uxTaskNumber:
     240 00000024 00000000          .bits   0,32                    ; uxTaskNumber @ 0
     241                    
     242                    $C$DW$18        .dwtag  DW_TAG_variable
     243                            .dwattr $C$DW$18, DW_AT_name("uxTaskNumber")
     244                            .dwattr $C$DW$18, DW_AT_TI_symbol_name("uxTaskNumber")
     245                            .dwattr $C$DW$18, DW_AT_type(*$C$DW$T$37)
     246                            .dwattr $C$DW$18, DW_AT_location[DW_OP_addr uxTaskNumber]
     247                            .dwattr $C$DW$18, DW_AT_decl_file("../Source/tasks.c")
     248                            .dwattr $C$DW$18, DW_AT_decl_line(0xf9)
     249                            .dwattr $C$DW$18, DW_AT_decl_column(0x24)
     250                    
     251 00000028                   .data
     252                            .align  4
     253                            .elfsym xNextTaskUnblockTime,SYM_SIZE(4)
     254 00000028           xNextTaskUnblockTime:
     255 00000028 00000000          .bits   0,32                    ; xNextTaskUnblockTime @ 0
     256                    
     257                    $C$DW$19        .dwtag  DW_TAG_variable
     258                            .dwattr $C$DW$19, DW_AT_name("xNextTaskUnblockTime")
     259                            .dwattr $C$DW$19, DW_AT_TI_symbol_name("xNextTaskUnblockTime")
     260                            .dwattr $C$DW$19, DW_AT_type(*$C$DW$T$257)
     261                            .dwattr $C$DW$19, DW_AT_location[DW_OP_addr xNextTaskUnblockTime]
     262                            .dwattr $C$DW$19, DW_AT_decl_file("../Source/tasks.c")
     263                            .dwattr $C$DW$19, DW_AT_decl_line(0xfa)
     264                            .dwattr $C$DW$19, DW_AT_decl_column(0x2c)
     265                    
     266 0000002c                   .data
     267                            .align  4
     268                            .elfsym uxSchedulerSuspended,SYM_SIZE(4)
     269 0000002c           uxSchedulerSuspended:
     270 0000002c 00000000          .bits   0,32                    ; uxSchedulerSuspended @ 0
     271                    
     272                    $C$DW$20        .dwtag  DW_TAG_variable
     273                            .dwattr $C$DW$20, DW_AT_name("uxSchedulerSuspended")
     274                            .dwattr $C$DW$20, DW_AT_TI_symbol_name("uxSchedulerSuspended")
     275                            .dwattr $C$DW$20, DW_AT_type(*$C$DW$T$259)
TI ARM Assembler PC v18.1.2 Thu Aug 23 17:26:18 2018

Tools Copyright (c) 1996-2017 Texas Instruments Incorporated
tasks.asm                                                            PAGE    6

     276                            .dwattr $C$DW$20, DW_AT_location[DW_OP_addr uxSchedulerSuspended]
     277                            .dwattr $C$DW$20, DW_AT_decl_file("../Source/tasks.c")
     278                            .dwattr $C$DW$20, DW_AT_decl_line(0x104)
     279                            .dwattr $C$DW$20, DW_AT_decl_column(0x2d)
     280                    
     281                    
     282                    $C$DW$21        .dwtag  DW_TAG_subprogram
     283                            .dwattr $C$DW$21, DW_AT_name("pxPortInitialiseStack")
     284                            .dwattr $C$DW$21, DW_AT_TI_symbol_name("pxPortInitialiseStack")
     285                            .dwattr $C$DW$21, DW_AT_type(*$C$DW$T$38)
     286                            .dwattr $C$DW$21, DW_AT_declaration
     287                            .dwattr $C$DW$21, DW_AT_external
     288                            .dwattr $C$DW$21, DW_AT_decl_file("C:\Projects\EECS_388_Test_Workspace\EECS_388_Base_Project_F
     289                            .dwattr $C$DW$21, DW_AT_decl_line(0x90)
     290                            .dwattr $C$DW$21, DW_AT_decl_column(0x0f)
     291                    $C$DW$22        .dwtag  DW_TAG_formal_parameter
     292                            .dwattr $C$DW$22, DW_AT_type(*$C$DW$T$38)
     293                    
     294                    $C$DW$23        .dwtag  DW_TAG_formal_parameter
     295                            .dwattr $C$DW$23, DW_AT_type(*$C$DW$T$56)
     296                    
     297                    $C$DW$24        .dwtag  DW_TAG_formal_parameter
     298                            .dwattr $C$DW$24, DW_AT_type(*$C$DW$T$3)
     299                    
     300                            .dwendtag $C$DW$21
     301                    
     302                    
     303                    $C$DW$25        .dwtag  DW_TAG_subprogram
     304                            .dwattr $C$DW$25, DW_AT_name("vPortEnterCritical")
     305                            .dwattr $C$DW$25, DW_AT_TI_symbol_name("vPortEnterCritical")
     306                            .dwattr $C$DW$25, DW_AT_declaration
     307                            .dwattr $C$DW$25, DW_AT_external
     308                            .dwattr $C$DW$25, DW_AT_decl_file("C:\Projects\EECS_388_Test_Workspace\EECS_388_Base_Project_F
     309                            .dwattr $C$DW$25, DW_AT_decl_line(0xa7)
     310                            .dwattr $C$DW$25, DW_AT_decl_column(0x0d)
     311                            .dwendtag $C$DW$25
     312                    
     313                    
     314                    $C$DW$26        .dwtag  DW_TAG_subprogram
     315                            .dwattr $C$DW$26, DW_AT_name("vListInsertEnd")
     316                            .dwattr $C$DW$26, DW_AT_TI_symbol_name("vListInsertEnd")
     317                            .dwattr $C$DW$26, DW_AT_declaration
     318                            .dwattr $C$DW$26, DW_AT_external
     319                            .dwattr $C$DW$26, DW_AT_decl_file("C:\Projects\EECS_388_Test_Workspace\EECS_388_Base_Project_F
     320                            .dwattr $C$DW$26, DW_AT_decl_line(0x1af)
     321                            .dwattr $C$DW$26, DW_AT_decl_column(0x06)
     322                    $C$DW$27        .dwtag  DW_TAG_formal_parameter
     323                            .dwattr $C$DW$27, DW_AT_type(*$C$DW$T$99)
     324                    
     325                    $C$DW$28        .dwtag  DW_TAG_formal_parameter
     326                            .dwattr $C$DW$28, DW_AT_type(*$C$DW$T$102)
     327                    
     328                            .dwendtag $C$DW$26
     329                    
     330                    
TI ARM Assembler PC v18.1.2 Thu Aug 23 17:26:18 2018

Tools Copyright (c) 1996-2017 Texas Instruments Incorporated
tasks.asm                                                            PAGE    7

     331                    $C$DW$29        .dwtag  DW_TAG_subprogram
     332                            .dwattr $C$DW$29, DW_AT_name("vPortExitCritical")
     333                            .dwattr $C$DW$29, DW_AT_TI_symbol_name("vPortExitCritical")
     334                            .dwattr $C$DW$29, DW_AT_declaration
     335                            .dwattr $C$DW$29, DW_AT_external
     336                            .dwattr $C$DW$29, DW_AT_decl_file("C:\Projects\EECS_388_Test_Workspace\EECS_388_Base_Project_F
     337                            .dwattr $C$DW$29, DW_AT_decl_line(0xa8)
     338                            .dwattr $C$DW$29, DW_AT_decl_column(0x0d)
     339                            .dwendtag $C$DW$29
     340                    
     341                    
     342                    $C$DW$30        .dwtag  DW_TAG_subprogram
     343                            .dwattr $C$DW$30, DW_AT_name("uxListRemove")
     344                            .dwattr $C$DW$30, DW_AT_TI_symbol_name("uxListRemove")
     345                            .dwattr $C$DW$30, DW_AT_type(*$C$DW$T$37)
     346                            .dwattr $C$DW$30, DW_AT_declaration
     347                            .dwattr $C$DW$30, DW_AT_external
     348                            .dwattr $C$DW$30, DW_AT_decl_file("C:\Projects\EECS_388_Test_Workspace\EECS_388_Base_Project_F
     349                            .dwattr $C$DW$30, DW_AT_decl_line(0x1be)
     350                            .dwattr $C$DW$30, DW_AT_decl_column(0x0d)
     351                    $C$DW$31        .dwtag  DW_TAG_formal_parameter
     352                            .dwattr $C$DW$31, DW_AT_type(*$C$DW$T$102)
     353                    
     354                            .dwendtag $C$DW$30
     355                    
     356                    
     357                    $C$DW$32        .dwtag  DW_TAG_subprogram
     358                            .dwattr $C$DW$32, DW_AT_name("xTimerCreateTimerTask")
     359                            .dwattr $C$DW$32, DW_AT_TI_symbol_name("xTimerCreateTimerTask")
     360                            .dwattr $C$DW$32, DW_AT_type(*$C$DW$T$71)
     361                            .dwattr $C$DW$32, DW_AT_declaration
     362                            .dwattr $C$DW$32, DW_AT_external
     363                            .dwattr $C$DW$32, DW_AT_decl_file("C:\Projects\EECS_388_Test_Workspace\EECS_388_Base_Project_F
     364                            .dwattr $C$DW$32, DW_AT_decl_line(0x471)
     365                            .dwattr $C$DW$32, DW_AT_decl_column(0x0c)
     366                            .dwendtag $C$DW$32
     367                    
     368                    
     369                    $C$DW$33        .dwtag  DW_TAG_subprogram
     370                            .dwattr $C$DW$33, DW_AT_name("xPortStartScheduler")
     371                            .dwattr $C$DW$33, DW_AT_TI_symbol_name("xPortStartScheduler")
     372                            .dwattr $C$DW$33, DW_AT_type(*$C$DW$T$71)
     373                            .dwattr $C$DW$33, DW_AT_declaration
     374                            .dwattr $C$DW$33, DW_AT_external
     375                            .dwattr $C$DW$33, DW_AT_decl_file("C:\Projects\EECS_388_Test_Workspace\EECS_388_Base_Project_F
     376                            .dwattr $C$DW$33, DW_AT_decl_line(0xb5)
     377                            .dwattr $C$DW$33, DW_AT_decl_column(0x0c)
     378                            .dwendtag $C$DW$33
     379                    
     380                    
     381                    $C$DW$34        .dwtag  DW_TAG_subprogram
     382                            .dwattr $C$DW$34, DW_AT_name("vPortEndScheduler")
     383                            .dwattr $C$DW$34, DW_AT_TI_symbol_name("vPortEndScheduler")
     384                            .dwattr $C$DW$34, DW_AT_declaration
     385                            .dwattr $C$DW$34, DW_AT_external
TI ARM Assembler PC v18.1.2 Thu Aug 23 17:26:18 2018

Tools Copyright (c) 1996-2017 Texas Instruments Incorporated
tasks.asm                                                            PAGE    8

     386                            .dwattr $C$DW$34, DW_AT_decl_file("C:\Projects\EECS_388_Test_Workspace\EECS_388_Base_Project_F
     387                            .dwattr $C$DW$34, DW_AT_decl_line(0xbc)
     388                            .dwattr $C$DW$34, DW_AT_decl_column(0x06)
     389                            .dwendtag $C$DW$34
     390                    
     391                    
     392                    $C$DW$35        .dwtag  DW_TAG_subprogram
     393                            .dwattr $C$DW$35, DW_AT_name("vListInsert")
     394                            .dwattr $C$DW$35, DW_AT_TI_symbol_name("vListInsert")
     395                            .dwattr $C$DW$35, DW_AT_declaration
     396                            .dwattr $C$DW$35, DW_AT_external
     397                            .dwattr $C$DW$35, DW_AT_decl_file("C:\Projects\EECS_388_Test_Workspace\EECS_388_Base_Project_F
     398                            .dwattr $C$DW$35, DW_AT_decl_line(0x19a)
     399                            .dwattr $C$DW$35, DW_AT_decl_column(0x06)
     400                    $C$DW$36        .dwtag  DW_TAG_formal_parameter
     401                            .dwattr $C$DW$36, DW_AT_type(*$C$DW$T$99)
     402                    
     403                    $C$DW$37        .dwtag  DW_TAG_formal_parameter
     404                            .dwattr $C$DW$37, DW_AT_type(*$C$DW$T$102)
     405                    
     406                            .dwendtag $C$DW$35
     407                    
     408                    
     409                    $C$DW$38        .dwtag  DW_TAG_subprogram
     410                            .dwattr $C$DW$38, DW_AT_name("vListInitialiseItem")
     411                            .dwattr $C$DW$38, DW_AT_TI_symbol_name("vListInitialiseItem")
     412                            .dwattr $C$DW$38, DW_AT_declaration
     413                            .dwattr $C$DW$38, DW_AT_external
     414                            .dwattr $C$DW$38, DW_AT_decl_file("C:\Projects\EECS_388_Test_Workspace\EECS_388_Base_Project_F
     415                            .dwattr $C$DW$38, DW_AT_decl_line(0x18d)
     416                            .dwattr $C$DW$38, DW_AT_decl_column(0x06)
     417                    $C$DW$39        .dwtag  DW_TAG_formal_parameter
     418                            .dwattr $C$DW$39, DW_AT_type(*$C$DW$T$102)
     419                    
     420                            .dwendtag $C$DW$38
     421                    
     422                    
     423                    $C$DW$40        .dwtag  DW_TAG_subprogram
     424                            .dwattr $C$DW$40, DW_AT_name("vListInitialise")
     425                            .dwattr $C$DW$40, DW_AT_TI_symbol_name("vListInitialise")
     426                            .dwattr $C$DW$40, DW_AT_declaration
     427                            .dwattr $C$DW$40, DW_AT_external
     428                            .dwattr $C$DW$40, DW_AT_decl_file("C:\Projects\EECS_388_Test_Workspace\EECS_388_Base_Project_F
     429                            .dwattr $C$DW$40, DW_AT_decl_line(0x182)
     430                            .dwattr $C$DW$40, DW_AT_decl_column(0x06)
     431                    $C$DW$41        .dwtag  DW_TAG_formal_parameter
     432                            .dwattr $C$DW$41, DW_AT_type(*$C$DW$T$99)
     433                    
     434                            .dwendtag $C$DW$40
     435                    
     436                    
     437                    $C$DW$42        .dwtag  DW_TAG_subprogram
     438                            .dwattr $C$DW$42, DW_AT_name("pvPortMalloc")
     439                            .dwattr $C$DW$42, DW_AT_TI_symbol_name("pvPortMalloc")
     440                            .dwattr $C$DW$42, DW_AT_type(*$C$DW$T$3)
TI ARM Assembler PC v18.1.2 Thu Aug 23 17:26:18 2018

Tools Copyright (c) 1996-2017 Texas Instruments Incorporated
tasks.asm                                                            PAGE    9

     441                            .dwattr $C$DW$42, DW_AT_declaration
     442                            .dwattr $C$DW$42, DW_AT_external
     443                            .dwattr $C$DW$42, DW_AT_decl_file("C:\Projects\EECS_388_Test_Workspace\EECS_388_Base_Project_F
     444                            .dwattr $C$DW$42, DW_AT_decl_line(0xab)
     445                            .dwattr $C$DW$42, DW_AT_decl_column(0x07)
     446                    $C$DW$43        .dwtag  DW_TAG_formal_parameter
     447                            .dwattr $C$DW$43, DW_AT_type(*$C$DW$T$28)
     448                    
     449                            .dwendtag $C$DW$42
     450                    
     451                    
     452                    $C$DW$44        .dwtag  DW_TAG_subprogram
     453                            .dwattr $C$DW$44, DW_AT_name("vPortFree")
     454                            .dwattr $C$DW$44, DW_AT_TI_symbol_name("vPortFree")
     455                            .dwattr $C$DW$44, DW_AT_declaration
     456                            .dwattr $C$DW$44, DW_AT_external
     457                            .dwattr $C$DW$44, DW_AT_decl_file("C:\Projects\EECS_388_Test_Workspace\EECS_388_Base_Project_F
     458                            .dwattr $C$DW$44, DW_AT_decl_line(0xac)
     459                            .dwattr $C$DW$44, DW_AT_decl_column(0x06)
     460                    $C$DW$45        .dwtag  DW_TAG_formal_parameter
     461                            .dwattr $C$DW$45, DW_AT_type(*$C$DW$T$3)
     462                    
     463                            .dwendtag $C$DW$44
     464                    
     465                    
     466                    $C$DW$46        .dwtag  DW_TAG_subprogram
     467                            .dwattr $C$DW$46, DW_AT_name("memset")
     468                            .dwattr $C$DW$46, DW_AT_TI_symbol_name("memset")
     469                            .dwattr $C$DW$46, DW_AT_type(*$C$DW$T$3)
     470                            .dwattr $C$DW$46, DW_AT_declaration
     471                            .dwattr $C$DW$46, DW_AT_external
     472                            .dwattr $C$DW$46, DW_AT_decl_file("C:/TI_CodeComposer/ccsv8/tools/compiler/ti-cgt-arm_18.1.2.L
     473                            .dwattr $C$DW$46, DW_AT_decl_line(0x7a)
     474                            .dwattr $C$DW$46, DW_AT_decl_column(0x16)
     475                    $C$DW$47        .dwtag  DW_TAG_formal_parameter
     476                            .dwattr $C$DW$47, DW_AT_type(*$C$DW$T$3)
     477                    
     478                    $C$DW$48        .dwtag  DW_TAG_formal_parameter
     479                            .dwattr $C$DW$48, DW_AT_type(*$C$DW$T$10)
     480                    
     481                    $C$DW$49        .dwtag  DW_TAG_formal_parameter
     482                            .dwattr $C$DW$49, DW_AT_type(*$C$DW$T$28)
     483                    
     484                            .dwendtag $C$DW$46
     485                    
     486                    ;       C:\TI_CodeComposer\ccsv8\tools\compiler\ti-cgt-arm_18.1.2.LTS\bin\armacpia.exe -@C:\\Users\\gm
     487 00000000                   .sect   ".text"
     488                            .clink
     489                            .thumbfunc xTaskGenericCreate
     490 00000000                   .thumb
     491                            .global xTaskGenericCreate
     492                    
     493                    $C$DW$50        .dwtag  DW_TAG_subprogram
     494                            .dwattr $C$DW$50, DW_AT_name("xTaskGenericCreate")
     495                            .dwattr $C$DW$50, DW_AT_low_pc(xTaskGenericCreate)
TI ARM Assembler PC v18.1.2 Thu Aug 23 17:26:18 2018

Tools Copyright (c) 1996-2017 Texas Instruments Incorporated
tasks.asm                                                            PAGE   10

     496                            .dwattr $C$DW$50, DW_AT_high_pc(0x00)
     497                            .dwattr $C$DW$50, DW_AT_TI_symbol_name("xTaskGenericCreate")
     498                            .dwattr $C$DW$50, DW_AT_external
     499                            .dwattr $C$DW$50, DW_AT_type(*$C$DW$T$71)
     500                            .dwattr $C$DW$50, DW_AT_TI_begin_file("../Source/tasks.c")
     501                            .dwattr $C$DW$50, DW_AT_TI_begin_line(0x227)
     502                            .dwattr $C$DW$50, DW_AT_TI_begin_column(0x0c)
     503                            .dwattr $C$DW$50, DW_AT_decl_file("../Source/tasks.c")
     504                            .dwattr $C$DW$50, DW_AT_decl_line(0x227)
     505                            .dwattr $C$DW$50, DW_AT_decl_column(0x0c)
     506                            .dwattr $C$DW$50, DW_AT_TI_max_frame_size(0x28)
     507                            .dwpsn  file "../Source/tasks.c",line 552,column 1,is_stmt,address xTaskGenericCreate,isa 1
     508                    
     509                            .dwfde $C$DW$CIE, xTaskGenericCreate
     510                    $C$DW$51        .dwtag  DW_TAG_formal_parameter
     511                            .dwattr $C$DW$51, DW_AT_name("pxTaskCode")
     512                            .dwattr $C$DW$51, DW_AT_TI_symbol_name("pxTaskCode")
     513                            .dwattr $C$DW$51, DW_AT_type(*$C$DW$T$56)
     514                            .dwattr $C$DW$51, DW_AT_location[DW_OP_reg0]
     515                    
     516                    $C$DW$52        .dwtag  DW_TAG_formal_parameter
     517                            .dwattr $C$DW$52, DW_AT_name("pcName")
     518                            .dwattr $C$DW$52, DW_AT_TI_symbol_name("pcName")
     519                            .dwattr $C$DW$52, DW_AT_type(*$C$DW$T$59)
     520                            .dwattr $C$DW$52, DW_AT_location[DW_OP_reg1]
     521                    
     522                    $C$DW$53        .dwtag  DW_TAG_formal_parameter
     523                            .dwattr $C$DW$53, DW_AT_name("usStackDepth")
     524                            .dwattr $C$DW$53, DW_AT_TI_symbol_name("usStackDepth")
     525                            .dwattr $C$DW$53, DW_AT_type(*$C$DW$T$133)
     526                            .dwattr $C$DW$53, DW_AT_location[DW_OP_reg2]
     527                    
     528                    $C$DW$54        .dwtag  DW_TAG_formal_parameter
     529                            .dwattr $C$DW$54, DW_AT_name("pvParameters")
     530                            .dwattr $C$DW$54, DW_AT_TI_symbol_name("pvParameters")
     531                            .dwattr $C$DW$54, DW_AT_type(*$C$DW$T$91)
     532                            .dwattr $C$DW$54, DW_AT_location[DW_OP_reg3]
     533                    
     534                    $C$DW$55        .dwtag  DW_TAG_formal_parameter
     535                            .dwattr $C$DW$55, DW_AT_name("uxPriority")
     536                            .dwattr $C$DW$55, DW_AT_TI_symbol_name("uxPriority")
     537                            .dwattr $C$DW$55, DW_AT_type(*$C$DW$T$37)
     538                            .dwattr $C$DW$55, DW_AT_location[DW_OP_breg13 40]
     539                    
     540                    $C$DW$56        .dwtag  DW_TAG_formal_parameter
     541                            .dwattr $C$DW$56, DW_AT_name("pxCreatedTask")
     542                            .dwattr $C$DW$56, DW_AT_TI_symbol_name("pxCreatedTask")
     543                            .dwattr $C$DW$56, DW_AT_type(*$C$DW$T$84)
     544                            .dwattr $C$DW$56, DW_AT_location[DW_OP_breg13 44]
     545                    
     546                    $C$DW$57        .dwtag  DW_TAG_formal_parameter
     547                            .dwattr $C$DW$57, DW_AT_name("puxStackBuffer")
     548                            .dwattr $C$DW$57, DW_AT_TI_symbol_name("puxStackBuffer")
     549                            .dwattr $C$DW$57, DW_AT_type(*$C$DW$T$207)
     550                            .dwattr $C$DW$57, DW_AT_location[DW_OP_breg13 48]
TI ARM Assembler PC v18.1.2 Thu Aug 23 17:26:18 2018

Tools Copyright (c) 1996-2017 Texas Instruments Incorporated
tasks.asm                                                            PAGE   11

     551                    
     552                    $C$DW$58        .dwtag  DW_TAG_formal_parameter
     553                            .dwattr $C$DW$58, DW_AT_name("xRegions")
     554                            .dwattr $C$DW$58, DW_AT_TI_symbol_name("xRegions")
     555                            .dwattr $C$DW$58, DW_AT_type(*$C$DW$T$132)
     556                            .dwattr $C$DW$58, DW_AT_location[DW_OP_breg13 52]
     557                    
     558                    ;----------------------------------------------------------------------
     559                    ; 551 | BaseType_t xTaskGenericCreate( TaskFunction_t pxTaskCode, const char *
     560                    ;     | const pcName, const uint16_t usStackDepth, void * const pvParameters, U
     561                    ;     | BaseType_t uxPriority, TaskHandle_t * const pxCreatedTask, StackType_t 
     562                    ;     | * const puxStackBuffer, const MemoryRegion_t * const xRegions ) /*lint 
     563                    ;     | !e971 Unqualified char types are allowed for strings and single charact
     564                    ;     | ers only. */                                                           
     565                    ;----------------------------------------------------------------------
     566                    
     567                    ;*****************************************************************************
     568                    ;* FUNCTION NAME: xTaskGenericCreate                                         *
     569                    ;*                                                                           *
     570                    ;*   Regs Modified     : A1,A2,A3,A4,V1,V9,SP,LR,SR,D0,D0_hi,D1,D1_hi,D2,    *
     571                    ;*                           D2_hi,D3,D3_hi,D4,D4_hi,D5,D5_hi,D6,D6_hi,D7,   *
     572                    ;*                           D7_hi,FPEXC,FPSCR                               *
     573                    ;*   Regs Used         : A1,A2,A3,A4,V1,V9,SP,LR,SR,D0,D0_hi,D1,D1_hi,D2,    *
     574                    ;*                           D2_hi,D3,D3_hi,D4,D4_hi,D5,D5_hi,D6,D6_hi,D7,   *
     575                    ;*                           D7_hi,FPEXC,FPSCR                               *
     576                    ;*   Local Frame Size  : 4 Args + 28 Auto + 8 Save = 40 byte                 *
     577                    ;*****************************************************************************
     578 00000000           xTaskGenericCreate:
     579                    ;* --------------------------------------------------------------------------*
     580                            .dwcfi  cfa_offset, 0
     581 00000000 B510              PUSH      {V1, LR}              ; [DPU_V7M3_PIPE]  ; [ORIG 16-BIT INS]
     582                            .dwcfi  cfa_offset, 8
     583                            .dwcfi  save_reg_to_mem, 14, -4
     584                            .dwcfi  save_reg_to_mem, 4, -8
     585 00000002 0D20F1AD          SUB       SP, SP, #32           ; [DPU_V7M3_PIPE]  ; [KEEP 32-BIT INS]
     586                            .dwcfi  cfa_offset, 40
     587                    $C$DW$59        .dwtag  DW_TAG_variable
     588                            .dwattr $C$DW$59, DW_AT_name("pxTaskCode")
     589                            .dwattr $C$DW$59, DW_AT_TI_symbol_name("pxTaskCode")
     590                            .dwattr $C$DW$59, DW_AT_type(*$C$DW$T$56)
     591                            .dwattr $C$DW$59, DW_AT_location[DW_OP_breg13 4]
     592                    
     593                    $C$DW$60        .dwtag  DW_TAG_variable
     594                            .dwattr $C$DW$60, DW_AT_name("pcName")
     595                            .dwattr $C$DW$60, DW_AT_TI_symbol_name("pcName")
     596                            .dwattr $C$DW$60, DW_AT_type(*$C$DW$T$59)
     597                            .dwattr $C$DW$60, DW_AT_location[DW_OP_breg13 8]
     598                    
     599                    $C$DW$61        .dwtag  DW_TAG_variable
     600                            .dwattr $C$DW$61, DW_AT_name("pvParameters")
     601                            .dwattr $C$DW$61, DW_AT_TI_symbol_name("pvParameters")
     602                            .dwattr $C$DW$61, DW_AT_type(*$C$DW$T$91)
     603                            .dwattr $C$DW$61, DW_AT_location[DW_OP_breg13 12]
     604                    
     605                    $C$DW$62        .dwtag  DW_TAG_variable
TI ARM Assembler PC v18.1.2 Thu Aug 23 17:26:18 2018

Tools Copyright (c) 1996-2017 Texas Instruments Incorporated
tasks.asm                                                            PAGE   12

     606                            .dwattr $C$DW$62, DW_AT_name("xReturn")
     607                            .dwattr $C$DW$62, DW_AT_TI_symbol_name("xReturn")
     608                            .dwattr $C$DW$62, DW_AT_type(*$C$DW$T$71)
     609                            .dwattr $C$DW$62, DW_AT_location[DW_OP_breg13 16]
     610                    
     611                    $C$DW$63        .dwtag  DW_TAG_variable
     612                            .dwattr $C$DW$63, DW_AT_name("pxNewTCB")
     613                            .dwattr $C$DW$63, DW_AT_TI_symbol_name("pxNewTCB")
     614                            .dwattr $C$DW$63, DW_AT_type(*$C$DW$T$128)
     615                            .dwattr $C$DW$63, DW_AT_location[DW_OP_breg13 20]
     616                    
     617                    $C$DW$64        .dwtag  DW_TAG_variable
     618                            .dwattr $C$DW$64, DW_AT_name("pxTopOfStack")
     619                            .dwattr $C$DW$64, DW_AT_TI_symbol_name("pxTopOfStack")
     620                            .dwattr $C$DW$64, DW_AT_type(*$C$DW$T$38)
     621                            .dwattr $C$DW$64, DW_AT_location[DW_OP_breg13 24]
     622                    
     623                    $C$DW$65        .dwtag  DW_TAG_variable
     624                            .dwattr $C$DW$65, DW_AT_name("usStackDepth")
     625                            .dwattr $C$DW$65, DW_AT_TI_symbol_name("usStackDepth")
     626                            .dwattr $C$DW$65, DW_AT_type(*$C$DW$T$133)
     627                            .dwattr $C$DW$65, DW_AT_location[DW_OP_breg13 28]
     628                    
     629                    ;----------------------------------------------------------------------
     630                    ; 553 | BaseType_t xReturn;                                                    
     631                    ; 554 | TCB_t * pxNewTCB;                                                      
     632                    ; 555 | StackType_t *pxTopOfStack;                                             
     633                    ; 557 | configASSERT( pxTaskCode );                                            
     634                    ; 558 | configASSERT( ( ( uxPriority & ( UBaseType_t ) ( ~portPRIVILEGE_BIT ) )
     635                    ;     |  < ( UBaseType_t ) configMAX_PRIORITIES ) );                           
     636                    ;----------------------------------------------------------------------
     637 00000006 9303              STR       A4, [SP, #12]         ; [DPU_V7M3_PIPE] |552|  ; [ORIG 16-BIT INS]
     638 00000008 201CF8AD          STRH      A3, [SP, #28]         ; [DPU_V7M3_PIPE] |552|  ; [KEEP 32-BIT INS]
     639 0000000c 9102              STR       A2, [SP, #8]          ; [DPU_V7M3_PIPE] |552|  ; [ORIG 16-BIT INS]
     640 0000000e 9001              STR       A1, [SP, #4]          ; [DPU_V7M3_PIPE] |552|  ; [ORIG 16-BIT INS]
     641                            .dwpsn  file "../Source/tasks.c",line 562,column 2,is_stmt,isa 1
     642                    ;----------------------------------------------------------------------
     643                    ; 562 | pxNewTCB = prvAllocateTCBAndStack( usStackDepth, puxStackBuffer );     
     644                    ;----------------------------------------------------------------------
     645 00000010 990C              LDR       A2, [SP, #48]         ; [DPU_V7M3_PIPE] |562|  ; [ORIG 16-BIT INS]
     646 00000012 001CF8BD          LDRH      A1, [SP, #28]         ; [DPU_V7M3_PIPE] |562|  ; [KEEP 32-BIT INS]
     647                    $C$DW$66        .dwtag  DW_TAG_TI_branch
     648                            .dwattr $C$DW$66, DW_AT_low_pc(0x00)
     649                            .dwattr $C$DW$66, DW_AT_name("prvAllocateTCBAndStack")
     650                            .dwattr $C$DW$66, DW_AT_TI_call
     651                    
     652 00000016 FFFEF7FF!         BL        prvAllocateTCBAndStack ; [DPU_V7M3_PIPE] |562|  ; [KEEP 32-BIT INS]
     653                            ; CALL OCCURS {prvAllocateTCBAndStack }  ; [] |562| 
     654 0000001a 9005              STR       A1, [SP, #20]         ; [DPU_V7M3_PIPE] |562|  ; [ORIG 16-BIT INS]
     655                            .dwpsn  file "../Source/tasks.c",line 564,column 2,is_stmt,isa 1
     656                    ;----------------------------------------------------------------------
     657                    ; 564 | if( pxNewTCB != NULL )                                                 
     658                    ; 566 |         #if( portUSING_MPU_WRAPPERS == 1 )                             
     659                    ; 568 |                 BaseType_t xRunPrivileged;                             
     660                    ; 569 |                 if( ( uxPriority & portPRIVILEGE_BIT ) != 0U )         
TI ARM Assembler PC v18.1.2 Thu Aug 23 17:26:18 2018

Tools Copyright (c) 1996-2017 Texas Instruments Incorporated
tasks.asm                                                            PAGE   13

     661                    ; 571 |                         xRunPrivileged = pdTRUE;                       
     662                    ; 573 |                 else                                                   
     663                    ; 575 |                         xRunPrivileged = pdFALSE;                      
     664                    ; 577 |                 uxPriority &= ~portPRIVILEGE_BIT;                      
     665                    ; 579 |                 if( puxStackBuffer != NULL )                           
     666                    ; 584 |                         pxNewTCB->xUsingStaticallyAllocatedStack = pdTR
     667                    ;     | UE;                                                                    
     668                    ; 586 |                 else                                                   
     669                    ; 590 |                         pxNewTCB->xUsingStaticallyAllocatedStack = pdFA
     670                    ;     | LSE;                                                                   
     671                    ; 592 |         #endif /* portUSING_MPU_WRAPPERS == 1 */                       
     672                    ; 598 |         #if( portSTACK_GROWTH < 0 )                                    
     673                    ;----------------------------------------------------------------------
     674 0000001c 9805              LDR       A1, [SP, #20]         ; [DPU_V7M3_PIPE] |564|  ; [ORIG 16-BIT INS]
     675 0000001e 2800              CMP       A1, #0                ; [DPU_V7M3_PIPE] |564|  ; [ORIG 16-BIT INS]
     676 00000020 D060              BEQ       ||$C$L4||             ; [DPU_V7M3_PIPE] |564|  ; [ORIG 16-BIT INS]
     677                            ; BRANCHCC OCCURS {||$C$L4||}    ; [] |564| 
     678                    ;* --------------------------------------------------------------------------*
     679                            .dwpsn  file "../Source/tasks.c",line 600,column 4,is_stmt,isa 1
     680                    ;----------------------------------------------------------------------
     681                    ; 600 | pxTopOfStack = pxNewTCB->pxStack + ( usStackDepth - ( uint16_t ) 1 );  
     682                    ;----------------------------------------------------------------------
     683 00000022 9905              LDR       A2, [SP, #20]         ; [DPU_V7M3_PIPE] |600|  ; [ORIG 16-BIT INS]
     684 00000024 001CF8BD          LDRH      A1, [SP, #28]         ; [DPU_V7M3_PIPE] |600|  ; [KEEP 32-BIT INS]
     685 00000028 6B09              LDR       A2, [A2, #48]         ; [DPU_V7M3_PIPE] |600|  ; [ORIG 16-BIT INS]
     686 0000002a 1E40              SUBS      A1, A1, #1            ; [DPU_V7M3_PIPE] |600|  ; [ORIG 16-BIT INS]
     687 0000002c 0180EB01          ADD       A2, A2, A1, LSL #2    ; [DPU_V7M3_PIPE] |600|  ; [KEEP 32-BIT INS]
     688 00000030 9106              STR       A2, [SP, #24]         ; [DPU_V7M3_PIPE] |600|  ; [ORIG 16-BIT INS]
     689                            .dwpsn  file "../Source/tasks.c",line 601,column 4,is_stmt,isa 1
     690                    ;----------------------------------------------------------------------
     691                    ; 601 | pxTopOfStack = ( StackType_t * ) ( ( ( portPOINTER_SIZE_TYPE ) pxTopOfS
     692                    ;     | tack ) & ( ~( ( portPOINTER_SIZE_TYPE ) portBYTE_ALIGNMENT_MASK ) ) ); 
     693                    ;     | /*lint !e923 MISRA exception.  Avoiding casts between pointers and inte
     694                    ;     | gers is not practical.  Size differences accounted for using portPOINTE
     695                    ;     | R_SIZE_TYPE type. */                                                   
     696                    ; 604 | configASSERT( ( ( ( portPOINTER_SIZE_TYPE ) pxTopOfStack & ( portPOINTE
     697                    ;     | R_SIZE_TYPE ) portBYTE_ALIGNMENT_MASK ) == 0UL ) );                    
     698                    ; 606 | #else /* portSTACK_GROWTH */                                           
     699                    ; 608 | pxTopOfStack = pxNewTCB->pxStack;                                      
     700                    ; 611 | configASSERT( ( ( ( portPOINTER_SIZE_TYPE ) pxNewTCB->pxStack & ( portP
     701                    ;     | OINTER_SIZE_TYPE ) portBYTE_ALIGNMENT_MASK ) == 0UL ) );               
     702                    ; 616 | pxNewTCB->pxEndOfStack = pxNewTCB->pxStack + ( usStackDepth - 1 );     
     703                    ; 618 | #endif /* portSTACK_GROWTH */                                          
     704                    ;----------------------------------------------------------------------
     705 00000032 9806              LDR       A1, [SP, #24]         ; [DPU_V7M3_PIPE] |601|  ; [ORIG 16-BIT INS]
     706 00000034 0007F020          BIC       A1, A1, #7            ; [DPU_V7M3_PIPE] |601|  ; [KEEP 32-BIT INS]
     707 00000038 9006              STR       A1, [SP, #24]         ; [DPU_V7M3_PIPE] |601|  ; [ORIG 16-BIT INS]
     708                            .dwpsn  file "../Source/tasks.c",line 621,column 3,is_stmt,isa 1
     709                    ;----------------------------------------------------------------------
     710                    ; 621 | prvInitialiseTCBVariables( pxNewTCB, pcName, uxPriority, xRegions, usSt
     711                    ;     | ackDepth );                                                            
     712                    ; 627 | #if( portUSING_MPU_WRAPPERS == 1 )                                     
     713                    ; 629 |         pxNewTCB->pxTopOfStack = pxPortInitialiseStack( pxTopOfStack, p
     714                    ;     | xTaskCode, pvParameters, xRunPrivileged );                             
     715                    ; 631 | #else /* portUSING_MPU_WRAPPERS */                                     
TI ARM Assembler PC v18.1.2 Thu Aug 23 17:26:18 2018

Tools Copyright (c) 1996-2017 Texas Instruments Incorporated
tasks.asm                                                            PAGE   14

     716                    ;----------------------------------------------------------------------
     717 0000003a 001CF8BD          LDRH      A1, [SP, #28]         ; [DPU_V7M3_PIPE] |621|  ; [KEEP 32-BIT INS]
     718 0000003e 9A0A              LDR       A3, [SP, #40]         ; [DPU_V7M3_PIPE] |621|  ; [ORIG 16-BIT INS]
     719 00000040 9B0D              LDR       A4, [SP, #52]         ; [DPU_V7M3_PIPE] |621|  ; [ORIG 16-BIT INS]
     720 00000042 9000              STR       A1, [SP, #0]          ; [DPU_V7M3_PIPE] |621|  ; [ORIG 16-BIT INS]
     721 00000044 9902              LDR       A2, [SP, #8]          ; [DPU_V7M3_PIPE] |621|  ; [ORIG 16-BIT INS]
     722 00000046 9805              LDR       A1, [SP, #20]         ; [DPU_V7M3_PIPE] |621|  ; [ORIG 16-BIT INS]
     723                    $C$DW$67        .dwtag  DW_TAG_TI_branch
     724                            .dwattr $C$DW$67, DW_AT_low_pc(0x00)
     725                            .dwattr $C$DW$67, DW_AT_name("prvInitialiseTCBVariables")
     726                            .dwattr $C$DW$67, DW_AT_TI_call
     727                    
     728 00000048 FFFEF7FF!         BL        prvInitialiseTCBVariables ; [DPU_V7M3_PIPE] |621|  ; [KEEP 32-BIT INS]
     729                            ; CALL OCCURS {prvInitialiseTCBVariables }  ; [] |621| 
     730                            .dwpsn  file "../Source/tasks.c",line 633,column 4,is_stmt,isa 1
     731                    ;----------------------------------------------------------------------
     732                    ; 633 | pxNewTCB->pxTopOfStack = pxPortInitialiseStack( pxTopOfStack, pxTaskCod
     733                    ;     | e, pvParameters );                                                     
     734                    ; 635 | #endif /* portUSING_MPU_WRAPPERS */                                    
     735                    ;----------------------------------------------------------------------
     736 0000004c 9806              LDR       A1, [SP, #24]         ; [DPU_V7M3_PIPE] |633|  ; [ORIG 16-BIT INS]
     737 0000004e 9901              LDR       A2, [SP, #4]          ; [DPU_V7M3_PIPE] |633|  ; [ORIG 16-BIT INS]
     738 00000050 9A03              LDR       A3, [SP, #12]         ; [DPU_V7M3_PIPE] |633|  ; [ORIG 16-BIT INS]
     739                    $C$DW$68        .dwtag  DW_TAG_TI_branch
     740                            .dwattr $C$DW$68, DW_AT_low_pc(0x00)
     741                            .dwattr $C$DW$68, DW_AT_name("pxPortInitialiseStack")
     742                            .dwattr $C$DW$68, DW_AT_TI_call
     743                    
     744 00000052 FFFEF7FF!         BL        pxPortInitialiseStack ; [DPU_V7M3_PIPE] |633|  ; [KEEP 32-BIT INS]
     745                            ; CALL OCCURS {pxPortInitialiseStack }  ; [] |633| 
     746 00000056 9905              LDR       A2, [SP, #20]         ; [DPU_V7M3_PIPE] |633|  ; [ORIG 16-BIT INS]
     747 00000058 6008              STR       A1, [A2, #0]          ; [DPU_V7M3_PIPE] |633|  ; [ORIG 16-BIT INS]
     748                            .dwpsn  file "../Source/tasks.c",line 637,column 3,is_stmt,isa 1
     749                    ;----------------------------------------------------------------------
     750                    ; 637 | if( ( void * ) pxCreatedTask != NULL )                                 
     751                    ;----------------------------------------------------------------------
     752 0000005a 980B              LDR       A1, [SP, #44]         ; [DPU_V7M3_PIPE] |637|  ; [ORIG 16-BIT INS]
     753 0000005c B110              CBZ       A1, ||$C$L1||         ; []  ; [ORIG 16-BIT INS]
     754                            ; BRANCHCC OCCURS {||$C$L1||}    ; [] |637| 
     755                    ;* --------------------------------------------------------------------------*
     756                            .dwpsn  file "../Source/tasks.c",line 642,column 4,is_stmt,isa 1
     757                    ;----------------------------------------------------------------------
     758                    ; 642 | *pxCreatedTask = ( TaskHandle_t ) pxNewTCB;                            
     759                    ;----------------------------------------------------------------------
     760 0000005e 9805              LDR       A1, [SP, #20]         ; [DPU_V7M3_PIPE] |642|  ; [ORIG 16-BIT INS]
     761 00000060 990B              LDR       A2, [SP, #44]         ; [DPU_V7M3_PIPE] |642|  ; [ORIG 16-BIT INS]
     762 00000062 6008              STR       A1, [A2, #0]          ; [DPU_V7M3_PIPE] |642|  ; [ORIG 16-BIT INS]
     763                            .dwpsn  file "../Source/tasks.c",line 643,column 3,is_stmt,isa 1
     764                    ;----------------------------------------------------------------------
     765                    ; 644 | else                                                                   
     766                    ; 646 |         mtCOVERAGE_TEST_MARKER();                                      
     767                    ;----------------------------------------------------------------------
     768                    ;* --------------------------------------------------------------------------*
     769 00000064           ||$C$L1||:    
     770                            .dwpsn  file "../Source/tasks.c",line 651,column 3,is_stmt,isa 1
TI ARM Assembler PC v18.1.2 Thu Aug 23 17:26:18 2018

Tools Copyright (c) 1996-2017 Texas Instruments Incorporated
tasks.asm                                                            PAGE   15

     771                    ;----------------------------------------------------------------------
     772                    ; 651 | taskENTER_CRITICAL();                                                  
     773                    ;----------------------------------------------------------------------
     774                    $C$DW$69        .dwtag  DW_TAG_TI_branch
     775                            .dwattr $C$DW$69, DW_AT_low_pc(0x00)
     776                            .dwattr $C$DW$69, DW_AT_name("vPortEnterCritical")
     777                            .dwattr $C$DW$69, DW_AT_TI_call
     778                    
     779 00000064 FFFEF7FF!         BL        vPortEnterCritical    ; [DPU_V7M3_PIPE] |651|  ; [KEEP 32-BIT INS]
     780                            ; CALL OCCURS {vPortEnterCritical }  ; [] |651| 
     781                            .dwpsn  file "../Source/tasks.c",line 653,column 4,is_stmt,isa 1
     782                    ;----------------------------------------------------------------------
     783                    ; 653 | uxCurrentNumberOfTasks++;                                              
     784                    ;----------------------------------------------------------------------
     785 00000068 4998              LDR       A2, $C$CON1           ; [DPU_V7M3_PIPE] |653|  ; [ORIG 16-BIT INS]
     786 0000006a 6808              LDR       A1, [A2, #0]          ; [DPU_V7M3_PIPE] |653|  ; [ORIG 16-BIT INS]
     787 0000006c 1C40              ADDS      A1, A1, #1            ; [DPU_V7M3_PIPE] |653|  ; [ORIG 16-BIT INS]
     788 0000006e 6008              STR       A1, [A2, #0]          ; [DPU_V7M3_PIPE] |653|  ; [ORIG 16-BIT INS]
     789                            .dwpsn  file "../Source/tasks.c",line 654,column 4,is_stmt,isa 1
     790                    ;----------------------------------------------------------------------
     791                    ; 654 | if( pxCurrentTCB == NULL )                                             
     792                    ;----------------------------------------------------------------------
     793 00000070 4897              LDR       A1, $C$CON2           ; [DPU_V7M3_PIPE] |654|  ; [ORIG 16-BIT INS]
     794 00000072 6800              LDR       A1, [A1, #0]          ; [DPU_V7M3_PIPE] |654|  ; [ORIG 16-BIT INS]
     795 00000074 B948              CBNZ      A1, ||$C$L2||         ; []  ; [ORIG 16-BIT INS]
     796                            ; BRANCHCC OCCURS {||$C$L2||}    ; [] |654| 
     797                    ;* --------------------------------------------------------------------------*
     798                            .dwpsn  file "../Source/tasks.c",line 658,column 5,is_stmt,isa 1
     799                    ;----------------------------------------------------------------------
     800                    ; 658 | pxCurrentTCB =  pxNewTCB;                                              
     801                    ;----------------------------------------------------------------------
     802 00000076 9805              LDR       A1, [SP, #20]         ; [DPU_V7M3_PIPE] |658|  ; [ORIG 16-BIT INS]
     803 00000078 4995              LDR       A2, $C$CON2           ; [DPU_V7M3_PIPE] |658|  ; [ORIG 16-BIT INS]
     804 0000007a 6008              STR       A1, [A2, #0]          ; [DPU_V7M3_PIPE] |658|  ; [ORIG 16-BIT INS]
     805                            .dwpsn  file "../Source/tasks.c",line 660,column 5,is_stmt,isa 1
     806                    ;----------------------------------------------------------------------
     807                    ; 660 | if( uxCurrentNumberOfTasks == ( UBaseType_t ) 1 )                      
     808                    ;----------------------------------------------------------------------
     809 0000007c 4893              LDR       A1, $C$CON1           ; [DPU_V7M3_PIPE] |660|  ; [ORIG 16-BIT INS]
     810 0000007e 6800              LDR       A1, [A1, #0]          ; [DPU_V7M3_PIPE] |660|  ; [ORIG 16-BIT INS]
     811 00000080 2801              CMP       A1, #1                ; [DPU_V7M3_PIPE] |660|  ; [ORIG 16-BIT INS]
     812 00000082 D10F              BNE       ||$C$L3||             ; [DPU_V7M3_PIPE] |660|  ; [ORIG 16-BIT INS]
     813                            ; BRANCHCC OCCURS {||$C$L3||}    ; [] |660| 
     814                    ;* --------------------------------------------------------------------------*
     815                            .dwpsn  file "../Source/tasks.c",line 665,column 6,is_stmt,isa 1
     816                    ;----------------------------------------------------------------------
     817                    ; 665 | prvInitialiseTaskLists();                                              
     818                    ;----------------------------------------------------------------------
     819                    $C$DW$70        .dwtag  DW_TAG_TI_branch
     820                            .dwattr $C$DW$70, DW_AT_low_pc(0x00)
     821                            .dwattr $C$DW$70, DW_AT_name("prvInitialiseTaskLists")
     822                            .dwattr $C$DW$70, DW_AT_TI_call
     823                    
     824 00000084 FFFEF7FF!         BL        prvInitialiseTaskLists ; [DPU_V7M3_PIPE] |665|  ; [KEEP 32-BIT INS]
     825                            ; CALL OCCURS {prvInitialiseTaskLists }  ; [] |665| 
TI ARM Assembler PC v18.1.2 Thu Aug 23 17:26:18 2018

Tools Copyright (c) 1996-2017 Texas Instruments Incorporated
tasks.asm                                                            PAGE   16

     826                            .dwpsn  file "../Source/tasks.c",line 666,column 5,is_stmt,isa 1
     827                    ;----------------------------------------------------------------------
     828                    ; 667 | else                                                                   
     829                    ; 669 |         mtCOVERAGE_TEST_MARKER();                                      
     830                    ; 672 | else                                                                   
     831                    ;----------------------------------------------------------------------
     832 00000088 E00C              B         ||$C$L3||             ; [DPU_V7M3_PIPE] |666|  ; [ORIG 16-BIT INS]
     833                            ; BRANCH OCCURS {||$C$L3||}      ; [] |666| 
     834                    ;* --------------------------------------------------------------------------*
     835                    ;* --------------------------------------------------------------------------*
     836 0000008a           ||$C$L2||:    
     837                            .dwpsn  file "../Source/tasks.c",line 677,column 5,is_stmt,isa 1
     838                    ;----------------------------------------------------------------------
     839                    ; 677 | if( xSchedulerRunning == pdFALSE )                                     
     840                    ;----------------------------------------------------------------------
     841 0000008a 48A1              LDR       A1, $C$CON3           ; [DPU_V7M3_PIPE] |677|  ; [ORIG 16-BIT INS]
     842 0000008c 6800              LDR       A1, [A1, #0]          ; [DPU_V7M3_PIPE] |677|  ; [ORIG 16-BIT INS]
     843 0000008e B948              CBNZ      A1, ||$C$L3||         ; []  ; [ORIG 16-BIT INS]
     844                            ; BRANCHCC OCCURS {||$C$L3||}    ; [] |677| 
     845                    ;* --------------------------------------------------------------------------*
     846                            .dwpsn  file "../Source/tasks.c",line 679,column 6,is_stmt,isa 1
     847                    ;----------------------------------------------------------------------
     848                    ; 679 | if( pxCurrentTCB->uxPriority <= uxPriority )                           
     849                    ;----------------------------------------------------------------------
     850 00000090 488F              LDR       A1, $C$CON2           ; [DPU_V7M3_PIPE] |679|  ; [ORIG 16-BIT INS]
     851 00000092 6801              LDR       A2, [A1, #0]          ; [DPU_V7M3_PIPE] |679|  ; [ORIG 16-BIT INS]
     852 00000094 980A              LDR       A1, [SP, #40]         ; [DPU_V7M3_PIPE] |679|  ; [ORIG 16-BIT INS]
     853 00000096 6AC9              LDR       A2, [A2, #44]         ; [DPU_V7M3_PIPE] |679|  ; [ORIG 16-BIT INS]
     854 00000098 4288              CMP       A1, A2                ; [DPU_V7M3_PIPE] |679|  ; [ORIG 16-BIT INS]
     855 0000009a D303              BCC       ||$C$L3||             ; [DPU_V7M3_PIPE] |679|  ; [ORIG 16-BIT INS]
     856                            ; BRANCHCC OCCURS {||$C$L3||}    ; [] |679| 
     857                    ;* --------------------------------------------------------------------------*
     858                            .dwpsn  file "../Source/tasks.c",line 681,column 7,is_stmt,isa 1
     859                    ;----------------------------------------------------------------------
     860                    ; 681 | pxCurrentTCB = pxNewTCB;                                               
     861                    ;----------------------------------------------------------------------
     862 0000009c 9805              LDR       A1, [SP, #20]         ; [DPU_V7M3_PIPE] |681|  ; [ORIG 16-BIT INS]
     863 0000009e 498C              LDR       A2, $C$CON2           ; [DPU_V7M3_PIPE] |681|  ; [ORIG 16-BIT INS]
     864 000000a0 6008              STR       A1, [A2, #0]          ; [DPU_V7M3_PIPE] |681|  ; [ORIG 16-BIT INS]
     865                            .dwpsn  file "../Source/tasks.c",line 682,column 6,is_stmt,isa 1
     866                    ;----------------------------------------------------------------------
     867                    ; 683 | else                                                                   
     868                    ; 685 |         mtCOVERAGE_TEST_MARKER();                                      
     869                    ; 688 | else                                                                   
     870                    ; 690 | mtCOVERAGE_TEST_MARKER();                                              
     871                    ;----------------------------------------------------------------------
     872 000000a2 E7FF              B         ||$C$L3||             ; [DPU_V7M3_PIPE] |682|  ; [ORIG 16-BIT INS]
     873                            ; BRANCH OCCURS {||$C$L3||}      ; [] |682| 
     874                    ;* --------------------------------------------------------------------------*
     875                    ;* --------------------------------------------------------------------------*
     876 000000a4           ||$C$L3||:    
     877                            .dwpsn  file "../Source/tasks.c",line 694,column 4,is_stmt,isa 1
     878                    ;----------------------------------------------------------------------
     879                    ; 694 | uxTaskNumber++;                                                        
     880                    ; 696 | #if ( configUSE_TRACE_FACILITY == 1 )                                  
TI ARM Assembler PC v18.1.2 Thu Aug 23 17:26:18 2018

Tools Copyright (c) 1996-2017 Texas Instruments Incorporated
tasks.asm                                                            PAGE   17

     881                    ;----------------------------------------------------------------------
     882 000000a4 499B              LDR       A2, $C$CON4           ; [DPU_V7M3_PIPE] |694|  ; [ORIG 16-BIT INS]
     883 000000a6 6808              LDR       A1, [A2, #0]          ; [DPU_V7M3_PIPE] |694|  ; [ORIG 16-BIT INS]
     884 000000a8 1C40              ADDS      A1, A1, #1            ; [DPU_V7M3_PIPE] |694|  ; [ORIG 16-BIT INS]
     885 000000aa 6008              STR       A1, [A2, #0]          ; [DPU_V7M3_PIPE] |694|  ; [ORIG 16-BIT INS]
     886                            .dwpsn  file "../Source/tasks.c",line 699,column 5,is_stmt,isa 1
     887                    ;----------------------------------------------------------------------
     888                    ; 699 | pxNewTCB->uxTCBNumber = uxTaskNumber;                                  
     889                    ; 701 | #endif /* configUSE_TRACE_FACILITY */                                  
     890                    ; 702 | traceTASK_CREATE( pxNewTCB );                                          
     891                    ;----------------------------------------------------------------------
     892 000000ac 4899              LDR       A1, $C$CON4           ; [DPU_V7M3_PIPE] |699|  ; [ORIG 16-BIT INS]
     893 000000ae 9905              LDR       A2, [SP, #20]         ; [DPU_V7M3_PIPE] |699|  ; [ORIG 16-BIT INS]
     894 000000b0 6800              LDR       A1, [A1, #0]          ; [DPU_V7M3_PIPE] |699|  ; [ORIG 16-BIT INS]
     895 000000b2 6448              STR       A1, [A2, #68]         ; [DPU_V7M3_PIPE] |699|  ; [ORIG 16-BIT INS]
     896                            .dwpsn  file "../Source/tasks.c",line 704,column 4,is_stmt,isa 1
     897                    ;----------------------------------------------------------------------
     898                    ; 704 | prvAddTaskToReadyList( pxNewTCB );                                     
     899                    ;----------------------------------------------------------------------
     900 000000b4 4A98              LDR       A3, $C$CON5           ; [DPU_V7M3_PIPE] |704|  ; [ORIG 16-BIT INS]
     901 000000b6 9805              LDR       A1, [SP, #20]         ; [DPU_V7M3_PIPE] |704|  ; [ORIG 16-BIT INS]
     902 000000b8 6813              LDR       A4, [A3, #0]          ; [DPU_V7M3_PIPE] |704|  ; [ORIG 16-BIT INS]
     903 000000ba 9905              LDR       A2, [SP, #20]         ; [DPU_V7M3_PIPE] |704|  ; [ORIG 16-BIT INS]
     904 000000bc 6AC4              LDR       V1, [A1, #44]         ; [DPU_V7M3_PIPE] |704|  ; [ORIG 16-BIT INS]
     905 000000be 2001              MOVS      A1, #1                ; [DPU_V7M3_PIPE] |704|  ; [ORIG 16-BIT INS]
     906 000000c0 40A0              LSLS      A1, A1, V1            ; [DPU_V7M3_PIPE] |704|  ; [ORIG 16-BIT INS]
     907 000000c2 4318              ORRS      A1, A1, A4            ; [DPU_V7M3_PIPE] |704|  ; [ORIG 16-BIT INS]
     908 000000c4 6010              STR       A1, [A3, #0]          ; [DPU_V7M3_PIPE] |704|  ; [ORIG 16-BIT INS]
     909 000000c6 4B95              LDR       A4, $C$CON6           ; [DPU_V7M3_PIPE] |704|  ; [ORIG 16-BIT INS]
     910 000000c8 6ACA              LDR       A3, [A2, #44]         ; [DPU_V7M3_PIPE] |704|  ; [ORIG 16-BIT INS]
     911 000000ca 9905              LDR       A2, [SP, #20]         ; [DPU_V7M3_PIPE] |704|  ; [ORIG 16-BIT INS]
     912 000000cc 0090              LSLS      A1, A3, #2            ; [DPU_V7M3_PIPE] |704|  ; [ORIG 16-BIT INS]
     913 000000ce 1002EB00          ADD       A1, A1, A3, LSL #4    ; [DPU_V7M3_PIPE] |704|  ; [KEEP 32-BIT INS]
     914 000000d2 1D09              ADDS      A2, A2, #4            ; [DPU_V7M3_PIPE] |704|  ; [ORIG 16-BIT INS]
     915 000000d4 18C0              ADDS      A1, A1, A4            ; [DPU_V7M3_PIPE] |704|  ; [ORIG 16-BIT INS]
     916                    $C$DW$71        .dwtag  DW_TAG_TI_branch
     917                            .dwattr $C$DW$71, DW_AT_low_pc(0x00)
     918                            .dwattr $C$DW$71, DW_AT_name("vListInsertEnd")
     919                            .dwattr $C$DW$71, DW_AT_TI_call
     920                    
     921 000000d6 FFFEF7FF!         BL        vListInsertEnd        ; [DPU_V7M3_PIPE] |704|  ; [KEEP 32-BIT INS]
     922                            ; CALL OCCURS {vListInsertEnd }  ; [] |704| 
     923                            .dwpsn  file "../Source/tasks.c",line 706,column 4,is_stmt,isa 1
     924                    ;----------------------------------------------------------------------
     925                    ; 706 | xReturn = pdPASS;                                                      
     926                    ;----------------------------------------------------------------------
     927 000000da 2001              MOVS      A1, #1                ; [DPU_V7M3_PIPE] |706|  ; [ORIG 16-BIT INS]
     928 000000dc 9004              STR       A1, [SP, #16]         ; [DPU_V7M3_PIPE] |706|  ; [ORIG 16-BIT INS]
     929                            .dwpsn  file "../Source/tasks.c",line 707,column 4,is_stmt,isa 1
     930                    ;----------------------------------------------------------------------
     931                    ; 707 | portSETUP_TCB( pxNewTCB );                                             
     932                    ;----------------------------------------------------------------------
     933                            .dwpsn  file "../Source/tasks.c",line 709,column 3,is_stmt,isa 1
     934                    ;----------------------------------------------------------------------
     935                    ; 709 | taskEXIT_CRITICAL();                                                   
TI ARM Assembler PC v18.1.2 Thu Aug 23 17:26:18 2018

Tools Copyright (c) 1996-2017 Texas Instruments Incorporated
tasks.asm                                                            PAGE   18

     936                    ;----------------------------------------------------------------------
     937                    $C$DW$72        .dwtag  DW_TAG_TI_branch
     938                            .dwattr $C$DW$72, DW_AT_low_pc(0x00)
     939                            .dwattr $C$DW$72, DW_AT_name("vPortExitCritical")
     940                            .dwattr $C$DW$72, DW_AT_TI_call
     941                    
     942 000000de FFFEF7FF!         BL        vPortExitCritical     ; [DPU_V7M3_PIPE] |709|  ; [KEEP 32-BIT INS]
     943                            ; CALL OCCURS {vPortExitCritical }  ; [] |709| 
     944                            .dwpsn  file "../Source/tasks.c",line 710,column 2,is_stmt,isa 1
     945                    ;----------------------------------------------------------------------
     946                    ; 711 | else                                                                   
     947                    ;----------------------------------------------------------------------
     948 000000e2 E002              B         ||$C$L5||             ; [DPU_V7M3_PIPE] |710|  ; [ORIG 16-BIT INS]
     949                            ; BRANCH OCCURS {||$C$L5||}      ; [] |710| 
     950                    ;* --------------------------------------------------------------------------*
     951 000000e4           ||$C$L4||:    
     952                            .dwpsn  file "../Source/tasks.c",line 713,column 3,is_stmt,isa 1
     953                    ;----------------------------------------------------------------------
     954                    ; 713 | xReturn = errCOULD_NOT_ALLOCATE_REQUIRED_MEMORY;                       
     955                    ; 714 | traceTASK_CREATE_FAILED();                                             
     956                    ;----------------------------------------------------------------------
     957 000000e4 30FFF04F          MOV       A1, #-1               ; [DPU_V7M3_PIPE] |713|  ; [KEEP 32-BIT INS]
     958 000000e8 9004              STR       A1, [SP, #16]         ; [DPU_V7M3_PIPE] |713|  ; [ORIG 16-BIT INS]
     959                    ;* --------------------------------------------------------------------------*
     960 000000ea           ||$C$L5||:    
     961                            .dwpsn  file "../Source/tasks.c",line 717,column 2,is_stmt,isa 1
     962                    ;----------------------------------------------------------------------
     963                    ; 717 | if( xReturn == pdPASS )                                                
     964                    ;----------------------------------------------------------------------
     965 000000ea 9804              LDR       A1, [SP, #16]         ; [DPU_V7M3_PIPE] |717|  ; [ORIG 16-BIT INS]
     966 000000ec 2801              CMP       A1, #1                ; [DPU_V7M3_PIPE] |717|  ; [ORIG 16-BIT INS]
     967 000000ee D108              BNE       ||$C$L6||             ; [DPU_V7M3_PIPE] |717|  ; [ORIG 16-BIT INS]
     968                            ; BRANCHCC OCCURS {||$C$L6||}    ; [] |717| 
     969                    ;* --------------------------------------------------------------------------*
     970                            .dwpsn  file "../Source/tasks.c",line 719,column 3,is_stmt,isa 1
     971                    ;----------------------------------------------------------------------
     972                    ; 719 | if( xSchedulerRunning != pdFALSE )                                     
     973                    ;----------------------------------------------------------------------
     974 000000f0 4887              LDR       A1, $C$CON3           ; [DPU_V7M3_PIPE] |719|  ; [ORIG 16-BIT INS]
     975 000000f2 6800              LDR       A1, [A1, #0]          ; [DPU_V7M3_PIPE] |719|  ; [ORIG 16-BIT INS]
     976 000000f4 B128              CBZ       A1, ||$C$L6||         ; []  ; [ORIG 16-BIT INS]
     977                            ; BRANCHCC OCCURS {||$C$L6||}    ; [] |719| 
     978                    ;* --------------------------------------------------------------------------*
     979                            .dwpsn  file "../Source/tasks.c",line 723,column 4,is_stmt,isa 1
     980                    ;----------------------------------------------------------------------
     981                    ; 723 | if( pxCurrentTCB->uxPriority < uxPriority )                            
     982                    ; 725 |         taskYIELD_IF_USING_PREEMPTION();                               
     983                    ;----------------------------------------------------------------------
     984 000000f6 4876              LDR       A1, $C$CON2           ; [DPU_V7M3_PIPE] |723|  ; [ORIG 16-BIT INS]
     985 000000f8 6801              LDR       A2, [A1, #0]          ; [DPU_V7M3_PIPE] |723|  ; [ORIG 16-BIT INS]
     986 000000fa 980A              LDR       A1, [SP, #40]         ; [DPU_V7M3_PIPE] |723|  ; [ORIG 16-BIT INS]
     987 000000fc 6AC9              LDR       A2, [A2, #44]         ; [DPU_V7M3_PIPE] |723|  ; [ORIG 16-BIT INS]
     988 000000fe 4288              CMP       A1, A2                ; [DPU_V7M3_PIPE] |723|  ; [ORIG 16-BIT INS]
     989 00000100 D8FF              BHI       ||$C$L6||             ; [DPU_V7M3_PIPE] |723|  ; [ORIG 16-BIT INS]
     990                            ; BRANCHCC OCCURS {||$C$L6||}    ; [] |723| 
TI ARM Assembler PC v18.1.2 Thu Aug 23 17:26:18 2018

Tools Copyright (c) 1996-2017 Texas Instruments Incorporated
tasks.asm                                                            PAGE   19

     991                    ;* --------------------------------------------------------------------------*
     992                            .dwpsn  file "../Source/tasks.c",line 726,column 4,is_stmt,isa 1
     993                    ;----------------------------------------------------------------------
     994                    ; 727 | else                                                                   
     995                    ; 729 |         mtCOVERAGE_TEST_MARKER();                                      
     996                    ;----------------------------------------------------------------------
     997                            .dwpsn  file "../Source/tasks.c",line 731,column 3,is_stmt,isa 1
     998                    ;----------------------------------------------------------------------
     999                    ; 732 | else                                                                   
    1000                    ; 734 |         mtCOVERAGE_TEST_MARKER();                                      
    1001                    ;----------------------------------------------------------------------
    1002                    ;* --------------------------------------------------------------------------*
    1003 00000102           ||$C$L6||:    
    1004                            .dwpsn  file "../Source/tasks.c",line 738,column 2,is_stmt,isa 1
    1005                    ;----------------------------------------------------------------------
    1006                    ; 738 | return xReturn;                                                        
    1007                    ;----------------------------------------------------------------------
    1008 00000102 9804              LDR       A1, [SP, #16]         ; [DPU_V7M3_PIPE] |738|  ; [ORIG 16-BIT INS]
    1009                            .dwpsn  file "../Source/tasks.c",line 739,column 1,is_stmt,isa 1
    1010 00000104 B008              ADD       SP, SP, #32           ; [DPU_V7M3_PIPE]  ; [ORIG 16-BIT INS]
    1011                            .dwcfi  cfa_offset, 8
    1012                    $C$DW$73        .dwtag  DW_TAG_TI_branch
    1013                            .dwattr $C$DW$73, DW_AT_low_pc(0x00)
    1014                            .dwattr $C$DW$73, DW_AT_TI_return
    1015                    
    1016 00000106 BD10              POP       {V1, PC}              ; [DPU_V7M3_PIPE]  ; [ORIG 16-BIT INS]
    1017                            .dwcfi  cfa_offset, 0
    1018                            .dwcfi  restore_reg, 4
    1019                            ; BRANCH OCCURS                  ; [] 
    1020                            .dwattr $C$DW$50, DW_AT_TI_end_file("../Source/tasks.c")
    1021                            .dwattr $C$DW$50, DW_AT_TI_end_line(0x2e3)
    1022                            .dwattr $C$DW$50, DW_AT_TI_end_column(0x01)
    1023                            .dwendentry
    1024                            .dwendtag $C$DW$50
    1025                    
    1026 00000108                   .sect   ".text"
    1027                            .clink
    1028                            .thumbfunc vTaskDelete
    1029 00000108                   .thumb
    1030                            .global vTaskDelete
    1031                    
    1032                    $C$DW$74        .dwtag  DW_TAG_subprogram
    1033                            .dwattr $C$DW$74, DW_AT_name("vTaskDelete")
    1034                            .dwattr $C$DW$74, DW_AT_low_pc(vTaskDelete)
    1035                            .dwattr $C$DW$74, DW_AT_high_pc(0x00)
    1036                            .dwattr $C$DW$74, DW_AT_TI_symbol_name("vTaskDelete")
    1037                            .dwattr $C$DW$74, DW_AT_external
    1038                            .dwattr $C$DW$74, DW_AT_TI_begin_file("../Source/tasks.c")
    1039                            .dwattr $C$DW$74, DW_AT_TI_begin_line(0x2e8)
    1040                            .dwattr $C$DW$74, DW_AT_TI_begin_column(0x07)
    1041                            .dwattr $C$DW$74, DW_AT_decl_file("../Source/tasks.c")
    1042                            .dwattr $C$DW$74, DW_AT_decl_line(0x2e8)
    1043                            .dwattr $C$DW$74, DW_AT_decl_column(0x07)
    1044                            .dwattr $C$DW$74, DW_AT_TI_max_frame_size(0x10)
    1045                            .dwpsn  file "../Source/tasks.c",line 745,column 2,is_stmt,address vTaskDelete,isa 1
TI ARM Assembler PC v18.1.2 Thu Aug 23 17:26:18 2018

Tools Copyright (c) 1996-2017 Texas Instruments Incorporated
tasks.asm                                                            PAGE   20

    1046                    
    1047                            .dwfde $C$DW$CIE, vTaskDelete
    1048                    $C$DW$75        .dwtag  DW_TAG_formal_parameter
    1049                            .dwattr $C$DW$75, DW_AT_name("xTaskToDelete")
    1050                            .dwattr $C$DW$75, DW_AT_TI_symbol_name("xTaskToDelete")
    1051                            .dwattr $C$DW$75, DW_AT_type(*$C$DW$T$65)
    1052                            .dwattr $C$DW$75, DW_AT_location[DW_OP_reg0]
    1053                    
    1054                    ;----------------------------------------------------------------------
    1055                    ; 744 | void vTaskDelete( TaskHandle_t xTaskToDelete )                         
    1056                    ;----------------------------------------------------------------------
    1057                    
    1058                    ;*****************************************************************************
    1059                    ;* FUNCTION NAME: vTaskDelete                                                *
    1060                    ;*                                                                           *
    1061                    ;*   Regs Modified     : A1,A2,A3,A4,V9,SP,LR,SR,D0,D0_hi,D1,D1_hi,D2,D2_hi, *
    1062                    ;*                           D3,D3_hi,D4,D4_hi,D5,D5_hi,D6,D6_hi,D7,D7_hi,   *
    1063                    ;*                           FPEXC,FPSCR                                     *
    1064                    ;*   Regs Used         : A1,A2,A3,A4,V9,SP,LR,SR,D0,D0_hi,D1,D1_hi,D2,D2_hi, *
    1065                    ;*                           D3,D3_hi,D4,D4_hi,D5,D5_hi,D6,D6_hi,D7,D7_hi,   *
    1066                    ;*                           FPEXC,FPSCR                                     *
    1067                    ;*   Local Frame Size  : 0 Args + 8 Auto + 4 Save = 12 byte                  *
    1068                    ;*****************************************************************************
    1069 00000108           vTaskDelete:
    1070                    ;* --------------------------------------------------------------------------*
    1071                            .dwcfi  cfa_offset, 0
    1072 00000108 B50E              PUSH      {A2, A3, A4, LR}      ; [DPU_V7M3_PIPE]  ; [ORIG 16-BIT INS]
    1073                            .dwcfi  cfa_offset, 16
    1074                            .dwcfi  save_reg_to_mem, 14, -4
    1075                            .dwcfi  save_reg_to_mem, 3, -8
    1076                            .dwcfi  save_reg_to_mem, 2, -12
    1077                            .dwcfi  save_reg_to_mem, 1, -16
    1078                    $C$DW$76        .dwtag  DW_TAG_variable
    1079                            .dwattr $C$DW$76, DW_AT_name("xTaskToDelete")
    1080                            .dwattr $C$DW$76, DW_AT_TI_symbol_name("xTaskToDelete")
    1081                            .dwattr $C$DW$76, DW_AT_type(*$C$DW$T$65)
    1082                            .dwattr $C$DW$76, DW_AT_location[DW_OP_breg13 0]
    1083                    
    1084                    $C$DW$77        .dwtag  DW_TAG_variable
    1085                            .dwattr $C$DW$77, DW_AT_name("pxTCB")
    1086                            .dwattr $C$DW$77, DW_AT_TI_symbol_name("pxTCB")
    1087                            .dwattr $C$DW$77, DW_AT_type(*$C$DW$T$128)
    1088                            .dwattr $C$DW$77, DW_AT_location[DW_OP_breg13 4]
    1089                    
    1090                    ;----------------------------------------------------------------------
    1091                    ; 746 | TCB_t *pxTCB;                                                          
    1092                    ;----------------------------------------------------------------------
    1093 0000010a 9000              STR       A1, [SP, #0]          ; [DPU_V7M3_PIPE] |745|  ; [ORIG 16-BIT INS]
    1094                            .dwpsn  file "../Source/tasks.c",line 748,column 3,is_stmt,isa 1
    1095                    ;----------------------------------------------------------------------
    1096                    ; 748 | taskENTER_CRITICAL();                                                  
    1097                    ;----------------------------------------------------------------------
    1098                    $C$DW$78        .dwtag  DW_TAG_TI_branch
    1099                            .dwattr $C$DW$78, DW_AT_low_pc(0x00)
    1100                            .dwattr $C$DW$78, DW_AT_name("vPortEnterCritical")
TI ARM Assembler PC v18.1.2 Thu Aug 23 17:26:18 2018

Tools Copyright (c) 1996-2017 Texas Instruments Incorporated
tasks.asm                                                            PAGE   21

    1101                            .dwattr $C$DW$78, DW_AT_TI_call
    1102                    
    1103 0000010c FFFEF7FF!         BL        vPortEnterCritical    ; [DPU_V7M3_PIPE] |748|  ; [KEEP 32-BIT INS]
    1104                            ; CALL OCCURS {vPortEnterCritical }  ; [] |748| 
    1105                            .dwpsn  file "../Source/tasks.c",line 752,column 4,is_stmt,isa 1
    1106                    ;----------------------------------------------------------------------
    1107                    ; 752 | pxTCB = prvGetTCBFromHandle( xTaskToDelete );                          
    1108                    ;----------------------------------------------------------------------
    1109 00000110 9800              LDR       A1, [SP, #0]          ; [DPU_V7M3_PIPE] |752|  ; [ORIG 16-BIT INS]
    1110 00000112 B910              CBNZ      A1, ||$C$L7||         ; []  ; [ORIG 16-BIT INS]
    1111                            ; BRANCHCC OCCURS {||$C$L7||}    ; [] |752| 
    1112                    ;* --------------------------------------------------------------------------*
    1113 00000114 486E              LDR       A1, $C$CON2           ; [DPU_V7M3_PIPE] |752|  ; [ORIG 16-BIT INS]
    1114 00000116 6800              LDR       A1, [A1, #0]          ; [DPU_V7M3_PIPE] |752|  ; [ORIG 16-BIT INS]
    1115 00000118 E000              B         ||$C$L8||             ; [DPU_V7M3_PIPE] |752|  ; [ORIG 16-BIT INS]
    1116                            ; BRANCH OCCURS {||$C$L8||}      ; [] |752| 
    1117                    ;* --------------------------------------------------------------------------*
    1118 0000011a           ||$C$L7||:    
    1119 0000011a 9800              LDR       A1, [SP, #0]          ; [DPU_V7M3_PIPE] |752|  ; [ORIG 16-BIT INS]
    1120                    ;* --------------------------------------------------------------------------*
    1121 0000011c           ||$C$L8||:    
    1122 0000011c 9001              STR       A1, [SP, #4]          ; [DPU_V7M3_PIPE] |752|  ; [ORIG 16-BIT INS]
    1123                            .dwpsn  file "../Source/tasks.c",line 758,column 4,is_stmt,isa 1
    1124                    ;----------------------------------------------------------------------
    1125                    ; 758 | if( uxListRemove( &( pxTCB->xGenericListItem ) ) == ( UBaseType_t ) 0 )
    1126                    ;----------------------------------------------------------------------
    1127 0000011e 9801              LDR       A1, [SP, #4]          ; [DPU_V7M3_PIPE] |758|  ; [ORIG 16-BIT INS]
    1128 00000120 1D00              ADDS      A1, A1, #4            ; [DPU_V7M3_PIPE] |758|  ; [ORIG 16-BIT INS]
    1129                    $C$DW$79        .dwtag  DW_TAG_TI_branch
    1130                            .dwattr $C$DW$79, DW_AT_low_pc(0x00)
    1131                            .dwattr $C$DW$79, DW_AT_name("uxListRemove")
    1132                            .dwattr $C$DW$79, DW_AT_TI_call
    1133                    
    1134 00000122 FFFEF7FF!         BL        uxListRemove          ; [DPU_V7M3_PIPE] |758|  ; [KEEP 32-BIT INS]
    1135                            ; CALL OCCURS {uxListRemove }    ; [] |758| 
    1136 00000126 B978              CBNZ      A1, ||$C$L9||         ; []  ; [ORIG 16-BIT INS]
    1137                            ; BRANCHCC OCCURS {||$C$L9||}    ; [] |758| 
    1138                    ;* --------------------------------------------------------------------------*
    1139                            .dwpsn  file "../Source/tasks.c",line 760,column 5,is_stmt,isa 1
    1140                    ;----------------------------------------------------------------------
    1141                    ; 760 | taskRESET_READY_PRIORITY( pxTCB->uxPriority );                         
    1142                    ;----------------------------------------------------------------------
    1143 00000128 9801              LDR       A1, [SP, #4]          ; [DPU_V7M3_PIPE] |760|  ; [ORIG 16-BIT INS]
    1144 0000012a 497C              LDR       A2, $C$CON6           ; [DPU_V7M3_PIPE] |760|  ; [ORIG 16-BIT INS]
    1145 0000012c 6AC2              LDR       A3, [A1, #44]         ; [DPU_V7M3_PIPE] |760|  ; [ORIG 16-BIT INS]
    1146 0000012e 0090              LSLS      A1, A3, #2            ; [DPU_V7M3_PIPE] |760|  ; [ORIG 16-BIT INS]
    1147 00000130 1002EB00          ADD       A1, A1, A3, LSL #4    ; [DPU_V7M3_PIPE] |760|  ; [KEEP 32-BIT INS]
    1148 00000134 5808              LDR       A1, [A2, +A1]         ; [DPU_V7M3_PIPE] |760|  ; [ORIG 16-BIT INS]
    1149 00000136 B938              CBNZ      A1, ||$C$L9||         ; []  ; [ORIG 16-BIT INS]
    1150                            ; BRANCHCC OCCURS {||$C$L9||}    ; [] |760| 
    1151                    ;* --------------------------------------------------------------------------*
    1152 00000138 9801              LDR       A1, [SP, #4]          ; [DPU_V7M3_PIPE] |760|  ; [ORIG 16-BIT INS]
    1153 0000013a 4A77              LDR       A3, $C$CON5           ; [DPU_V7M3_PIPE] |760|  ; [ORIG 16-BIT INS]
    1154 0000013c 6AC3              LDR       A4, [A1, #44]         ; [DPU_V7M3_PIPE] |760|  ; [ORIG 16-BIT INS]
    1155 0000013e 6811              LDR       A2, [A3, #0]          ; [DPU_V7M3_PIPE] |760|  ; [ORIG 16-BIT INS]
TI ARM Assembler PC v18.1.2 Thu Aug 23 17:26:18 2018

Tools Copyright (c) 1996-2017 Texas Instruments Incorporated
tasks.asm                                                            PAGE   22

    1156 00000140 2001              MOVS      A1, #1                ; [DPU_V7M3_PIPE] |760|  ; [ORIG 16-BIT INS]
    1157 00000142 4098              LSLS      A1, A1, A4            ; [DPU_V7M3_PIPE] |760|  ; [ORIG 16-BIT INS]
    1158 00000144 4381              BICS      A2, A2, A1            ; [DPU_V7M3_PIPE] |760|  ; [ORIG 16-BIT INS]
    1159 00000146 6011              STR       A2, [A3, #0]          ; [DPU_V7M3_PIPE] |760|  ; [ORIG 16-BIT INS]
    1160                            .dwpsn  file "../Source/tasks.c",line 761,column 4,is_stmt,isa 1
    1161                    ;----------------------------------------------------------------------
    1162                    ; 762 | else                                                                   
    1163                    ; 764 |         mtCOVERAGE_TEST_MARKER();                                      
    1164                    ;----------------------------------------------------------------------
    1165                    ;* --------------------------------------------------------------------------*
    1166 00000148           ||$C$L9||:    
    1167                            .dwpsn  file "../Source/tasks.c",line 768,column 4,is_stmt,isa 1
    1168                    ;----------------------------------------------------------------------
    1169                    ; 768 | if( listLIST_ITEM_CONTAINER( &( pxTCB->xEventListItem ) ) != NULL )    
    1170                    ;----------------------------------------------------------------------
    1171 00000148 9801              LDR       A1, [SP, #4]          ; [DPU_V7M3_PIPE] |768|  ; [ORIG 16-BIT INS]
    1172 0000014a 6A80              LDR       A1, [A1, #40]         ; [DPU_V7M3_PIPE] |768|  ; [ORIG 16-BIT INS]
    1173 0000014c B118              CBZ       A1, ||$C$L10||        ; []  ; [ORIG 16-BIT INS]
    1174                            ; BRANCHCC OCCURS {||$C$L10||}   ; [] |768| 
    1175                    ;* --------------------------------------------------------------------------*
    1176                            .dwpsn  file "../Source/tasks.c",line 770,column 5,is_stmt,isa 1
    1177                    ;----------------------------------------------------------------------
    1178                    ; 770 | ( void ) uxListRemove( &( pxTCB->xEventListItem ) );                   
    1179                    ;----------------------------------------------------------------------
    1180 0000014e 9801              LDR       A1, [SP, #4]          ; [DPU_V7M3_PIPE] |770|  ; [ORIG 16-BIT INS]
    1181 00000150 3018              ADDS      A1, A1, #24           ; [DPU_V7M3_PIPE] |770|  ; [ORIG 16-BIT INS]
    1182                    $C$DW$80        .dwtag  DW_TAG_TI_branch
    1183                            .dwattr $C$DW$80, DW_AT_low_pc(0x00)
    1184                            .dwattr $C$DW$80, DW_AT_name("uxListRemove")
    1185                            .dwattr $C$DW$80, DW_AT_TI_call
    1186                    
    1187 00000152 FFFEF7FF!         BL        uxListRemove          ; [DPU_V7M3_PIPE] |770|  ; [KEEP 32-BIT INS]
    1188                            ; CALL OCCURS {uxListRemove }    ; [] |770| 
    1189                            .dwpsn  file "../Source/tasks.c",line 771,column 4,is_stmt,isa 1
    1190                    ;----------------------------------------------------------------------
    1191                    ; 772 | else                                                                   
    1192                    ; 774 |         mtCOVERAGE_TEST_MARKER();                                      
    1193                    ;----------------------------------------------------------------------
    1194                    ;* --------------------------------------------------------------------------*
    1195 00000156           ||$C$L10||:    
    1196                            .dwpsn  file "../Source/tasks.c",line 777,column 4,is_stmt,isa 1
    1197                    ;----------------------------------------------------------------------
    1198                    ; 777 | vListInsertEnd( &xTasksWaitingTermination, &( pxTCB->xGenericListItem )
    1199                    ;     |  );                                                                    
    1200                    ;----------------------------------------------------------------------
    1201 00000156 9901              LDR       A2, [SP, #4]          ; [DPU_V7M3_PIPE] |777|  ; [ORIG 16-BIT INS]
    1202 00000158 4871              LDR       A1, $C$CON7           ; [DPU_V7M3_PIPE] |777|  ; [ORIG 16-BIT INS]
    1203 0000015a 1D09              ADDS      A2, A2, #4            ; [DPU_V7M3_PIPE] |777|  ; [ORIG 16-BIT INS]
    1204                    $C$DW$81        .dwtag  DW_TAG_TI_branch
    1205                            .dwattr $C$DW$81, DW_AT_low_pc(0x00)
    1206                            .dwattr $C$DW$81, DW_AT_name("vListInsertEnd")
    1207                            .dwattr $C$DW$81, DW_AT_TI_call
    1208                    
    1209 0000015c FFFEF7FF!         BL        vListInsertEnd        ; [DPU_V7M3_PIPE] |777|  ; [KEEP 32-BIT INS]
    1210                            ; CALL OCCURS {vListInsertEnd }  ; [] |777| 
TI ARM Assembler PC v18.1.2 Thu Aug 23 17:26:18 2018

Tools Copyright (c) 1996-2017 Texas Instruments Incorporated
tasks.asm                                                            PAGE   23

    1211                            .dwpsn  file "../Source/tasks.c",line 782,column 4,is_stmt,isa 1
    1212                    ;----------------------------------------------------------------------
    1213                    ; 782 | ++uxTasksDeleted;                                                      
    1214                    ;----------------------------------------------------------------------
    1215 00000160 4970              LDR       A2, $C$CON8           ; [DPU_V7M3_PIPE] |782|  ; [ORIG 16-BIT INS]
    1216 00000162 6808              LDR       A1, [A2, #0]          ; [DPU_V7M3_PIPE] |782|  ; [ORIG 16-BIT INS]
    1217 00000164 1C40              ADDS      A1, A1, #1            ; [DPU_V7M3_PIPE] |782|  ; [ORIG 16-BIT INS]
    1218 00000166 6008              STR       A1, [A2, #0]          ; [DPU_V7M3_PIPE] |782|  ; [ORIG 16-BIT INS]
    1219                            .dwpsn  file "../Source/tasks.c",line 786,column 4,is_stmt,isa 1
    1220                    ;----------------------------------------------------------------------
    1221                    ; 786 | uxTaskNumber++;                                                        
    1222                    ; 788 | traceTASK_DELETE( pxTCB );                                             
    1223                    ;----------------------------------------------------------------------
    1224 00000168 496A              LDR       A2, $C$CON4           ; [DPU_V7M3_PIPE] |786|  ; [ORIG 16-BIT INS]
    1225 0000016a 6808              LDR       A1, [A2, #0]          ; [DPU_V7M3_PIPE] |786|  ; [ORIG 16-BIT INS]
    1226 0000016c 1C40              ADDS      A1, A1, #1            ; [DPU_V7M3_PIPE] |786|  ; [ORIG 16-BIT INS]
    1227 0000016e 6008              STR       A1, [A2, #0]          ; [DPU_V7M3_PIPE] |786|  ; [ORIG 16-BIT INS]
    1228                            .dwpsn  file "../Source/tasks.c",line 790,column 3,is_stmt,isa 1
    1229                    ;----------------------------------------------------------------------
    1230                    ; 790 | taskEXIT_CRITICAL();                                                   
    1231                    ;----------------------------------------------------------------------
    1232                    $C$DW$82        .dwtag  DW_TAG_TI_branch
    1233                            .dwattr $C$DW$82, DW_AT_low_pc(0x00)
    1234                            .dwattr $C$DW$82, DW_AT_name("vPortExitCritical")
    1235                            .dwattr $C$DW$82, DW_AT_TI_call
    1236                    
    1237 00000170 FFFEF7FF!         BL        vPortExitCritical     ; [DPU_V7M3_PIPE] |790|  ; [KEEP 32-BIT INS]
    1238                            ; CALL OCCURS {vPortExitCritical }  ; [] |790| 
    1239                            .dwpsn  file "../Source/tasks.c",line 794,column 3,is_stmt,isa 1
    1240                    ;----------------------------------------------------------------------
    1241                    ; 794 | if( xSchedulerRunning != pdFALSE )                                     
    1242                    ;----------------------------------------------------------------------
    1243 00000174 4866              LDR       A1, $C$CON3           ; [DPU_V7M3_PIPE] |794|  ; [ORIG 16-BIT INS]
    1244 00000176 6800              LDR       A1, [A1, #0]          ; [DPU_V7M3_PIPE] |794|  ; [ORIG 16-BIT INS]
    1245 00000178 B198              CBZ       A1, ||$C$L12||        ; []  ; [ORIG 16-BIT INS]
    1246                            ; BRANCHCC OCCURS {||$C$L12||}   ; [] |794| 
    1247                    ;* --------------------------------------------------------------------------*
    1248                            .dwpsn  file "../Source/tasks.c",line 796,column 4,is_stmt,isa 1
    1249                    ;----------------------------------------------------------------------
    1250                    ; 796 | if( pxTCB == pxCurrentTCB )                                            
    1251                    ; 798 |         configASSERT( uxSchedulerSuspended == 0 );                     
    1252                    ; 805 |         portPRE_TASK_DELETE_HOOK( pxTCB, &xYieldPending );             
    1253                    ;----------------------------------------------------------------------
    1254 0000017a 4855              LDR       A1, $C$CON2           ; [DPU_V7M3_PIPE] |796|  ; [ORIG 16-BIT INS]
    1255 0000017c 9901              LDR       A2, [SP, #4]          ; [DPU_V7M3_PIPE] |796|  ; [ORIG 16-BIT INS]
    1256 0000017e 6800              LDR       A1, [A1, #0]          ; [DPU_V7M3_PIPE] |796|  ; [ORIG 16-BIT INS]
    1257 00000180 4288              CMP       A1, A2                ; [DPU_V7M3_PIPE] |796|  ; [ORIG 16-BIT INS]
    1258 00000182 D108              BNE       ||$C$L11||            ; [DPU_V7M3_PIPE] |796|  ; [ORIG 16-BIT INS]
    1259                            ; BRANCHCC OCCURS {||$C$L11||}   ; [] |796| 
    1260                    ;* --------------------------------------------------------------------------*
    1261                            .dwpsn  file "../Source/tasks.c",line 806,column 5,is_stmt,isa 1
    1262                    ;----------------------------------------------------------------------
    1263                    ; 806 | portYIELD_WITHIN_API();                                                
    1264                    ;----------------------------------------------------------------------
    1265 00000184 4968              LDR       A2, $C$CON9           ; [DPU_V7M3_PIPE] |806|  ; [ORIG 16-BIT INS]
TI ARM Assembler PC v18.1.2 Thu Aug 23 17:26:18 2018

Tools Copyright (c) 1996-2017 Texas Instruments Incorporated
tasks.asm                                                            PAGE   24

    1266 00000186 5080F04F          MOV       A1, #268435456        ; [DPU_V7M3_PIPE] |806|  ; [KEEP 32-BIT INS]
    1267 0000018a 6008              STR       A1, [A2, #0]          ; [DPU_V7M3_PIPE] |806|  ; [ORIG 16-BIT INS]
    1268 0000018c 8F4FF3BF          dsb ; [KEEP 32-BIT INS]
    1269 00000190 8F6FF3BF          isb ; [KEEP 32-BIT INS]
    1270                            .dwpsn  file "../Source/tasks.c",line 807,column 4,is_stmt,isa 1
    1271                    ;----------------------------------------------------------------------
    1272                    ; 808 | else                                                                   
    1273                    ;----------------------------------------------------------------------
    1274 00000194 E005              B         ||$C$L12||            ; [DPU_V7M3_PIPE] |807|  ; [ORIG 16-BIT INS]
    1275                            ; BRANCH OCCURS {||$C$L12||}     ; [] |807| 
    1276                    ;* --------------------------------------------------------------------------*
    1277 00000196           ||$C$L11||:    
    1278                            .dwpsn  file "../Source/tasks.c",line 812,column 5,is_stmt,isa 1
    1279                    ;----------------------------------------------------------------------
    1280                    ; 812 | taskENTER_CRITICAL();                                                  
    1281                    ;----------------------------------------------------------------------
    1282                    $C$DW$83        .dwtag  DW_TAG_TI_branch
    1283                            .dwattr $C$DW$83, DW_AT_low_pc(0x00)
    1284                            .dwattr $C$DW$83, DW_AT_name("vPortEnterCritical")
    1285                            .dwattr $C$DW$83, DW_AT_TI_call
    1286                    
    1287 00000196 FFFEF7FF!         BL        vPortEnterCritical    ; [DPU_V7M3_PIPE] |812|  ; [KEEP 32-BIT INS]
    1288                            ; CALL OCCURS {vPortEnterCritical }  ; [] |812| 
    1289                            .dwpsn  file "../Source/tasks.c",line 814,column 6,is_stmt,isa 1
    1290                    ;----------------------------------------------------------------------
    1291                    ; 814 | prvResetNextTaskUnblockTime();                                         
    1292                    ;----------------------------------------------------------------------
    1293                    $C$DW$84        .dwtag  DW_TAG_TI_branch
    1294                            .dwattr $C$DW$84, DW_AT_low_pc(0x00)
    1295                            .dwattr $C$DW$84, DW_AT_name("prvResetNextTaskUnblockTime")
    1296                            .dwattr $C$DW$84, DW_AT_TI_call
    1297                    
    1298 0000019a FFFEF7FF!         BL        prvResetNextTaskUnblockTime ; [DPU_V7M3_PIPE] |814|  ; [KEEP 32-BIT INS]
    1299                            ; CALL OCCURS {prvResetNextTaskUnblockTime }  ; [] |814| 
    1300                            .dwpsn  file "../Source/tasks.c",line 816,column 5,is_stmt,isa 1
    1301                    ;----------------------------------------------------------------------
    1302                    ; 816 | taskEXIT_CRITICAL();                                                   
    1303                    ;----------------------------------------------------------------------
    1304                    $C$DW$85        .dwtag  DW_TAG_TI_branch
    1305                            .dwattr $C$DW$85, DW_AT_low_pc(0x00)
    1306                            .dwattr $C$DW$85, DW_AT_name("vPortExitCritical")
    1307                            .dwattr $C$DW$85, DW_AT_TI_call
    1308                    
    1309 0000019e FFFEF7FF!         BL        vPortExitCritical     ; [DPU_V7M3_PIPE] |816|  ; [KEEP 32-BIT INS]
    1310                            ; CALL OCCURS {vPortExitCritical }  ; [] |816| 
    1311                            .dwpsn  file "../Source/tasks.c",line 819,column 2,is_stmt,isa 1
    1312                    ;* --------------------------------------------------------------------------*
    1313                    ||$C$L12||:    
    1314                    $C$DW$86        .dwtag  DW_TAG_TI_branch
    1315                            .dwattr $C$DW$86, DW_AT_low_pc(0x00)
    1316                            .dwattr $C$DW$86, DW_AT_TI_return
    1317                    
    1318 000001a2 BD0E              POP       {A2, A3, A4, PC}      ; [DPU_V7M3_PIPE]  ; [ORIG 16-BIT INS]
    1319                            .dwcfi  cfa_offset, 0
    1320                            .dwcfi  restore_reg, 3
TI ARM Assembler PC v18.1.2 Thu Aug 23 17:26:18 2018

Tools Copyright (c) 1996-2017 Texas Instruments Incorporated
tasks.asm                                                            PAGE   25

    1321                            .dwcfi  restore_reg, 2
    1322                            .dwcfi  restore_reg, 1
    1323                            ; BRANCH OCCURS                  ; [] 
    1324                            .dwattr $C$DW$74, DW_AT_TI_end_file("../Source/tasks.c")
    1325                            .dwattr $C$DW$74, DW_AT_TI_end_line(0x333)
    1326                            .dwattr $C$DW$74, DW_AT_TI_end_column(0x02)
    1327                            .dwendentry
    1328                            .dwendtag $C$DW$74
    1329                    
    1330 000001a4                   .sect   ".text"
    1331                            .clink
    1332                            .thumbfunc vTaskDelayUntil
    1333 000001a4                   .thumb
    1334                            .global vTaskDelayUntil
    1335                    
    1336                    $C$DW$87        .dwtag  DW_TAG_subprogram
    1337                            .dwattr $C$DW$87, DW_AT_name("vTaskDelayUntil")
    1338                            .dwattr $C$DW$87, DW_AT_low_pc(vTaskDelayUntil)
    1339                            .dwattr $C$DW$87, DW_AT_high_pc(0x00)
    1340                            .dwattr $C$DW$87, DW_AT_TI_symbol_name("vTaskDelayUntil")
    1341                            .dwattr $C$DW$87, DW_AT_external
    1342                            .dwattr $C$DW$87, DW_AT_TI_begin_file("../Source/tasks.c")
    1343                            .dwattr $C$DW$87, DW_AT_TI_begin_line(0x33a)
    1344                            .dwattr $C$DW$87, DW_AT_TI_begin_column(0x07)
    1345                            .dwattr $C$DW$87, DW_AT_decl_file("../Source/tasks.c")
    1346                            .dwattr $C$DW$87, DW_AT_decl_line(0x33a)
    1347                            .dwattr $C$DW$87, DW_AT_decl_column(0x07)
    1348                            .dwattr $C$DW$87, DW_AT_TI_max_frame_size(0x20)
    1349                            .dwpsn  file "../Source/tasks.c",line 827,column 2,is_stmt,address vTaskDelayUntil,isa 1
    1350                    
    1351                            .dwfde $C$DW$CIE, vTaskDelayUntil
    1352                    $C$DW$88        .dwtag  DW_TAG_formal_parameter
    1353                            .dwattr $C$DW$88, DW_AT_name("pxPreviousWakeTime")
    1354                            .dwattr $C$DW$88, DW_AT_TI_symbol_name("pxPreviousWakeTime")
    1355                            .dwattr $C$DW$88, DW_AT_type(*$C$DW$T$109)
    1356                            .dwattr $C$DW$88, DW_AT_location[DW_OP_reg0]
    1357                    
    1358                    $C$DW$89        .dwtag  DW_TAG_formal_parameter
    1359                            .dwattr $C$DW$89, DW_AT_name("xTimeIncrement")
    1360                            .dwattr $C$DW$89, DW_AT_TI_symbol_name("xTimeIncrement")
    1361                            .dwattr $C$DW$89, DW_AT_type(*$C$DW$T$110)
    1362                            .dwattr $C$DW$89, DW_AT_location[DW_OP_reg1]
    1363                    
    1364                    ;----------------------------------------------------------------------
    1365                    ; 826 | void vTaskDelayUntil( TickType_t * const pxPreviousWakeTime, const Tick
    1366                    ;     | Type_t xTimeIncrement )                                                
    1367                    ;----------------------------------------------------------------------
    1368                    
    1369                    ;*****************************************************************************
    1370                    ;* FUNCTION NAME: vTaskDelayUntil                                            *
    1371                    ;*                                                                           *
    1372                    ;*   Regs Modified     : A1,A2,A3,A4,V9,SP,LR,SR,D0,D0_hi,D1,D1_hi,D2,D2_hi, *
    1373                    ;*                           D3,D3_hi,D4,D4_hi,D5,D5_hi,D6,D6_hi,D7,D7_hi,   *
    1374                    ;*                           FPEXC,FPSCR                                     *
    1375                    ;*   Regs Used         : A1,A2,A3,A4,V9,SP,LR,SR,D0,D0_hi,D1,D1_hi,D2,D2_hi, *
TI ARM Assembler PC v18.1.2 Thu Aug 23 17:26:18 2018

Tools Copyright (c) 1996-2017 Texas Instruments Incorporated
tasks.asm                                                            PAGE   26

    1376                    ;*                           D3,D3_hi,D4,D4_hi,D5,D5_hi,D6,D6_hi,D7,D7_hi,   *
    1377                    ;*                           FPEXC,FPSCR                                     *
    1378                    ;*   Local Frame Size  : 0 Args + 24 Auto + 4 Save = 28 byte                 *
    1379                    ;*****************************************************************************
    1380 000001a4           vTaskDelayUntil:
    1381                    ;* --------------------------------------------------------------------------*
    1382                            .dwcfi  cfa_offset, 0
    1383 000001a4 B500              PUSH      {LR}                  ; [DPU_V7M3_PIPE]  ; [ORIG 16-BIT INS]
    1384                            .dwcfi  cfa_offset, 4
    1385                            .dwcfi  save_reg_to_mem, 14, -4
    1386 000001a6 0D1CF1AD          SUB       SP, SP, #28           ; [DPU_V7M3_PIPE]  ; [KEEP 32-BIT INS]
    1387                            .dwcfi  cfa_offset, 32
    1388                    $C$DW$90        .dwtag  DW_TAG_variable
    1389                            .dwattr $C$DW$90, DW_AT_name("pxPreviousWakeTime")
    1390                            .dwattr $C$DW$90, DW_AT_TI_symbol_name("pxPreviousWakeTime")
    1391                            .dwattr $C$DW$90, DW_AT_type(*$C$DW$T$109)
    1392                            .dwattr $C$DW$90, DW_AT_location[DW_OP_breg13 0]
    1393                    
    1394                    $C$DW$91        .dwtag  DW_TAG_variable
    1395                            .dwattr $C$DW$91, DW_AT_name("xTimeIncrement")
    1396                            .dwattr $C$DW$91, DW_AT_TI_symbol_name("xTimeIncrement")
    1397                            .dwattr $C$DW$91, DW_AT_type(*$C$DW$T$110)
    1398                            .dwattr $C$DW$91, DW_AT_location[DW_OP_breg13 4]
    1399                    
    1400                    $C$DW$92        .dwtag  DW_TAG_variable
    1401                            .dwattr $C$DW$92, DW_AT_name("xTimeToWake")
    1402                            .dwattr $C$DW$92, DW_AT_TI_symbol_name("xTimeToWake")
    1403                            .dwattr $C$DW$92, DW_AT_type(*$C$DW$T$49)
    1404                            .dwattr $C$DW$92, DW_AT_location[DW_OP_breg13 8]
    1405                    
    1406                    $C$DW$93        .dwtag  DW_TAG_variable
    1407                            .dwattr $C$DW$93, DW_AT_name("xAlreadyYielded")
    1408                            .dwattr $C$DW$93, DW_AT_TI_symbol_name("xAlreadyYielded")
    1409                            .dwattr $C$DW$93, DW_AT_type(*$C$DW$T$71)
    1410                            .dwattr $C$DW$93, DW_AT_location[DW_OP_breg13 12]
    1411                    
    1412                    $C$DW$94        .dwtag  DW_TAG_variable
    1413                            .dwattr $C$DW$94, DW_AT_name("xShouldDelay")
    1414                            .dwattr $C$DW$94, DW_AT_TI_symbol_name("xShouldDelay")
    1415                            .dwattr $C$DW$94, DW_AT_type(*$C$DW$T$71)
    1416                            .dwattr $C$DW$94, DW_AT_location[DW_OP_breg13 16]
    1417                    
    1418                    ;----------------------------------------------------------------------
    1419                    ; 828 | TickType_t xTimeToWake;                                                
    1420                    ;----------------------------------------------------------------------
    1421 000001aa 9101              STR       A2, [SP, #4]          ; [DPU_V7M3_PIPE] |827|  ; [ORIG 16-BIT INS]
    1422 000001ac 9000              STR       A1, [SP, #0]          ; [DPU_V7M3_PIPE] |827|  ; [ORIG 16-BIT INS]
    1423                            .dwpsn  file "../Source/tasks.c",line 829,column 43,is_stmt,isa 1
    1424                    ;----------------------------------------------------------------------
    1425                    ; 829 | BaseType_t xAlreadyYielded, xShouldDelay = pdFALSE;                    
    1426                    ; 831 |         configASSERT( pxPreviousWakeTime );                            
    1427                    ; 832 |         configASSERT( ( xTimeIncrement > 0U ) );                       
    1428                    ; 833 |         configASSERT( uxSchedulerSuspended == 0 );                     
    1429                    ;----------------------------------------------------------------------
    1430 000001ae 2000              MOVS      A1, #0                ; [DPU_V7M3_PIPE] |829|  ; [ORIG 16-BIT INS]
TI ARM Assembler PC v18.1.2 Thu Aug 23 17:26:18 2018

Tools Copyright (c) 1996-2017 Texas Instruments Incorporated
tasks.asm                                                            PAGE   27

    1431 000001b0 9004              STR       A1, [SP, #16]         ; [DPU_V7M3_PIPE] |829|  ; [ORIG 16-BIT INS]
    1432                            .dwpsn  file "../Source/tasks.c",line 835,column 3,is_stmt,isa 1
    1433                    ;----------------------------------------------------------------------
    1434                    ; 835 | vTaskSuspendAll();                                                     
    1435                    ;----------------------------------------------------------------------
    1436                    $C$DW$95        .dwtag  DW_TAG_TI_branch
    1437                            .dwattr $C$DW$95, DW_AT_low_pc(0x00)
    1438                            .dwattr $C$DW$95, DW_AT_name("vTaskSuspendAll")
    1439                            .dwattr $C$DW$95, DW_AT_TI_call
    1440                    
    1441 000001b2 FFFEF7FF!         BL        vTaskSuspendAll       ; [DPU_V7M3_PIPE] |835|  ; [KEEP 32-BIT INS]
    1442                            ; CALL OCCURS {vTaskSuspendAll }  ; [] |835| 
    1443                    
    1444                    $C$DW$96        .dwtag  DW_TAG_lexical_block
    1445                            .dwattr $C$DW$96, DW_AT_low_pc(0x00)
    1446                            .dwattr $C$DW$96, DW_AT_high_pc(0x00)
    1447                    $C$DW$97        .dwtag  DW_TAG_variable
    1448                            .dwattr $C$DW$97, DW_AT_name("xConstTickCount")
    1449                            .dwattr $C$DW$97, DW_AT_TI_symbol_name("xConstTickCount")
    1450                            .dwattr $C$DW$97, DW_AT_type(*$C$DW$T$110)
    1451                            .dwattr $C$DW$97, DW_AT_location[DW_OP_breg13 20]
    1452                    
    1453                            .dwpsn  file "../Source/tasks.c",line 839,column 37,is_stmt,isa 1
    1454                    ;----------------------------------------------------------------------
    1455                    ; 839 | const TickType_t xConstTickCount = xTickCount;                         
    1456                    ;----------------------------------------------------------------------
    1457 000001b6 489D              LDR       A1, $C$CON10          ; [DPU_V7M3_PIPE] |839|  ; [ORIG 16-BIT INS]
    1458 000001b8 6800              LDR       A1, [A1, #0]          ; [DPU_V7M3_PIPE] |839|  ; [ORIG 16-BIT INS]
    1459 000001ba 9005              STR       A1, [SP, #20]         ; [DPU_V7M3_PIPE] |839|  ; [ORIG 16-BIT INS]
    1460                            .dwpsn  file "../Source/tasks.c",line 842,column 4,is_stmt,isa 1
    1461                    ;----------------------------------------------------------------------
    1462                    ; 842 | xTimeToWake = *pxPreviousWakeTime + xTimeIncrement;                    
    1463                    ;----------------------------------------------------------------------
    1464 000001bc 9800              LDR       A1, [SP, #0]          ; [DPU_V7M3_PIPE] |842|  ; [ORIG 16-BIT INS]
    1465 000001be 9901              LDR       A2, [SP, #4]          ; [DPU_V7M3_PIPE] |842|  ; [ORIG 16-BIT INS]
    1466 000001c0 6800              LDR       A1, [A1, #0]          ; [DPU_V7M3_PIPE] |842|  ; [ORIG 16-BIT INS]
    1467 000001c2 1840              ADDS      A1, A1, A2            ; [DPU_V7M3_PIPE] |842|  ; [ORIG 16-BIT INS]
    1468 000001c4 9002              STR       A1, [SP, #8]          ; [DPU_V7M3_PIPE] |842|  ; [ORIG 16-BIT INS]
    1469                            .dwpsn  file "../Source/tasks.c",line 844,column 4,is_stmt,isa 1
    1470                    ;----------------------------------------------------------------------
    1471                    ; 844 | if( xConstTickCount < *pxPreviousWakeTime )                            
    1472                    ;----------------------------------------------------------------------
    1473 000001c6 9800              LDR       A1, [SP, #0]          ; [DPU_V7M3_PIPE] |844|  ; [ORIG 16-BIT INS]
    1474 000001c8 9905              LDR       A2, [SP, #20]         ; [DPU_V7M3_PIPE] |844|  ; [ORIG 16-BIT INS]
    1475 000001ca 6800              LDR       A1, [A1, #0]          ; [DPU_V7M3_PIPE] |844|  ; [ORIG 16-BIT INS]
    1476 000001cc 4288              CMP       A1, A2                ; [DPU_V7M3_PIPE] |844|  ; [ORIG 16-BIT INS]
    1477 000001ce D90B              BLS       ||$C$L13||            ; [DPU_V7M3_PIPE] |844|  ; [ORIG 16-BIT INS]
    1478                            ; BRANCHCC OCCURS {||$C$L13||}   ; [] |844| 
    1479                    ;* --------------------------------------------------------------------------*
    1480                            .dwpsn  file "../Source/tasks.c",line 851,column 5,is_stmt,isa 1
    1481                    ;----------------------------------------------------------------------
    1482                    ; 851 | if( ( xTimeToWake < *pxPreviousWakeTime ) && ( xTimeToWake > xConstTick
    1483                    ;     | Count ) )                                                              
    1484                    ;----------------------------------------------------------------------
    1485 000001d0 9800              LDR       A1, [SP, #0]          ; [DPU_V7M3_PIPE] |851|  ; [ORIG 16-BIT INS]
TI ARM Assembler PC v18.1.2 Thu Aug 23 17:26:18 2018

Tools Copyright (c) 1996-2017 Texas Instruments Incorporated
tasks.asm                                                            PAGE   28

    1486 000001d2 9902              LDR       A2, [SP, #8]          ; [DPU_V7M3_PIPE] |851|  ; [ORIG 16-BIT INS]
    1487 000001d4 6800              LDR       A1, [A1, #0]          ; [DPU_V7M3_PIPE] |851|  ; [ORIG 16-BIT INS]
    1488 000001d6 4288              CMP       A1, A2                ; [DPU_V7M3_PIPE] |851|  ; [ORIG 16-BIT INS]
    1489 000001d8 D911              BLS       ||$C$L15||            ; [DPU_V7M3_PIPE] |851|  ; [ORIG 16-BIT INS]
    1490                            ; BRANCHCC OCCURS {||$C$L15||}   ; [] |851| 
    1491                    ;* --------------------------------------------------------------------------*
    1492 000001da 9805              LDR       A1, [SP, #20]         ; [DPU_V7M3_PIPE] |851|  ; [ORIG 16-BIT INS]
    1493 000001dc 9902              LDR       A2, [SP, #8]          ; [DPU_V7M3_PIPE] |851|  ; [ORIG 16-BIT INS]
    1494 000001de 4288              CMP       A1, A2                ; [DPU_V7M3_PIPE] |851|  ; [ORIG 16-BIT INS]
    1495 000001e0 D20D              BCS       ||$C$L15||            ; [DPU_V7M3_PIPE] |851|  ; [ORIG 16-BIT INS]
    1496                            ; BRANCHCC OCCURS {||$C$L15||}   ; [] |851| 
    1497                    ;* --------------------------------------------------------------------------*
    1498                            .dwpsn  file "../Source/tasks.c",line 853,column 6,is_stmt,isa 1
    1499                    ;----------------------------------------------------------------------
    1500                    ; 853 | xShouldDelay = pdTRUE;                                                 
    1501                    ;----------------------------------------------------------------------
    1502 000001e2 2001              MOVS      A1, #1                ; [DPU_V7M3_PIPE] |853|  ; [ORIG 16-BIT INS]
    1503 000001e4 9004              STR       A1, [SP, #16]         ; [DPU_V7M3_PIPE] |853|  ; [ORIG 16-BIT INS]
    1504                            .dwpsn  file "../Source/tasks.c",line 854,column 5,is_stmt,isa 1
    1505                    ;----------------------------------------------------------------------
    1506                    ; 855 | else                                                                   
    1507                    ; 857 |         mtCOVERAGE_TEST_MARKER();                                      
    1508                    ; 860 | else                                                                   
    1509                    ;----------------------------------------------------------------------
    1510 000001e6 E00A              B         ||$C$L15||            ; [DPU_V7M3_PIPE] |854|  ; [ORIG 16-BIT INS]
    1511                            ; BRANCH OCCURS {||$C$L15||}     ; [] |854| 
    1512                    ;* --------------------------------------------------------------------------*
    1513                    ;* --------------------------------------------------------------------------*
    1514 000001e8           ||$C$L13||:    
    1515                            .dwpsn  file "../Source/tasks.c",line 865,column 5,is_stmt,isa 1
    1516                    ;----------------------------------------------------------------------
    1517                    ; 865 | if( ( xTimeToWake < *pxPreviousWakeTime ) || ( xTimeToWake > xConstTick
    1518                    ;     | Count ) )                                                              
    1519                    ;----------------------------------------------------------------------
    1520 000001e8 9800              LDR       A1, [SP, #0]          ; [DPU_V7M3_PIPE] |865|  ; [ORIG 16-BIT INS]
    1521 000001ea 9902              LDR       A2, [SP, #8]          ; [DPU_V7M3_PIPE] |865|  ; [ORIG 16-BIT INS]
    1522 000001ec 6800              LDR       A1, [A1, #0]          ; [DPU_V7M3_PIPE] |865|  ; [ORIG 16-BIT INS]
    1523 000001ee 4288              CMP       A1, A2                ; [DPU_V7M3_PIPE] |865|  ; [ORIG 16-BIT INS]
    1524 000001f0 D803              BHI       ||$C$L14||            ; [DPU_V7M3_PIPE] |865|  ; [ORIG 16-BIT INS]
    1525                            ; BRANCHCC OCCURS {||$C$L14||}   ; [] |865| 
    1526                    ;* --------------------------------------------------------------------------*
    1527 000001f2 9805              LDR       A1, [SP, #20]         ; [DPU_V7M3_PIPE] |865|  ; [ORIG 16-BIT INS]
    1528 000001f4 9902              LDR       A2, [SP, #8]          ; [DPU_V7M3_PIPE] |865|  ; [ORIG 16-BIT INS]
    1529 000001f6 4288              CMP       A1, A2                ; [DPU_V7M3_PIPE] |865|  ; [ORIG 16-BIT INS]
    1530 000001f8 D201              BCS       ||$C$L15||            ; [DPU_V7M3_PIPE] |865|  ; [ORIG 16-BIT INS]
    1531                            ; BRANCHCC OCCURS {||$C$L15||}   ; [] |865| 
    1532                    ;* --------------------------------------------------------------------------*
    1533 000001fa           ||$C$L14||:    
    1534                            .dwpsn  file "../Source/tasks.c",line 867,column 6,is_stmt,isa 1
    1535                    ;----------------------------------------------------------------------
    1536                    ; 867 | xShouldDelay = pdTRUE;                                                 
    1537                    ;----------------------------------------------------------------------
    1538 000001fa 2001              MOVS      A1, #1                ; [DPU_V7M3_PIPE] |867|  ; [ORIG 16-BIT INS]
    1539 000001fc 9004              STR       A1, [SP, #16]         ; [DPU_V7M3_PIPE] |867|  ; [ORIG 16-BIT INS]
    1540                            .dwpsn  file "../Source/tasks.c",line 868,column 5,is_stmt,isa 1
TI ARM Assembler PC v18.1.2 Thu Aug 23 17:26:18 2018

Tools Copyright (c) 1996-2017 Texas Instruments Incorporated
tasks.asm                                                            PAGE   29

    1541                    ;----------------------------------------------------------------------
    1542                    ; 869 | else                                                                   
    1543                    ; 871 |         mtCOVERAGE_TEST_MARKER();                                      
    1544                    ;----------------------------------------------------------------------
    1545                    ;* --------------------------------------------------------------------------*
    1546 000001fe           ||$C$L15||:    
    1547                            .dwpsn  file "../Source/tasks.c",line 876,column 4,is_stmt,isa 1
    1548                    ;----------------------------------------------------------------------
    1549                    ; 876 | *pxPreviousWakeTime = xTimeToWake;                                     
    1550                    ;----------------------------------------------------------------------
    1551 000001fe 9802              LDR       A1, [SP, #8]          ; [DPU_V7M3_PIPE] |876|  ; [ORIG 16-BIT INS]
    1552 00000200 9900              LDR       A2, [SP, #0]          ; [DPU_V7M3_PIPE] |876|  ; [ORIG 16-BIT INS]
    1553 00000202 6008              STR       A1, [A2, #0]          ; [DPU_V7M3_PIPE] |876|  ; [ORIG 16-BIT INS]
    1554                            .dwpsn  file "../Source/tasks.c",line 878,column 4,is_stmt,isa 1
    1555                    ;----------------------------------------------------------------------
    1556                    ; 878 | if( xShouldDelay != pdFALSE )                                          
    1557                    ; 880 |         traceTASK_DELAY_UNTIL();                                       
    1558                    ;----------------------------------------------------------------------
    1559 00000204 9804              LDR       A1, [SP, #16]         ; [DPU_V7M3_PIPE] |878|  ; [ORIG 16-BIT INS]
    1560 00000206 B188              CBZ       A1, ||$C$L17||        ; []  ; [ORIG 16-BIT INS]
    1561                            ; BRANCHCC OCCURS {||$C$L17||}   ; [] |878| 
    1562                    ;* --------------------------------------------------------------------------*
    1563                            .dwpsn  file "../Source/tasks.c",line 884,column 5,is_stmt,isa 1
    1564                    ;----------------------------------------------------------------------
    1565                    ; 884 | if( uxListRemove( &( pxCurrentTCB->xGenericListItem ) ) == ( UBaseType_
    1566                    ;     | t ) 0 )                                                                
    1567                    ;----------------------------------------------------------------------
    1568 00000208 4831              LDR       A1, $C$CON2           ; [DPU_V7M3_PIPE] |884|  ; [ORIG 16-BIT INS]
    1569 0000020a 6800              LDR       A1, [A1, #0]          ; [DPU_V7M3_PIPE] |884|  ; [ORIG 16-BIT INS]
    1570 0000020c 1D00              ADDS      A1, A1, #4            ; [DPU_V7M3_PIPE] |884|  ; [ORIG 16-BIT INS]
    1571                    $C$DW$98        .dwtag  DW_TAG_TI_branch
    1572                            .dwattr $C$DW$98, DW_AT_low_pc(0x00)
    1573                            .dwattr $C$DW$98, DW_AT_name("uxListRemove")
    1574                            .dwattr $C$DW$98, DW_AT_TI_call
    1575                    
    1576 0000020e FFFEF7FF!         BL        uxListRemove          ; [DPU_V7M3_PIPE] |884|  ; [KEEP 32-BIT INS]
    1577                            ; CALL OCCURS {uxListRemove }    ; [] |884| 
    1578 00000212 B940              CBNZ      A1, ||$C$L16||        ; []  ; [ORIG 16-BIT INS]
    1579                            ; BRANCHCC OCCURS {||$C$L16||}   ; [] |884| 
    1580                    ;* --------------------------------------------------------------------------*
    1581                            .dwpsn  file "../Source/tasks.c",line 889,column 6,is_stmt,isa 1
    1582                    ;----------------------------------------------------------------------
    1583                    ; 889 | portRESET_READY_PRIORITY( pxCurrentTCB->uxPriority, uxTopReadyPriority
    1584                    ;     | );                                                                     
    1585                    ;----------------------------------------------------------------------
    1586 00000214 482E              LDR       A1, $C$CON2           ; [DPU_V7M3_PIPE] |889|  ; [ORIG 16-BIT INS]
    1587 00000216 6800              LDR       A1, [A1, #0]          ; [DPU_V7M3_PIPE] |889|  ; [ORIG 16-BIT INS]
    1588 00000218 4A3F              LDR       A3, $C$CON5           ; [DPU_V7M3_PIPE] |889|  ; [ORIG 16-BIT INS]
    1589 0000021a 6AC3              LDR       A4, [A1, #44]         ; [DPU_V7M3_PIPE] |889|  ; [ORIG 16-BIT INS]
    1590 0000021c 6811              LDR       A2, [A3, #0]          ; [DPU_V7M3_PIPE] |889|  ; [ORIG 16-BIT INS]
    1591 0000021e 2001              MOVS      A1, #1                ; [DPU_V7M3_PIPE] |889|  ; [ORIG 16-BIT INS]
    1592 00000220 4098              LSLS      A1, A1, A4            ; [DPU_V7M3_PIPE] |889|  ; [ORIG 16-BIT INS]
    1593 00000222 4381              BICS      A2, A2, A1            ; [DPU_V7M3_PIPE] |889|  ; [ORIG 16-BIT INS]
    1594 00000224 6011              STR       A2, [A3, #0]          ; [DPU_V7M3_PIPE] |889|  ; [ORIG 16-BIT INS]
    1595                            .dwpsn  file "../Source/tasks.c",line 890,column 5,is_stmt,isa 1
TI ARM Assembler PC v18.1.2 Thu Aug 23 17:26:18 2018

Tools Copyright (c) 1996-2017 Texas Instruments Incorporated
tasks.asm                                                            PAGE   30

    1596                    ;----------------------------------------------------------------------
    1597                    ; 891 | else                                                                   
    1598                    ; 893 |         mtCOVERAGE_TEST_MARKER();                                      
    1599                    ;----------------------------------------------------------------------
    1600                    ;* --------------------------------------------------------------------------*
    1601 00000226           ||$C$L16||:    
    1602                            .dwpsn  file "../Source/tasks.c",line 896,column 5,is_stmt,isa 1
    1603                    ;----------------------------------------------------------------------
    1604                    ; 896 | prvAddCurrentTaskToDelayedList( xTimeToWake );                         
    1605                    ;----------------------------------------------------------------------
    1606 00000226 9802              LDR       A1, [SP, #8]          ; [DPU_V7M3_PIPE] |896|  ; [ORIG 16-BIT INS]
    1607                    $C$DW$99        .dwtag  DW_TAG_TI_branch
    1608                            .dwattr $C$DW$99, DW_AT_low_pc(0x00)
    1609                            .dwattr $C$DW$99, DW_AT_name("prvAddCurrentTaskToDelayedList")
    1610                            .dwattr $C$DW$99, DW_AT_TI_call
    1611                    
    1612 00000228 FFFEF7FF!         BL        prvAddCurrentTaskToDelayedList ; [DPU_V7M3_PIPE] |896|  ; [KEEP 32-BIT INS]
    1613                            ; CALL OCCURS {prvAddCurrentTaskToDelayedList }  ; [] |896| 
    1614                            .dwpsn  file "../Source/tasks.c",line 897,column 4,is_stmt,isa 1
    1615                    ;----------------------------------------------------------------------
    1616                    ; 898 | else                                                                   
    1617                    ; 900 |         mtCOVERAGE_TEST_MARKER();                                      
    1618                    ;----------------------------------------------------------------------
    1619                    ;* --------------------------------------------------------------------------*
    1620                    ||$C$L17||:    
    1621                            .dwendtag $C$DW$96
    1622                    
    1623                            .dwpsn  file "../Source/tasks.c",line 903,column 3,is_stmt,isa 1
    1624                    ;----------------------------------------------------------------------
    1625                    ; 903 | xAlreadyYielded = xTaskResumeAll();                                    
    1626                    ;----------------------------------------------------------------------
    1627                    $C$DW$100       .dwtag  DW_TAG_TI_branch
    1628                            .dwattr $C$DW$100, DW_AT_low_pc(0x00)
    1629                            .dwattr $C$DW$100, DW_AT_name("xTaskResumeAll")
    1630                            .dwattr $C$DW$100, DW_AT_TI_call
    1631                    
    1632 0000022c FFFEF7FF!         BL        xTaskResumeAll        ; [DPU_V7M3_PIPE] |903|  ; [KEEP 32-BIT INS]
    1633                            ; CALL OCCURS {xTaskResumeAll }  ; [] |903| 
    1634 00000230 9003              STR       A1, [SP, #12]         ; [DPU_V7M3_PIPE] |903|  ; [ORIG 16-BIT INS]
    1635                            .dwpsn  file "../Source/tasks.c",line 907,column 3,is_stmt,isa 1
    1636                    ;----------------------------------------------------------------------
    1637                    ; 907 | if( xAlreadyYielded == pdFALSE )                                       
    1638                    ;----------------------------------------------------------------------
    1639 00000232 9803              LDR       A1, [SP, #12]         ; [DPU_V7M3_PIPE] |907|  ; [ORIG 16-BIT INS]
    1640 00000234 B940              CBNZ      A1, ||$C$L18||        ; []  ; [ORIG 16-BIT INS]
    1641                            ; BRANCHCC OCCURS {||$C$L18||}   ; [] |907| 
    1642                    ;* --------------------------------------------------------------------------*
    1643                            .dwpsn  file "../Source/tasks.c",line 909,column 4,is_stmt,isa 1
    1644                    ;----------------------------------------------------------------------
    1645                    ; 909 | portYIELD_WITHIN_API();                                                
    1646                    ;----------------------------------------------------------------------
    1647 00000236 493C              LDR       A2, $C$CON9           ; [DPU_V7M3_PIPE] |909|  ; [ORIG 16-BIT INS]
    1648 00000238 5080F04F          MOV       A1, #268435456        ; [DPU_V7M3_PIPE] |909|  ; [KEEP 32-BIT INS]
    1649 0000023c 6008              STR       A1, [A2, #0]          ; [DPU_V7M3_PIPE] |909|  ; [ORIG 16-BIT INS]
    1650 0000023e 8F4FF3BF          dsb ; [KEEP 32-BIT INS]
TI ARM Assembler PC v18.1.2 Thu Aug 23 17:26:18 2018

Tools Copyright (c) 1996-2017 Texas Instruments Incorporated
tasks.asm                                                            PAGE   31

    1651 00000242 8F6FF3BF          isb ; [KEEP 32-BIT INS]
    1652                            .dwpsn  file "../Source/tasks.c",line 910,column 3,is_stmt,isa 1
    1653                    ;----------------------------------------------------------------------
    1654                    ; 911 | else                                                                   
    1655                    ; 913 |         mtCOVERAGE_TEST_MARKER();                                      
    1656                    ;----------------------------------------------------------------------
    1657 00000246 E7FF              B         ||$C$L18||            ; [DPU_V7M3_PIPE] |910|  ; [ORIG 16-BIT INS]
    1658                            ; BRANCH OCCURS {||$C$L18||}     ; [] |910| 
    1659                    ;* --------------------------------------------------------------------------*
    1660                    ;* --------------------------------------------------------------------------*
    1661 00000248           ||$C$L18||:    
    1662 00000248 B007              ADD       SP, SP, #28           ; [DPU_V7M3_PIPE]  ; [ORIG 16-BIT INS]
    1663                            .dwcfi  cfa_offset, 4
    1664                    $C$DW$101       .dwtag  DW_TAG_TI_branch
    1665                            .dwattr $C$DW$101, DW_AT_low_pc(0x00)
    1666                            .dwattr $C$DW$101, DW_AT_TI_return
    1667                    
    1668 0000024a BD00              POP       {PC}                  ; [DPU_V7M3_PIPE]  ; [ORIG 16-BIT INS]
    1669                            .dwcfi  cfa_offset, 0
    1670                            ; BRANCH OCCURS                  ; [] 
    1671                            .dwattr $C$DW$87, DW_AT_TI_end_file("../Source/tasks.c")
    1672                            .dwattr $C$DW$87, DW_AT_TI_end_line(0x393)
    1673                            .dwattr $C$DW$87, DW_AT_TI_end_column(0x02)
    1674                            .dwendentry
    1675                            .dwendtag $C$DW$87
    1676                    
    1677 0000024c                   .sect   ".text"
    1678                            .clink
    1679                            .thumbfunc vTaskDelay
    1680 0000024c                   .thumb
    1681                            .global vTaskDelay
    1682                    
    1683                    $C$DW$102       .dwtag  DW_TAG_subprogram
    1684                            .dwattr $C$DW$102, DW_AT_name("vTaskDelay")
    1685                            .dwattr $C$DW$102, DW_AT_low_pc(vTaskDelay)
    1686                            .dwattr $C$DW$102, DW_AT_high_pc(0x00)
    1687                            .dwattr $C$DW$102, DW_AT_TI_symbol_name("vTaskDelay")
    1688                            .dwattr $C$DW$102, DW_AT_external
    1689                            .dwattr $C$DW$102, DW_AT_TI_begin_file("../Source/tasks.c")
    1690                            .dwattr $C$DW$102, DW_AT_TI_begin_line(0x39a)
    1691                            .dwattr $C$DW$102, DW_AT_TI_begin_column(0x07)
    1692                            .dwattr $C$DW$102, DW_AT_decl_file("../Source/tasks.c")
    1693                            .dwattr $C$DW$102, DW_AT_decl_line(0x39a)
    1694                            .dwattr $C$DW$102, DW_AT_decl_column(0x07)
    1695                            .dwattr $C$DW$102, DW_AT_TI_max_frame_size(0x10)
    1696                            .dwpsn  file "../Source/tasks.c",line 923,column 2,is_stmt,address vTaskDelay,isa 1
    1697                    
    1698                            .dwfde $C$DW$CIE, vTaskDelay
    1699                    $C$DW$103       .dwtag  DW_TAG_formal_parameter
    1700                            .dwattr $C$DW$103, DW_AT_name("xTicksToDelay")
    1701                            .dwattr $C$DW$103, DW_AT_TI_symbol_name("xTicksToDelay")
    1702                            .dwattr $C$DW$103, DW_AT_type(*$C$DW$T$110)
    1703                            .dwattr $C$DW$103, DW_AT_location[DW_OP_reg0]
    1704                    
    1705                    ;----------------------------------------------------------------------
TI ARM Assembler PC v18.1.2 Thu Aug 23 17:26:18 2018

Tools Copyright (c) 1996-2017 Texas Instruments Incorporated
tasks.asm                                                            PAGE   32

    1706                    ; 922 | void vTaskDelay( const TickType_t xTicksToDelay )                      
    1707                    ;----------------------------------------------------------------------
    1708                    
    1709                    ;*****************************************************************************
    1710                    ;* FUNCTION NAME: vTaskDelay                                                 *
    1711                    ;*                                                                           *
    1712                    ;*   Regs Modified     : A1,A2,A3,A4,V9,SP,LR,SR,D0,D0_hi,D1,D1_hi,D2,D2_hi, *
    1713                    ;*                           D3,D3_hi,D4,D4_hi,D5,D5_hi,D6,D6_hi,D7,D7_hi,   *
    1714                    ;*                           FPEXC,FPSCR                                     *
    1715                    ;*   Regs Used         : A1,A2,A3,A4,V9,SP,LR,SR,D0,D0_hi,D1,D1_hi,D2,D2_hi, *
    1716                    ;*                           D3,D3_hi,D4,D4_hi,D5,D5_hi,D6,D6_hi,D7,D7_hi,   *
    1717                    ;*                           FPEXC,FPSCR                                     *
    1718                    ;*   Local Frame Size  : 0 Args + 12 Auto + 4 Save = 16 byte                 *
    1719                    ;*****************************************************************************
    1720 0000024c           vTaskDelay:
    1721                    ;* --------------------------------------------------------------------------*
    1722                            .dwcfi  cfa_offset, 0
    1723 0000024c B50E              PUSH      {A2, A3, A4, LR}      ; [DPU_V7M3_PIPE]  ; [ORIG 16-BIT INS]
    1724                            .dwcfi  cfa_offset, 16
    1725                            .dwcfi  save_reg_to_mem, 14, -4
    1726                            .dwcfi  save_reg_to_mem, 3, -8
    1727                            .dwcfi  save_reg_to_mem, 2, -12
    1728                            .dwcfi  save_reg_to_mem, 1, -16
    1729                    $C$DW$104       .dwtag  DW_TAG_variable
    1730                            .dwattr $C$DW$104, DW_AT_name("xTicksToDelay")
    1731                            .dwattr $C$DW$104, DW_AT_TI_symbol_name("xTicksToDelay")
    1732                            .dwattr $C$DW$104, DW_AT_type(*$C$DW$T$110)
    1733                            .dwattr $C$DW$104, DW_AT_location[DW_OP_breg13 0]
    1734                    
    1735                    $C$DW$105       .dwtag  DW_TAG_variable
    1736                            .dwattr $C$DW$105, DW_AT_name("xTimeToWake")
    1737                            .dwattr $C$DW$105, DW_AT_TI_symbol_name("xTimeToWake")
    1738                            .dwattr $C$DW$105, DW_AT_type(*$C$DW$T$49)
    1739                            .dwattr $C$DW$105, DW_AT_location[DW_OP_breg13 4]
    1740                    
    1741                    $C$DW$106       .dwtag  DW_TAG_variable
    1742                            .dwattr $C$DW$106, DW_AT_name("xAlreadyYielded")
    1743                            .dwattr $C$DW$106, DW_AT_TI_symbol_name("xAlreadyYielded")
    1744                            .dwattr $C$DW$106, DW_AT_type(*$C$DW$T$71)
    1745                            .dwattr $C$DW$106, DW_AT_location[DW_OP_breg13 8]
    1746                    
    1747                    ;----------------------------------------------------------------------
    1748                    ; 924 | TickType_t xTimeToWake;                                                
    1749                    ;----------------------------------------------------------------------
    1750 0000024e 9000              STR       A1, [SP, #0]          ; [DPU_V7M3_PIPE] |923|  ; [ORIG 16-BIT INS]
    1751                            .dwpsn  file "../Source/tasks.c",line 925,column 29,is_stmt,isa 1
    1752                    ;----------------------------------------------------------------------
    1753                    ; 925 | BaseType_t xAlreadyYielded = pdFALSE;                                  
    1754                    ;----------------------------------------------------------------------
    1755 00000250 2000              MOVS      A1, #0                ; [DPU_V7M3_PIPE] |925|  ; [ORIG 16-BIT INS]
    1756 00000252 9002              STR       A1, [SP, #8]          ; [DPU_V7M3_PIPE] |925|  ; [ORIG 16-BIT INS]
    1757                            .dwpsn  file "../Source/tasks.c",line 929,column 3,is_stmt,isa 1
    1758                    ;----------------------------------------------------------------------
    1759                    ; 929 | if( xTicksToDelay > ( TickType_t ) 0U )                                
    1760                    ; 931 |         configASSERT( uxSchedulerSuspended == 0 );                     
TI ARM Assembler PC v18.1.2 Thu Aug 23 17:26:18 2018

Tools Copyright (c) 1996-2017 Texas Instruments Incorporated
tasks.asm                                                            PAGE   33

    1761                    ;----------------------------------------------------------------------
    1762 00000254 9800              LDR       A1, [SP, #0]          ; [DPU_V7M3_PIPE] |929|  ; [ORIG 16-BIT INS]
    1763 00000256 B1D8              CBZ       A1, ||$C$L20||        ; []  ; [ORIG 16-BIT INS]
    1764                            ; BRANCHCC OCCURS {||$C$L20||}   ; [] |929| 
    1765                    ;* --------------------------------------------------------------------------*
    1766                            .dwpsn  file "../Source/tasks.c",line 932,column 4,is_stmt,isa 1
    1767                    ;----------------------------------------------------------------------
    1768                    ; 932 | vTaskSuspendAll();                                                     
    1769                    ; 934 |         traceTASK_DELAY();                                             
    1770                    ;----------------------------------------------------------------------
    1771                    $C$DW$107       .dwtag  DW_TAG_TI_branch
    1772                            .dwattr $C$DW$107, DW_AT_low_pc(0x00)
    1773                            .dwattr $C$DW$107, DW_AT_name("vTaskSuspendAll")
    1774                            .dwattr $C$DW$107, DW_AT_TI_call
    1775                    
    1776 00000258 FFFEF7FF!         BL        vTaskSuspendAll       ; [DPU_V7M3_PIPE] |932|  ; [KEEP 32-BIT INS]
    1777                            ; CALL OCCURS {vTaskSuspendAll }  ; [] |932| 
    1778                            .dwpsn  file "../Source/tasks.c",line 946,column 5,is_stmt,isa 1
    1779                    ;----------------------------------------------------------------------
    1780                    ; 946 | xTimeToWake = xTickCount + xTicksToDelay;                              
    1781                    ;----------------------------------------------------------------------
    1782 0000025c 4873              LDR       A1, $C$CON10          ; [DPU_V7M3_PIPE] |946|  ; [ORIG 16-BIT INS]
    1783 0000025e 9900              LDR       A2, [SP, #0]          ; [DPU_V7M3_PIPE] |946|  ; [ORIG 16-BIT INS]
    1784 00000260 6800              LDR       A1, [A1, #0]          ; [DPU_V7M3_PIPE] |946|  ; [ORIG 16-BIT INS]
    1785 00000262 1840              ADDS      A1, A1, A2            ; [DPU_V7M3_PIPE] |946|  ; [ORIG 16-BIT INS]
    1786 00000264 9001              STR       A1, [SP, #4]          ; [DPU_V7M3_PIPE] |946|  ; [ORIG 16-BIT INS]
    1787                            .dwpsn  file "../Source/tasks.c",line 951,column 5,is_stmt,isa 1
    1788                    ;----------------------------------------------------------------------
    1789                    ; 951 | if( uxListRemove( &( pxCurrentTCB->xGenericListItem ) ) == ( UBaseType_
    1790                    ;     | t ) 0 )                                                                
    1791                    ;----------------------------------------------------------------------
    1792 00000266 481A              LDR       A1, $C$CON2           ; [DPU_V7M3_PIPE] |951|  ; [ORIG 16-BIT INS]
    1793 00000268 6800              LDR       A1, [A1, #0]          ; [DPU_V7M3_PIPE] |951|  ; [ORIG 16-BIT INS]
    1794 0000026a 1D00              ADDS      A1, A1, #4            ; [DPU_V7M3_PIPE] |951|  ; [ORIG 16-BIT INS]
    1795                    $C$DW$108       .dwtag  DW_TAG_TI_branch
    1796                            .dwattr $C$DW$108, DW_AT_low_pc(0x00)
    1797                            .dwattr $C$DW$108, DW_AT_name("uxListRemove")
    1798                            .dwattr $C$DW$108, DW_AT_TI_call
    1799                    
    1800 0000026c FFFEF7FF!         BL        uxListRemove          ; [DPU_V7M3_PIPE] |951|  ; [KEEP 32-BIT INS]
    1801                            ; CALL OCCURS {uxListRemove }    ; [] |951| 
    1802 00000270 B940              CBNZ      A1, ||$C$L19||        ; []  ; [ORIG 16-BIT INS]
    1803                            ; BRANCHCC OCCURS {||$C$L19||}   ; [] |951| 
    1804                    ;* --------------------------------------------------------------------------*
    1805                            .dwpsn  file "../Source/tasks.c",line 956,column 6,is_stmt,isa 1
    1806                    ;----------------------------------------------------------------------
    1807                    ; 956 | portRESET_READY_PRIORITY( pxCurrentTCB->uxPriority, uxTopReadyPriority
    1808                    ;     | );                                                                     
    1809                    ;----------------------------------------------------------------------
    1810 00000272 4817              LDR       A1, $C$CON2           ; [DPU_V7M3_PIPE] |956|  ; [ORIG 16-BIT INS]
    1811 00000274 6800              LDR       A1, [A1, #0]          ; [DPU_V7M3_PIPE] |956|  ; [ORIG 16-BIT INS]
    1812 00000276 4A28              LDR       A3, $C$CON5           ; [DPU_V7M3_PIPE] |956|  ; [ORIG 16-BIT INS]
    1813 00000278 6AC3              LDR       A4, [A1, #44]         ; [DPU_V7M3_PIPE] |956|  ; [ORIG 16-BIT INS]
    1814 0000027a 6811              LDR       A2, [A3, #0]          ; [DPU_V7M3_PIPE] |956|  ; [ORIG 16-BIT INS]
    1815 0000027c 2001              MOVS      A1, #1                ; [DPU_V7M3_PIPE] |956|  ; [ORIG 16-BIT INS]
TI ARM Assembler PC v18.1.2 Thu Aug 23 17:26:18 2018

Tools Copyright (c) 1996-2017 Texas Instruments Incorporated
tasks.asm                                                            PAGE   34

    1816 0000027e 4098              LSLS      A1, A1, A4            ; [DPU_V7M3_PIPE] |956|  ; [ORIG 16-BIT INS]
    1817 00000280 4381              BICS      A2, A2, A1            ; [DPU_V7M3_PIPE] |956|  ; [ORIG 16-BIT INS]
    1818 00000282 6011              STR       A2, [A3, #0]          ; [DPU_V7M3_PIPE] |956|  ; [ORIG 16-BIT INS]
    1819                            .dwpsn  file "../Source/tasks.c",line 957,column 5,is_stmt,isa 1
    1820                    ;----------------------------------------------------------------------
    1821                    ; 958 | else                                                                   
    1822                    ; 960 |         mtCOVERAGE_TEST_MARKER();                                      
    1823                    ;----------------------------------------------------------------------
    1824                    ;* --------------------------------------------------------------------------*
    1825 00000284           ||$C$L19||:    
    1826                            .dwpsn  file "../Source/tasks.c",line 962,column 5,is_stmt,isa 1
    1827                    ;----------------------------------------------------------------------
    1828                    ; 962 | prvAddCurrentTaskToDelayedList( xTimeToWake );                         
    1829                    ;----------------------------------------------------------------------
    1830 00000284 9801              LDR       A1, [SP, #4]          ; [DPU_V7M3_PIPE] |962|  ; [ORIG 16-BIT INS]
    1831                    $C$DW$109       .dwtag  DW_TAG_TI_branch
    1832                            .dwattr $C$DW$109, DW_AT_low_pc(0x00)
    1833                            .dwattr $C$DW$109, DW_AT_name("prvAddCurrentTaskToDelayedList")
    1834                            .dwattr $C$DW$109, DW_AT_TI_call
    1835                    
    1836 00000286 FFFEF7FF!         BL        prvAddCurrentTaskToDelayedList ; [DPU_V7M3_PIPE] |962|  ; [KEEP 32-BIT INS]
    1837                            ; CALL OCCURS {prvAddCurrentTaskToDelayedList }  ; [] |962| 
    1838                            .dwpsn  file "../Source/tasks.c",line 964,column 4,is_stmt,isa 1
    1839                    ;----------------------------------------------------------------------
    1840                    ; 964 | xAlreadyYielded = xTaskResumeAll();                                    
    1841                    ;----------------------------------------------------------------------
    1842                    $C$DW$110       .dwtag  DW_TAG_TI_branch
    1843                            .dwattr $C$DW$110, DW_AT_low_pc(0x00)
    1844                            .dwattr $C$DW$110, DW_AT_name("xTaskResumeAll")
    1845                            .dwattr $C$DW$110, DW_AT_TI_call
    1846                    
    1847 0000028a FFFEF7FF!         BL        xTaskResumeAll        ; [DPU_V7M3_PIPE] |964|  ; [KEEP 32-BIT INS]
    1848                            ; CALL OCCURS {xTaskResumeAll }  ; [] |964| 
    1849 0000028e 9002              STR       A1, [SP, #8]          ; [DPU_V7M3_PIPE] |964|  ; [ORIG 16-BIT INS]
    1850                            .dwpsn  file "../Source/tasks.c",line 965,column 3,is_stmt,isa 1
    1851                    ;----------------------------------------------------------------------
    1852                    ; 966 | else                                                                   
    1853                    ; 968 |         mtCOVERAGE_TEST_MARKER();                                      
    1854                    ;----------------------------------------------------------------------
    1855                    ;* --------------------------------------------------------------------------*
    1856 00000290           ||$C$L20||:    
    1857                            .dwpsn  file "../Source/tasks.c",line 973,column 3,is_stmt,isa 1
    1858                    ;----------------------------------------------------------------------
    1859                    ; 973 | if( xAlreadyYielded == pdFALSE )                                       
    1860                    ;----------------------------------------------------------------------
    1861 00000290 9802              LDR       A1, [SP, #8]          ; [DPU_V7M3_PIPE] |973|  ; [ORIG 16-BIT INS]
    1862 00000292 B940              CBNZ      A1, ||$C$L21||        ; []  ; [ORIG 16-BIT INS]
    1863                            ; BRANCHCC OCCURS {||$C$L21||}   ; [] |973| 
    1864                    ;* --------------------------------------------------------------------------*
    1865                            .dwpsn  file "../Source/tasks.c",line 975,column 4,is_stmt,isa 1
    1866                    ;----------------------------------------------------------------------
    1867                    ; 975 | portYIELD_WITHIN_API();                                                
    1868                    ;----------------------------------------------------------------------
    1869 00000294 4924              LDR       A2, $C$CON9           ; [DPU_V7M3_PIPE] |975|  ; [ORIG 16-BIT INS]
    1870 00000296 5080F04F          MOV       A1, #268435456        ; [DPU_V7M3_PIPE] |975|  ; [KEEP 32-BIT INS]
TI ARM Assembler PC v18.1.2 Thu Aug 23 17:26:18 2018

Tools Copyright (c) 1996-2017 Texas Instruments Incorporated
tasks.asm                                                            PAGE   35

    1871 0000029a 6008              STR       A1, [A2, #0]          ; [DPU_V7M3_PIPE] |975|  ; [ORIG 16-BIT INS]
    1872 0000029c 8F4FF3BF          dsb ; [KEEP 32-BIT INS]
    1873 000002a0 8F6FF3BF          isb ; [KEEP 32-BIT INS]
    1874                            .dwpsn  file "../Source/tasks.c",line 976,column 3,is_stmt,isa 1
    1875                    ;----------------------------------------------------------------------
    1876                    ; 977 | else                                                                   
    1877                    ; 979 |         mtCOVERAGE_TEST_MARKER();                                      
    1878                    ;----------------------------------------------------------------------
    1879 000002a4 E7FF              B         ||$C$L21||            ; [DPU_V7M3_PIPE] |976|  ; [ORIG 16-BIT INS]
    1880                            ; BRANCH OCCURS {||$C$L21||}     ; [] |976| 
    1881                    ;* --------------------------------------------------------------------------*
    1882                    ;* --------------------------------------------------------------------------*
    1883                    ||$C$L21||:    
    1884                    $C$DW$111       .dwtag  DW_TAG_TI_branch
    1885                            .dwattr $C$DW$111, DW_AT_low_pc(0x00)
    1886                            .dwattr $C$DW$111, DW_AT_TI_return
    1887                    
    1888 000002a6 BD0E              POP       {A2, A3, A4, PC}      ; [DPU_V7M3_PIPE]  ; [ORIG 16-BIT INS]
    1889                            .dwcfi  cfa_offset, 0
    1890                            .dwcfi  restore_reg, 3
    1891                            .dwcfi  restore_reg, 2
    1892                            .dwcfi  restore_reg, 1
    1893                            ; BRANCH OCCURS                  ; [] 
    1894                            .dwattr $C$DW$102, DW_AT_TI_end_file("../Source/tasks.c")
    1895                            .dwattr $C$DW$102, DW_AT_TI_end_line(0x3d5)
    1896                            .dwattr $C$DW$102, DW_AT_TI_end_column(0x02)
    1897                            .dwendentry
    1898                            .dwendtag $C$DW$102
    1899                    
    1900 000002a8                   .sect   ".text"
    1901                            .clink
    1902                            .thumbfunc uxTaskPriorityGet
    1903 000002a8                   .thumb
    1904                            .global uxTaskPriorityGet
    1905                    
    1906                    $C$DW$112       .dwtag  DW_TAG_subprogram
    1907                            .dwattr $C$DW$112, DW_AT_name("uxTaskPriorityGet")
    1908                            .dwattr $C$DW$112, DW_AT_low_pc(uxTaskPriorityGet)
    1909                            .dwattr $C$DW$112, DW_AT_high_pc(0x00)
    1910                            .dwattr $C$DW$112, DW_AT_TI_symbol_name("uxTaskPriorityGet")
    1911                            .dwattr $C$DW$112, DW_AT_external
    1912                            .dwattr $C$DW$112, DW_AT_type(*$C$DW$T$37)
    1913                            .dwattr $C$DW$112, DW_AT_TI_begin_file("../Source/tasks.c")
    1914                            .dwattr $C$DW$112, DW_AT_TI_begin_line(0x422)
    1915                            .dwattr $C$DW$112, DW_AT_TI_begin_column(0x0e)
    1916                            .dwattr $C$DW$112, DW_AT_decl_file("../Source/tasks.c")
    1917                            .dwattr $C$DW$112, DW_AT_decl_line(0x422)
    1918                            .dwattr $C$DW$112, DW_AT_decl_column(0x0e)
    1919                            .dwattr $C$DW$112, DW_AT_TI_max_frame_size(0x10)
    1920                            .dwpsn  file "../Source/tasks.c",line 1059,column 2,is_stmt,address uxTaskPriorityGet,isa 1
    1921                    
    1922                            .dwfde $C$DW$CIE, uxTaskPriorityGet
    1923                    $C$DW$113       .dwtag  DW_TAG_formal_parameter
    1924                            .dwattr $C$DW$113, DW_AT_name("xTask")
    1925                            .dwattr $C$DW$113, DW_AT_TI_symbol_name("xTask")
TI ARM Assembler PC v18.1.2 Thu Aug 23 17:26:18 2018

Tools Copyright (c) 1996-2017 Texas Instruments Incorporated
tasks.asm                                                            PAGE   36

    1926                            .dwattr $C$DW$113, DW_AT_type(*$C$DW$T$65)
    1927                            .dwattr $C$DW$113, DW_AT_location[DW_OP_reg0]
    1928                    
    1929                    ;----------------------------------------------------------------------
    1930                    ; 1058 | UBaseType_t uxTaskPriorityGet( TaskHandle_t xTask )                    
    1931                    ;----------------------------------------------------------------------
    1932                    
    1933                    ;*****************************************************************************
    1934                    ;* FUNCTION NAME: uxTaskPriorityGet                                          *
    1935                    ;*                                                                           *
    1936                    ;*   Regs Modified     : A1,A2,A3,A4,V9,SP,LR,SR,D0,D0_hi,D1,D1_hi,D2,D2_hi, *
    1937                    ;*                           D3,D3_hi,D4,D4_hi,D5,D5_hi,D6,D6_hi,D7,D7_hi,   *
    1938                    ;*                           FPEXC,FPSCR                                     *
    1939                    ;*   Regs Used         : A1,A2,A3,A4,V9,SP,LR,SR,D0,D0_hi,D1,D1_hi,D2,D2_hi, *
    1940                    ;*                           D3,D3_hi,D4,D4_hi,D5,D5_hi,D6,D6_hi,D7,D7_hi,   *
    1941                    ;*                           FPEXC,FPSCR                                     *
    1942                    ;*   Local Frame Size  : 0 Args + 12 Auto + 4 Save = 16 byte                 *
    1943                    ;*****************************************************************************
    1944 000002a8           uxTaskPriorityGet:
    1945                    ;* --------------------------------------------------------------------------*
    1946                            .dwcfi  cfa_offset, 0
    1947 000002a8 B50E              PUSH      {A2, A3, A4, LR}      ; [DPU_V7M3_PIPE]  ; [ORIG 16-BIT INS]
    1948                            .dwcfi  cfa_offset, 16
    1949                            .dwcfi  save_reg_to_mem, 14, -4
    1950                            .dwcfi  save_reg_to_mem, 3, -8
    1951                            .dwcfi  save_reg_to_mem, 2, -12
    1952                            .dwcfi  save_reg_to_mem, 1, -16
    1953                    $C$DW$114       .dwtag  DW_TAG_variable
    1954                            .dwattr $C$DW$114, DW_AT_name("xTask")
    1955                            .dwattr $C$DW$114, DW_AT_TI_symbol_name("xTask")
    1956                            .dwattr $C$DW$114, DW_AT_type(*$C$DW$T$65)
    1957                            .dwattr $C$DW$114, DW_AT_location[DW_OP_breg13 0]
    1958                    
    1959                    $C$DW$115       .dwtag  DW_TAG_variable
    1960                            .dwattr $C$DW$115, DW_AT_name("pxTCB")
    1961                            .dwattr $C$DW$115, DW_AT_TI_symbol_name("pxTCB")
    1962                            .dwattr $C$DW$115, DW_AT_type(*$C$DW$T$128)
    1963                            .dwattr $C$DW$115, DW_AT_location[DW_OP_breg13 4]
    1964                    
    1965                    $C$DW$116       .dwtag  DW_TAG_variable
    1966                            .dwattr $C$DW$116, DW_AT_name("uxReturn")
    1967                            .dwattr $C$DW$116, DW_AT_TI_symbol_name("uxReturn")
    1968                            .dwattr $C$DW$116, DW_AT_type(*$C$DW$T$37)
    1969                            .dwattr $C$DW$116, DW_AT_location[DW_OP_breg13 8]
    1970                    
    1971                    ;----------------------------------------------------------------------
    1972                    ; 1060 | TCB_t *pxTCB;                                                          
    1973                    ; 1061 | UBaseType_t uxReturn;                                                  
    1974                    ;----------------------------------------------------------------------
    1975 000002aa 9000              STR       A1, [SP, #0]          ; [DPU_V7M3_PIPE] |1059|  ; [ORIG 16-BIT INS]
    1976                            .dwpsn  file "../Source/tasks.c",line 1063,column 3,is_stmt,isa 1
    1977                    ;----------------------------------------------------------------------
    1978                    ; 1063 | taskENTER_CRITICAL();                                                  
    1979                    ;----------------------------------------------------------------------
    1980                    $C$DW$117       .dwtag  DW_TAG_TI_branch
TI ARM Assembler PC v18.1.2 Thu Aug 23 17:26:18 2018

Tools Copyright (c) 1996-2017 Texas Instruments Incorporated
tasks.asm                                                            PAGE   37

    1981                            .dwattr $C$DW$117, DW_AT_low_pc(0x00)
    1982                            .dwattr $C$DW$117, DW_AT_name("vPortEnterCritical")
    1983                            .dwattr $C$DW$117, DW_AT_TI_call
    1984                    
    1985 000002ac FFFEF7FF!         BL        vPortEnterCritical    ; [DPU_V7M3_PIPE] |1063|  ; [KEEP 32-BIT INS]
    1986                            ; CALL OCCURS {vPortEnterCritical }  ; [] |1063| 
    1987                            .dwpsn  file "../Source/tasks.c",line 1067,column 4,is_stmt,isa 1
    1988                    ;----------------------------------------------------------------------
    1989                    ; 1067 | pxTCB = prvGetTCBFromHandle( xTask );                                  
    1990                    ;----------------------------------------------------------------------
    1991 000002b0 9800              LDR       A1, [SP, #0]          ; [DPU_V7M3_PIPE] |1067|  ; [ORIG 16-BIT INS]
    1992 000002b2 B910              CBNZ      A1, ||$C$L22||        ; []  ; [ORIG 16-BIT INS]
    1993                            ; BRANCHCC OCCURS {||$C$L22||}   ; [] |1067| 
    1994                    ;* --------------------------------------------------------------------------*
    1995 000002b4 4806              LDR       A1, $C$CON2           ; [DPU_V7M3_PIPE] |1067|  ; [ORIG 16-BIT INS]
    1996 000002b6 6800              LDR       A1, [A1, #0]          ; [DPU_V7M3_PIPE] |1067|  ; [ORIG 16-BIT INS]
    1997 000002b8 E000              B         ||$C$L23||            ; [DPU_V7M3_PIPE] |1067|  ; [ORIG 16-BIT INS]
    1998                            ; BRANCH OCCURS {||$C$L23||}     ; [] |1067| 
    1999                    ;* --------------------------------------------------------------------------*
    2000 000002ba           ||$C$L22||:    
    2001 000002ba 9800              LDR       A1, [SP, #0]          ; [DPU_V7M3_PIPE] |1067|  ; [ORIG 16-BIT INS]
    2002                    ;* --------------------------------------------------------------------------*
    2003 000002bc           ||$C$L23||:    
    2004 000002bc 9001              STR       A1, [SP, #4]          ; [DPU_V7M3_PIPE] |1067|  ; [ORIG 16-BIT INS]
    2005                            .dwpsn  file "../Source/tasks.c",line 1068,column 4,is_stmt,isa 1
    2006                    ;----------------------------------------------------------------------
    2007                    ; 1068 | uxReturn = pxTCB->uxPriority;                                          
    2008                    ;----------------------------------------------------------------------
    2009 000002be 9801              LDR       A1, [SP, #4]          ; [DPU_V7M3_PIPE] |1068|  ; [ORIG 16-BIT INS]
    2010 000002c0 6AC0              LDR       A1, [A1, #44]         ; [DPU_V7M3_PIPE] |1068|  ; [ORIG 16-BIT INS]
    2011 000002c2 9002              STR       A1, [SP, #8]          ; [DPU_V7M3_PIPE] |1068|  ; [ORIG 16-BIT INS]
    2012                            .dwpsn  file "../Source/tasks.c",line 1070,column 3,is_stmt,isa 1
    2013                    ;----------------------------------------------------------------------
    2014                    ; 1070 | taskEXIT_CRITICAL();                                                   
    2015                    ;----------------------------------------------------------------------
    2016                    $C$DW$118       .dwtag  DW_TAG_TI_branch
    2017                            .dwattr $C$DW$118, DW_AT_low_pc(0x00)
    2018                            .dwattr $C$DW$118, DW_AT_name("vPortExitCritical")
    2019                            .dwattr $C$DW$118, DW_AT_TI_call
    2020                    
    2021 000002c4 FFFEF7FF!         BL        vPortExitCritical     ; [DPU_V7M3_PIPE] |1070|  ; [KEEP 32-BIT INS]
    2022                            ; CALL OCCURS {vPortExitCritical }  ; [] |1070| 
    2023                            .dwpsn  file "../Source/tasks.c",line 1072,column 3,is_stmt,isa 1
    2024                    ;----------------------------------------------------------------------
    2025                    ; 1072 | return uxReturn;                                                       
    2026                    ;----------------------------------------------------------------------
    2027 000002c8 9802              LDR       A1, [SP, #8]          ; [DPU_V7M3_PIPE] |1072|  ; [ORIG 16-BIT INS]
    2028                            .dwpsn  file "../Source/tasks.c",line 1073,column 2,is_stmt,isa 1
    2029                    $C$DW$119       .dwtag  DW_TAG_TI_branch
    2030                            .dwattr $C$DW$119, DW_AT_low_pc(0x00)
    2031                            .dwattr $C$DW$119, DW_AT_TI_return
    2032                    
    2033 000002ca BD0E              POP       {A2, A3, A4, PC}      ; [DPU_V7M3_PIPE]  ; [ORIG 16-BIT INS]
    2034                            .dwcfi  cfa_offset, 0
    2035                            .dwcfi  restore_reg, 3
TI ARM Assembler PC v18.1.2 Thu Aug 23 17:26:18 2018

Tools Copyright (c) 1996-2017 Texas Instruments Incorporated
tasks.asm                                                            PAGE   38

    2036                            .dwcfi  restore_reg, 2
    2037                            .dwcfi  restore_reg, 1
    2038                            ; BRANCH OCCURS                  ; [] 
    2039                            .dwattr $C$DW$112, DW_AT_TI_end_file("../Source/tasks.c")
    2040                            .dwattr $C$DW$112, DW_AT_TI_end_line(0x431)
    2041                            .dwattr $C$DW$112, DW_AT_TI_end_column(0x02)
    2042                            .dwendentry
    2043                            .dwendtag $C$DW$112
    2044                    
    2045                    ;******************************************************************************
    2046                    ;* CONSTANT TABLE                                                             *
    2047                    ;******************************************************************************
    2048 000002cc                   .sect   ".text"
    2049                            .align  4
    2050 000002cc 00000000! ||$C$CON1||:    .bits   uxCurrentNumberOfTasks,32
    2051                            .align  4
    2052 000002d0 00000000! ||$C$CON2||:    .bits   pxCurrentTCB,32
    2053 000002d4                   .sect   ".text"
    2054                            .clink
    2055                            .thumbfunc uxTaskPriorityGetFromISR
    2056 000002d4                   .thumb
    2057                            .global uxTaskPriorityGetFromISR
    2058                    
    2059                    $C$DW$120       .dwtag  DW_TAG_subprogram
    2060                            .dwattr $C$DW$120, DW_AT_name("uxTaskPriorityGetFromISR")
    2061                            .dwattr $C$DW$120, DW_AT_low_pc(uxTaskPriorityGetFromISR)
    2062                            .dwattr $C$DW$120, DW_AT_high_pc(0x00)
    2063                            .dwattr $C$DW$120, DW_AT_TI_symbol_name("uxTaskPriorityGetFromISR")
    2064                            .dwattr $C$DW$120, DW_AT_external
    2065                            .dwattr $C$DW$120, DW_AT_type(*$C$DW$T$37)
    2066                            .dwattr $C$DW$120, DW_AT_TI_begin_file("../Source/tasks.c")
    2067                            .dwattr $C$DW$120, DW_AT_TI_begin_line(0x438)
    2068                            .dwattr $C$DW$120, DW_AT_TI_begin_column(0x0e)
    2069                            .dwattr $C$DW$120, DW_AT_decl_file("../Source/tasks.c")
    2070                            .dwattr $C$DW$120, DW_AT_decl_line(0x438)
    2071                            .dwattr $C$DW$120, DW_AT_decl_column(0x0e)
    2072                            .dwattr $C$DW$120, DW_AT_TI_max_frame_size(0x10)
    2073                            .dwpsn  file "../Source/tasks.c",line 1081,column 2,is_stmt,address uxTaskPriorityGetFromISR,i
    2074                    
    2075                            .dwfde $C$DW$CIE, uxTaskPriorityGetFromISR
    2076                    $C$DW$121       .dwtag  DW_TAG_formal_parameter
    2077                            .dwattr $C$DW$121, DW_AT_name("xTask")
    2078                            .dwattr $C$DW$121, DW_AT_TI_symbol_name("xTask")
    2079                            .dwattr $C$DW$121, DW_AT_type(*$C$DW$T$65)
    2080                            .dwattr $C$DW$121, DW_AT_location[DW_OP_reg0]
    2081                    
    2082                    ;----------------------------------------------------------------------
    2083                    ; 1080 | UBaseType_t uxTaskPriorityGetFromISR( TaskHandle_t xTask )             
    2084                    ;----------------------------------------------------------------------
    2085                    
    2086                    ;*****************************************************************************
    2087                    ;* FUNCTION NAME: uxTaskPriorityGetFromISR                                   *
    2088                    ;*                                                                           *
    2089                    ;*   Regs Modified     : A1,A2,SP,SR                                         *
    2090                    ;*   Regs Used         : A1,A2,SP,LR,SR                                      *
TI ARM Assembler PC v18.1.2 Thu Aug 23 17:26:18 2018

Tools Copyright (c) 1996-2017 Texas Instruments Incorporated
tasks.asm                                                            PAGE   39

    2091                    ;*   Local Frame Size  : 0 Args + 16 Auto + 0 Save = 16 byte                 *
    2092                    ;*****************************************************************************
    2093 000002d4           uxTaskPriorityGetFromISR:
    2094                    ;* --------------------------------------------------------------------------*
    2095                            .dwcfi  cfa_offset, 0
    2096 000002d4 0D10F1AD          SUB       SP, SP, #16           ; [DPU_V7M3_PIPE]  ; [KEEP 32-BIT INS]
    2097                            .dwcfi  cfa_offset, 16
    2098                    $C$DW$122       .dwtag  DW_TAG_variable
    2099                            .dwattr $C$DW$122, DW_AT_name("xTask")
    2100                            .dwattr $C$DW$122, DW_AT_TI_symbol_name("xTask")
    2101                            .dwattr $C$DW$122, DW_AT_type(*$C$DW$T$65)
    2102                            .dwattr $C$DW$122, DW_AT_location[DW_OP_breg13 0]
    2103                    
    2104                    $C$DW$123       .dwtag  DW_TAG_variable
    2105                            .dwattr $C$DW$123, DW_AT_name("pxTCB")
    2106                            .dwattr $C$DW$123, DW_AT_TI_symbol_name("pxTCB")
    2107                            .dwattr $C$DW$123, DW_AT_type(*$C$DW$T$128)
    2108                            .dwattr $C$DW$123, DW_AT_location[DW_OP_breg13 4]
    2109                    
    2110                    $C$DW$124       .dwtag  DW_TAG_variable
    2111                            .dwattr $C$DW$124, DW_AT_name("uxReturn")
    2112                            .dwattr $C$DW$124, DW_AT_TI_symbol_name("uxReturn")
    2113                            .dwattr $C$DW$124, DW_AT_type(*$C$DW$T$37)
    2114                            .dwattr $C$DW$124, DW_AT_location[DW_OP_breg13 8]
    2115                    
    2116                    $C$DW$125       .dwtag  DW_TAG_variable
    2117                            .dwattr $C$DW$125, DW_AT_name("uxSavedInterruptState")
    2118                            .dwattr $C$DW$125, DW_AT_TI_symbol_name("uxSavedInterruptState")
    2119                            .dwattr $C$DW$125, DW_AT_type(*$C$DW$T$37)
    2120                            .dwattr $C$DW$125, DW_AT_location[DW_OP_breg13 12]
    2121                    
    2122                    ;----------------------------------------------------------------------
    2123                    ; 1082 | TCB_t *pxTCB;                                                          
    2124                    ; 1083 | UBaseType_t uxReturn, uxSavedInterruptState;                           
    2125                    ; 1101 |         portASSERT_IF_INTERRUPT_PRIORITY_INVALID();                    
    2126                    ;----------------------------------------------------------------------
    2127 000002d8 9000              STR       A1, [SP, #0]          ; [DPU_V7M3_PIPE] |1081|  ; [ORIG 16-BIT INS]
    2128                            .dwpsn  file "../Source/tasks.c",line 1103,column 3,is_stmt,isa 1
    2129                    ;----------------------------------------------------------------------
    2130                    ; 1103 | uxSavedInterruptState = portSET_INTERRUPT_MASK_FROM_ISR();             
    2131                    ;----------------------------------------------------------------------
    2132 000002da 8111F3EF          MRS       A2, BASEPRI           ; [DPU_V7M3_PIPE] |1103|  ; [KEEP 32-BIT INS]
    2133 000002de 20A0              MOVS      A1, #160              ; [DPU_V7M3_PIPE] |1103|  ; [ORIG 16-BIT INS]
    2134 000002e0 8811F380          MSR       BASEPRI, A1           ; [DPU_V7M3_PIPE] |1103|  ; [KEEP 32-BIT INS]
    2135 000002e4 9103              STR       A2, [SP, #12]         ; [DPU_V7M3_PIPE] |1103|  ; [ORIG 16-BIT INS]
    2136                            .dwpsn  file "../Source/tasks.c",line 1103,column 27,is_stmt,isa 1
    2137 000002e6 8F4FF3BF          dsb ; [KEEP 32-BIT INS]
    2138 000002ea 8F6FF3BF          isb ; [KEEP 32-BIT INS]
    2139                            .dwpsn  file "../Source/tasks.c",line 1107,column 4,is_stmt,isa 1
    2140                    ;----------------------------------------------------------------------
    2141                    ; 1107 | pxTCB = prvGetTCBFromHandle( xTask );                                  
    2142                    ;----------------------------------------------------------------------
    2143 000002ee 9800              LDR       A1, [SP, #0]          ; [DPU_V7M3_PIPE] |1107|  ; [ORIG 16-BIT INS]
    2144 000002f0 B910              CBNZ      A1, ||$C$L24||        ; []  ; [ORIG 16-BIT INS]
    2145                            ; BRANCHCC OCCURS {||$C$L24||}   ; [] |1107| 
TI ARM Assembler PC v18.1.2 Thu Aug 23 17:26:18 2018

Tools Copyright (c) 1996-2017 Texas Instruments Incorporated
tasks.asm                                                            PAGE   40

    2146                    ;* --------------------------------------------------------------------------*
    2147 000002f2 4896              LDR       A1, $C$CON11          ; [DPU_V7M3_PIPE] |1107|  ; [ORIG 16-BIT INS]
    2148 000002f4 6800              LDR       A1, [A1, #0]          ; [DPU_V7M3_PIPE] |1107|  ; [ORIG 16-BIT INS]
    2149 000002f6 E000              B         ||$C$L25||            ; [DPU_V7M3_PIPE] |1107|  ; [ORIG 16-BIT INS]
    2150                            ; BRANCH OCCURS {||$C$L25||}     ; [] |1107| 
    2151                    ;* --------------------------------------------------------------------------*
    2152 000002f8           ||$C$L24||:    
    2153 000002f8 9800              LDR       A1, [SP, #0]          ; [DPU_V7M3_PIPE] |1107|  ; [ORIG 16-BIT INS]
    2154                    ;* --------------------------------------------------------------------------*
    2155 000002fa           ||$C$L25||:    
    2156 000002fa 9001              STR       A1, [SP, #4]          ; [DPU_V7M3_PIPE] |1107|  ; [ORIG 16-BIT INS]
    2157                            .dwpsn  file "../Source/tasks.c",line 1108,column 4,is_stmt,isa 1
    2158                    ;----------------------------------------------------------------------
    2159                    ; 1108 | uxReturn = pxTCB->uxPriority;                                          
    2160                    ;----------------------------------------------------------------------
    2161 000002fc 9801              LDR       A1, [SP, #4]          ; [DPU_V7M3_PIPE] |1108|  ; [ORIG 16-BIT INS]
    2162 000002fe 6AC0              LDR       A1, [A1, #44]         ; [DPU_V7M3_PIPE] |1108|  ; [ORIG 16-BIT INS]
    2163 00000300 9002              STR       A1, [SP, #8]          ; [DPU_V7M3_PIPE] |1108|  ; [ORIG 16-BIT INS]
    2164                            .dwpsn  file "../Source/tasks.c",line 1110,column 3,is_stmt,isa 1
    2165                    ;----------------------------------------------------------------------
    2166                    ; 1110 | portCLEAR_INTERRUPT_MASK_FROM_ISR( uxSavedInterruptState );            
    2167                    ;----------------------------------------------------------------------
    2168 00000302 9803              LDR       A1, [SP, #12]         ; [DPU_V7M3_PIPE] |1110|  ; [ORIG 16-BIT INS]
    2169 00000304 8811F380          MSR       BASEPRI, A1           ; [DPU_V7M3_PIPE] |1110|  ; [KEEP 32-BIT INS]
    2170                            .dwpsn  file "../Source/tasks.c",line 1112,column 3,is_stmt,isa 1
    2171                    ;----------------------------------------------------------------------
    2172                    ; 1112 | return uxReturn;                                                       
    2173                    ;----------------------------------------------------------------------
    2174 00000308 9802              LDR       A1, [SP, #8]          ; [DPU_V7M3_PIPE] |1112|  ; [ORIG 16-BIT INS]
    2175                            .dwpsn  file "../Source/tasks.c",line 1113,column 2,is_stmt,isa 1
    2176 0000030a B004              ADD       SP, SP, #16           ; [DPU_V7M3_PIPE]  ; [ORIG 16-BIT INS]
    2177                            .dwcfi  cfa_offset, 0
    2178                    $C$DW$126       .dwtag  DW_TAG_TI_branch
    2179                            .dwattr $C$DW$126, DW_AT_low_pc(0x00)
    2180                            .dwattr $C$DW$126, DW_AT_TI_return
    2181                    
    2182 0000030c 4770              BX        LR                    ; [DPU_V7M3_PIPE]  ; [ORIG 16-BIT INS]
    2183                            ; BRANCH OCCURS                  ; [] 
    2184                            .dwattr $C$DW$120, DW_AT_TI_end_file("../Source/tasks.c")
    2185                            .dwattr $C$DW$120, DW_AT_TI_end_line(0x459)
    2186                            .dwattr $C$DW$120, DW_AT_TI_end_column(0x02)
    2187                            .dwendentry
    2188                            .dwendtag $C$DW$120
    2189                    
    2190                    ;******************************************************************************
    2191                    ;* CONSTANT TABLE                                                             *
    2192                    ;******************************************************************************
    2193 0000030e                   .sect   ".text"
    2194                            .align  4
    2195 0000030e 000046C0! ||$C$CON3||:    .bits   xSchedulerRunning,32
         00000312 00000000 
    2196                            .align  4
    2197 00000312 00000000! ||$C$CON4||:    .bits   uxTaskNumber,32
         00000316 00000000 
    2198                            .align  4
TI ARM Assembler PC v18.1.2 Thu Aug 23 17:26:18 2018

Tools Copyright (c) 1996-2017 Texas Instruments Incorporated
tasks.asm                                                            PAGE   41

    2199 00000316 00000000! ||$C$CON5||:    .bits   uxTopReadyPriority,32
         0000031a 00000000 
    2200                            .align  4
    2201 0000031a 00000000! ||$C$CON6||:    .bits   pxReadyTasksLists,32
         0000031e 00000000 
    2202                            .align  4
    2203 0000031e 00000000! ||$C$CON7||:    .bits   xTasksWaitingTermination,32
         00000322 00000000 
    2204                            .align  4
    2205 00000322 00000000! ||$C$CON8||:    .bits   uxTasksDeleted,32
         00000326 00000000 
    2206                            .align  4
    2207 00000326 ED040000  ||$C$CON9||:    .bits   -536810236,32
         0000032a 0000E000 
    2208 0000032c                   .sect   ".text"
    2209                            .clink
    2210                            .thumbfunc vTaskPrioritySet
    2211 0000032c                   .thumb
    2212                            .global vTaskPrioritySet
    2213                    
    2214                    $C$DW$127       .dwtag  DW_TAG_subprogram
    2215                            .dwattr $C$DW$127, DW_AT_name("vTaskPrioritySet")
    2216                            .dwattr $C$DW$127, DW_AT_low_pc(vTaskPrioritySet)
    2217                            .dwattr $C$DW$127, DW_AT_high_pc(0x00)
    2218                            .dwattr $C$DW$127, DW_AT_TI_symbol_name("vTaskPrioritySet")
    2219                            .dwattr $C$DW$127, DW_AT_external
    2220                            .dwattr $C$DW$127, DW_AT_TI_begin_file("../Source/tasks.c")
    2221                            .dwattr $C$DW$127, DW_AT_TI_begin_line(0x460)
    2222                            .dwattr $C$DW$127, DW_AT_TI_begin_column(0x07)
    2223                            .dwattr $C$DW$127, DW_AT_decl_file("../Source/tasks.c")
    2224                            .dwattr $C$DW$127, DW_AT_decl_line(0x460)
    2225                            .dwattr $C$DW$127, DW_AT_decl_column(0x07)
    2226                            .dwattr $C$DW$127, DW_AT_TI_max_frame_size(0x20)
    2227                            .dwpsn  file "../Source/tasks.c",line 1121,column 2,is_stmt,address vTaskPrioritySet,isa 1
    2228                    
    2229                            .dwfde $C$DW$CIE, vTaskPrioritySet
    2230                    $C$DW$128       .dwtag  DW_TAG_formal_parameter
    2231                            .dwattr $C$DW$128, DW_AT_name("xTask")
    2232                            .dwattr $C$DW$128, DW_AT_TI_symbol_name("xTask")
    2233                            .dwattr $C$DW$128, DW_AT_type(*$C$DW$T$65)
    2234                            .dwattr $C$DW$128, DW_AT_location[DW_OP_reg0]
    2235                    
    2236                    $C$DW$129       .dwtag  DW_TAG_formal_parameter
    2237                            .dwattr $C$DW$129, DW_AT_name("uxNewPriority")
    2238                            .dwattr $C$DW$129, DW_AT_TI_symbol_name("uxNewPriority")
    2239                            .dwattr $C$DW$129, DW_AT_type(*$C$DW$T$37)
    2240                            .dwattr $C$DW$129, DW_AT_location[DW_OP_reg1]
    2241                    
    2242                    ;----------------------------------------------------------------------
    2243                    ; 1120 | void vTaskPrioritySet( TaskHandle_t xTask, UBaseType_t uxNewPriority ) 
    2244                    ;----------------------------------------------------------------------
    2245                    
    2246                    ;*****************************************************************************
    2247                    ;* FUNCTION NAME: vTaskPrioritySet                                           *
    2248                    ;*                                                                           *
TI ARM Assembler PC v18.1.2 Thu Aug 23 17:26:18 2018

Tools Copyright (c) 1996-2017 Texas Instruments Incorporated
tasks.asm                                                            PAGE   42

    2249                    ;*   Regs Modified     : A1,A2,A3,A4,V1,V9,SP,LR,SR,D0,D0_hi,D1,D1_hi,D2,    *
    2250                    ;*                           D2_hi,D3,D3_hi,D4,D4_hi,D5,D5_hi,D6,D6_hi,D7,   *
    2251                    ;*                           D7_hi,FPEXC,FPSCR                               *
    2252                    ;*   Regs Used         : A1,A2,A3,A4,V1,V9,SP,LR,SR,D0,D0_hi,D1,D1_hi,D2,    *
    2253                    ;*                           D2_hi,D3,D3_hi,D4,D4_hi,D5,D5_hi,D6,D6_hi,D7,   *
    2254                    ;*                           D7_hi,FPEXC,FPSCR                               *
    2255                    ;*   Local Frame Size  : 0 Args + 24 Auto + 8 Save = 32 byte                 *
    2256                    ;*****************************************************************************
    2257 0000032c           vTaskPrioritySet:
    2258                    ;* --------------------------------------------------------------------------*
    2259                            .dwcfi  cfa_offset, 0
    2260 0000032c B510              PUSH      {V1, LR}              ; [DPU_V7M3_PIPE]  ; [ORIG 16-BIT INS]
    2261                            .dwcfi  cfa_offset, 8
    2262                            .dwcfi  save_reg_to_mem, 14, -4
    2263                            .dwcfi  save_reg_to_mem, 4, -8
    2264 0000032e 0D18F1AD          SUB       SP, SP, #24           ; [DPU_V7M3_PIPE]  ; [KEEP 32-BIT INS]
    2265                            .dwcfi  cfa_offset, 32
    2266                    $C$DW$130       .dwtag  DW_TAG_variable
    2267                            .dwattr $C$DW$130, DW_AT_name("xTask")
    2268                            .dwattr $C$DW$130, DW_AT_TI_symbol_name("xTask")
    2269                            .dwattr $C$DW$130, DW_AT_type(*$C$DW$T$65)
    2270                            .dwattr $C$DW$130, DW_AT_location[DW_OP_breg13 0]
    2271                    
    2272                    $C$DW$131       .dwtag  DW_TAG_variable
    2273                            .dwattr $C$DW$131, DW_AT_name("uxNewPriority")
    2274                            .dwattr $C$DW$131, DW_AT_TI_symbol_name("uxNewPriority")
    2275                            .dwattr $C$DW$131, DW_AT_type(*$C$DW$T$37)
    2276                            .dwattr $C$DW$131, DW_AT_location[DW_OP_breg13 4]
    2277                    
    2278                    $C$DW$132       .dwtag  DW_TAG_variable
    2279                            .dwattr $C$DW$132, DW_AT_name("pxTCB")
    2280                            .dwattr $C$DW$132, DW_AT_TI_symbol_name("pxTCB")
    2281                            .dwattr $C$DW$132, DW_AT_type(*$C$DW$T$128)
    2282                            .dwattr $C$DW$132, DW_AT_location[DW_OP_breg13 8]
    2283                    
    2284                    $C$DW$133       .dwtag  DW_TAG_variable
    2285                            .dwattr $C$DW$133, DW_AT_name("uxCurrentBasePriority")
    2286                            .dwattr $C$DW$133, DW_AT_TI_symbol_name("uxCurrentBasePriority")
    2287                            .dwattr $C$DW$133, DW_AT_type(*$C$DW$T$37)
    2288                            .dwattr $C$DW$133, DW_AT_location[DW_OP_breg13 12]
    2289                    
    2290                    $C$DW$134       .dwtag  DW_TAG_variable
    2291                            .dwattr $C$DW$134, DW_AT_name("uxPriorityUsedOnEntry")
    2292                            .dwattr $C$DW$134, DW_AT_TI_symbol_name("uxPriorityUsedOnEntry")
    2293                            .dwattr $C$DW$134, DW_AT_type(*$C$DW$T$37)
    2294                            .dwattr $C$DW$134, DW_AT_location[DW_OP_breg13 16]
    2295                    
    2296                    $C$DW$135       .dwtag  DW_TAG_variable
    2297                            .dwattr $C$DW$135, DW_AT_name("xYieldRequired")
    2298                            .dwattr $C$DW$135, DW_AT_TI_symbol_name("xYieldRequired")
    2299                            .dwattr $C$DW$135, DW_AT_type(*$C$DW$T$71)
    2300                            .dwattr $C$DW$135, DW_AT_location[DW_OP_breg13 20]
    2301                    
    2302                    ;----------------------------------------------------------------------
    2303                    ; 1122 | TCB_t *pxTCB;                                                          
TI ARM Assembler PC v18.1.2 Thu Aug 23 17:26:18 2018

Tools Copyright (c) 1996-2017 Texas Instruments Incorporated
tasks.asm                                                            PAGE   43

    2304                    ; 1123 | UBaseType_t uxCurrentBasePriority, uxPriorityUsedOnEntry;              
    2305                    ;----------------------------------------------------------------------
    2306 00000332 9101              STR       A2, [SP, #4]          ; [DPU_V7M3_PIPE] |1121|  ; [ORIG 16-BIT INS]
    2307 00000334 9000              STR       A1, [SP, #0]          ; [DPU_V7M3_PIPE] |1121|  ; [ORIG 16-BIT INS]
    2308                            .dwpsn  file "../Source/tasks.c",line 1124,column 28,is_stmt,isa 1
    2309                    ;----------------------------------------------------------------------
    2310                    ; 1124 | BaseType_t xYieldRequired = pdFALSE;                                   
    2311                    ; 1126 |         configASSERT( ( uxNewPriority < configMAX_PRIORITIES ) );      
    2312                    ;----------------------------------------------------------------------
    2313 00000336 2000              MOVS      A1, #0                ; [DPU_V7M3_PIPE] |1124|  ; [ORIG 16-BIT INS]
    2314 00000338 9005              STR       A1, [SP, #20]         ; [DPU_V7M3_PIPE] |1124|  ; [ORIG 16-BIT INS]
    2315                            .dwpsn  file "../Source/tasks.c",line 1129,column 3,is_stmt,isa 1
    2316                    ;----------------------------------------------------------------------
    2317                    ; 1129 | if( uxNewPriority >= ( UBaseType_t ) configMAX_PRIORITIES )            
    2318                    ;----------------------------------------------------------------------
    2319 0000033a 9801              LDR       A1, [SP, #4]          ; [DPU_V7M3_PIPE] |1129|  ; [ORIG 16-BIT INS]
    2320 0000033c 2805              CMP       A1, #5                ; [DPU_V7M3_PIPE] |1129|  ; [ORIG 16-BIT INS]
    2321 0000033e D301              BCC       ||$C$L26||            ; [DPU_V7M3_PIPE] |1129|  ; [ORIG 16-BIT INS]
    2322                            ; BRANCHCC OCCURS {||$C$L26||}   ; [] |1129| 
    2323                    ;* --------------------------------------------------------------------------*
    2324                            .dwpsn  file "../Source/tasks.c",line 1131,column 4,is_stmt,isa 1
    2325                    ;----------------------------------------------------------------------
    2326                    ; 1131 | uxNewPriority = ( UBaseType_t ) configMAX_PRIORITIES - ( UBaseType_t )
    2327                    ;     | 1U;                                                                    
    2328                    ;----------------------------------------------------------------------
    2329 00000340 2004              MOVS      A1, #4                ; [DPU_V7M3_PIPE] |1131|  ; [ORIG 16-BIT INS]
    2330 00000342 9001              STR       A1, [SP, #4]          ; [DPU_V7M3_PIPE] |1131|  ; [ORIG 16-BIT INS]
    2331                            .dwpsn  file "../Source/tasks.c",line 1132,column 3,is_stmt,isa 1
    2332                    ;----------------------------------------------------------------------
    2333                    ; 1133 | else                                                                   
    2334                    ; 1135 |         mtCOVERAGE_TEST_MARKER();                                      
    2335                    ;----------------------------------------------------------------------
    2336                    ;* --------------------------------------------------------------------------*
    2337 00000344           ||$C$L26||:    
    2338                            .dwpsn  file "../Source/tasks.c",line 1138,column 3,is_stmt,isa 1
    2339                    ;----------------------------------------------------------------------
    2340                    ; 1138 | taskENTER_CRITICAL();                                                  
    2341                    ;----------------------------------------------------------------------
    2342                    $C$DW$136       .dwtag  DW_TAG_TI_branch
    2343                            .dwattr $C$DW$136, DW_AT_low_pc(0x00)
    2344                            .dwattr $C$DW$136, DW_AT_name("vPortEnterCritical")
    2345                            .dwattr $C$DW$136, DW_AT_TI_call
    2346                    
    2347 00000344 FFFEF7FF!         BL        vPortEnterCritical    ; [DPU_V7M3_PIPE] |1138|  ; [KEEP 32-BIT INS]
    2348                            ; CALL OCCURS {vPortEnterCritical }  ; [] |1138| 
    2349                            .dwpsn  file "../Source/tasks.c",line 1142,column 4,is_stmt,isa 1
    2350                    ;----------------------------------------------------------------------
    2351                    ; 1142 | pxTCB = prvGetTCBFromHandle( xTask );                                  
    2352                    ; 1144 | traceTASK_PRIORITY_SET( pxTCB, uxNewPriority );                        
    2353                    ; 1146 | #if ( configUSE_MUTEXES == 1 )                                         
    2354                    ;----------------------------------------------------------------------
    2355 00000348 9800              LDR       A1, [SP, #0]          ; [DPU_V7M3_PIPE] |1142|  ; [ORIG 16-BIT INS]
    2356 0000034a B910              CBNZ      A1, ||$C$L27||        ; []  ; [ORIG 16-BIT INS]
    2357                            ; BRANCHCC OCCURS {||$C$L27||}   ; [] |1142| 
    2358                    ;* --------------------------------------------------------------------------*
TI ARM Assembler PC v18.1.2 Thu Aug 23 17:26:18 2018

Tools Copyright (c) 1996-2017 Texas Instruments Incorporated
tasks.asm                                                            PAGE   44

    2359 0000034c 487F              LDR       A1, $C$CON11          ; [DPU_V7M3_PIPE] |1142|  ; [ORIG 16-BIT INS]
    2360 0000034e 6800              LDR       A1, [A1, #0]          ; [DPU_V7M3_PIPE] |1142|  ; [ORIG 16-BIT INS]
    2361 00000350 E000              B         ||$C$L28||            ; [DPU_V7M3_PIPE] |1142|  ; [ORIG 16-BIT INS]
    2362                            ; BRANCH OCCURS {||$C$L28||}     ; [] |1142| 
    2363                    ;* --------------------------------------------------------------------------*
    2364 00000352           ||$C$L27||:    
    2365 00000352 9800              LDR       A1, [SP, #0]          ; [DPU_V7M3_PIPE] |1142|  ; [ORIG 16-BIT INS]
    2366                    ;* --------------------------------------------------------------------------*
    2367 00000354           ||$C$L28||:    
    2368 00000354 9002              STR       A1, [SP, #8]          ; [DPU_V7M3_PIPE] |1142|  ; [ORIG 16-BIT INS]
    2369                            .dwpsn  file "../Source/tasks.c",line 1148,column 5,is_stmt,isa 1
    2370                    ;----------------------------------------------------------------------
    2371                    ; 1148 | uxCurrentBasePriority = pxTCB->uxBasePriority;                         
    2372                    ; 1150 | #else                                                                  
    2373                    ; 1152 | uxCurrentBasePriority = pxTCB->uxPriority;                             
    2374                    ; 1154 | #endif                                                                 
    2375                    ;----------------------------------------------------------------------
    2376 00000356 9802              LDR       A1, [SP, #8]          ; [DPU_V7M3_PIPE] |1148|  ; [ORIG 16-BIT INS]
    2377 00000358 6CC0              LDR       A1, [A1, #76]         ; [DPU_V7M3_PIPE] |1148|  ; [ORIG 16-BIT INS]
    2378 0000035a 9003              STR       A1, [SP, #12]         ; [DPU_V7M3_PIPE] |1148|  ; [ORIG 16-BIT INS]
    2379                            .dwpsn  file "../Source/tasks.c",line 1156,column 4,is_stmt,isa 1
    2380                    ;----------------------------------------------------------------------
    2381                    ; 1156 | if( uxCurrentBasePriority != uxNewPriority )                           
    2382                    ;----------------------------------------------------------------------
    2383 0000035c 9903              LDR       A2, [SP, #12]         ; [DPU_V7M3_PIPE] |1156|  ; [ORIG 16-BIT INS]
    2384 0000035e 9801              LDR       A1, [SP, #4]          ; [DPU_V7M3_PIPE] |1156|  ; [ORIG 16-BIT INS]
    2385 00000360 4288              CMP       A1, A2                ; [DPU_V7M3_PIPE] |1156|  ; [ORIG 16-BIT INS]
    2386 00000362 D05F              BEQ       ||$C$L37||            ; [DPU_V7M3_PIPE] |1156|  ; [ORIG 16-BIT INS]
    2387                            ; BRANCHCC OCCURS {||$C$L37||}   ; [] |1156| 
    2388                    ;* --------------------------------------------------------------------------*
    2389                            .dwpsn  file "../Source/tasks.c",line 1160,column 5,is_stmt,isa 1
    2390                    ;----------------------------------------------------------------------
    2391                    ; 1160 | if( uxNewPriority > uxCurrentBasePriority )                            
    2392                    ;----------------------------------------------------------------------
    2393 00000364 9803              LDR       A1, [SP, #12]         ; [DPU_V7M3_PIPE] |1160|  ; [ORIG 16-BIT INS]
    2394 00000366 9901              LDR       A2, [SP, #4]          ; [DPU_V7M3_PIPE] |1160|  ; [ORIG 16-BIT INS]
    2395 00000368 4288              CMP       A1, A2                ; [DPU_V7M3_PIPE] |1160|  ; [ORIG 16-BIT INS]
    2396 0000036a D20D              BCS       ||$C$L29||            ; [DPU_V7M3_PIPE] |1160|  ; [ORIG 16-BIT INS]
    2397                            ; BRANCHCC OCCURS {||$C$L29||}   ; [] |1160| 
    2398                    ;* --------------------------------------------------------------------------*
    2399                            .dwpsn  file "../Source/tasks.c",line 1162,column 6,is_stmt,isa 1
    2400                    ;----------------------------------------------------------------------
    2401                    ; 1162 | if( pxTCB != pxCurrentTCB )                                            
    2402                    ;----------------------------------------------------------------------
    2403 0000036c 4877              LDR       A1, $C$CON11          ; [DPU_V7M3_PIPE] |1162|  ; [ORIG 16-BIT INS]
    2404 0000036e 9902              LDR       A2, [SP, #8]          ; [DPU_V7M3_PIPE] |1162|  ; [ORIG 16-BIT INS]
    2405 00000370 6800              LDR       A1, [A1, #0]          ; [DPU_V7M3_PIPE] |1162|  ; [ORIG 16-BIT INS]
    2406 00000372 4288              CMP       A1, A2                ; [DPU_V7M3_PIPE] |1162|  ; [ORIG 16-BIT INS]
    2407 00000374 D00F              BEQ       ||$C$L30||            ; [DPU_V7M3_PIPE] |1162|  ; [ORIG 16-BIT INS]
    2408                            ; BRANCHCC OCCURS {||$C$L30||}   ; [] |1162| 
    2409                    ;* --------------------------------------------------------------------------*
    2410                            .dwpsn  file "../Source/tasks.c",line 1167,column 7,is_stmt,isa 1
    2411                    ;----------------------------------------------------------------------
    2412                    ; 1167 | if( uxNewPriority >= pxCurrentTCB->uxPriority )                        
    2413                    ;----------------------------------------------------------------------
TI ARM Assembler PC v18.1.2 Thu Aug 23 17:26:18 2018

Tools Copyright (c) 1996-2017 Texas Instruments Incorporated
tasks.asm                                                            PAGE   45

    2414 00000376 4875              LDR       A1, $C$CON11          ; [DPU_V7M3_PIPE] |1167|  ; [ORIG 16-BIT INS]
    2415 00000378 6800              LDR       A1, [A1, #0]          ; [DPU_V7M3_PIPE] |1167|  ; [ORIG 16-BIT INS]
    2416 0000037a 9901              LDR       A2, [SP, #4]          ; [DPU_V7M3_PIPE] |1167|  ; [ORIG 16-BIT INS]
    2417 0000037c 6AC0              LDR       A1, [A1, #44]         ; [DPU_V7M3_PIPE] |1167|  ; [ORIG 16-BIT INS]
    2418 0000037e 4288              CMP       A1, A2                ; [DPU_V7M3_PIPE] |1167|  ; [ORIG 16-BIT INS]
    2419 00000380 D809              BHI       ||$C$L30||            ; [DPU_V7M3_PIPE] |1167|  ; [ORIG 16-BIT INS]
    2420                            ; BRANCHCC OCCURS {||$C$L30||}   ; [] |1167| 
    2421                    ;* --------------------------------------------------------------------------*
    2422                            .dwpsn  file "../Source/tasks.c",line 1169,column 8,is_stmt,isa 1
    2423                    ;----------------------------------------------------------------------
    2424                    ; 1169 | xYieldRequired = pdTRUE;                                               
    2425                    ;----------------------------------------------------------------------
    2426 00000382 2001              MOVS      A1, #1                ; [DPU_V7M3_PIPE] |1169|  ; [ORIG 16-BIT INS]
    2427 00000384 9005              STR       A1, [SP, #20]         ; [DPU_V7M3_PIPE] |1169|  ; [ORIG 16-BIT INS]
    2428                            .dwpsn  file "../Source/tasks.c",line 1170,column 7,is_stmt,isa 1
    2429                    ;----------------------------------------------------------------------
    2430                    ; 1171 | else                                                                   
    2431                    ; 1173 |         mtCOVERAGE_TEST_MARKER();                                      
    2432                    ; 1176 | else                                                                   
    2433                    ;----------------------------------------------------------------------
    2434 00000386 E006              B         ||$C$L30||            ; [DPU_V7M3_PIPE] |1170|  ; [ORIG 16-BIT INS]
    2435                            ; BRANCH OCCURS {||$C$L30||}     ; [] |1170| 
    2436                    ;* --------------------------------------------------------------------------*
    2437                    ;* --------------------------------------------------------------------------*
    2438 00000388           ||$C$L29||:    
    2439                            .dwpsn  file "../Source/tasks.c",line 1183,column 10,is_stmt,isa 1
    2440                    ;----------------------------------------------------------------------
    2441                    ; 1183 | else if( pxTCB == pxCurrentTCB )                                       
    2442                    ;----------------------------------------------------------------------
    2443 00000388 4870              LDR       A1, $C$CON11          ; [DPU_V7M3_PIPE] |1183|  ; [ORIG 16-BIT INS]
    2444 0000038a 9902              LDR       A2, [SP, #8]          ; [DPU_V7M3_PIPE] |1183|  ; [ORIG 16-BIT INS]
    2445 0000038c 6800              LDR       A1, [A1, #0]          ; [DPU_V7M3_PIPE] |1183|  ; [ORIG 16-BIT INS]
    2446 0000038e 4288              CMP       A1, A2                ; [DPU_V7M3_PIPE] |1183|  ; [ORIG 16-BIT INS]
    2447 00000390 D101              BNE       ||$C$L30||            ; [DPU_V7M3_PIPE] |1183|  ; [ORIG 16-BIT INS]
    2448                            ; BRANCHCC OCCURS {||$C$L30||}   ; [] |1183| 
    2449                    ;* --------------------------------------------------------------------------*
    2450                            .dwpsn  file "../Source/tasks.c",line 1188,column 6,is_stmt,isa 1
    2451                    ;----------------------------------------------------------------------
    2452                    ; 1188 | xYieldRequired = pdTRUE;                                               
    2453                    ;----------------------------------------------------------------------
    2454 00000392 2001              MOVS      A1, #1                ; [DPU_V7M3_PIPE] |1188|  ; [ORIG 16-BIT INS]
    2455 00000394 9005              STR       A1, [SP, #20]         ; [DPU_V7M3_PIPE] |1188|  ; [ORIG 16-BIT INS]
    2456                            .dwpsn  file "../Source/tasks.c",line 1189,column 5,is_stmt,isa 1
    2457                    ;----------------------------------------------------------------------
    2458                    ; 1190 | else                                                                   
    2459                    ;----------------------------------------------------------------------
    2460                    ;* --------------------------------------------------------------------------*
    2461 00000396           ||$C$L30||:    
    2462                            .dwpsn  file "../Source/tasks.c",line 1200,column 5,is_stmt,isa 1
    2463                    ;----------------------------------------------------------------------
    2464                    ; 1200 | uxPriorityUsedOnEntry = pxTCB->uxPriority;                             
    2465                    ; 1202 | #if ( configUSE_MUTEXES == 1 )                                         
    2466                    ;----------------------------------------------------------------------
    2467 00000396 9802              LDR       A1, [SP, #8]          ; [DPU_V7M3_PIPE] |1200|  ; [ORIG 16-BIT INS]
    2468 00000398 6AC0              LDR       A1, [A1, #44]         ; [DPU_V7M3_PIPE] |1200|  ; [ORIG 16-BIT INS]
TI ARM Assembler PC v18.1.2 Thu Aug 23 17:26:18 2018

Tools Copyright (c) 1996-2017 Texas Instruments Incorporated
tasks.asm                                                            PAGE   46

    2469 0000039a 9004              STR       A1, [SP, #16]         ; [DPU_V7M3_PIPE] |1200|  ; [ORIG 16-BIT INS]
    2470                            .dwpsn  file "../Source/tasks.c",line 1206,column 6,is_stmt,isa 1
    2471                    ;----------------------------------------------------------------------
    2472                    ; 1206 | if( pxTCB->uxBasePriority == pxTCB->uxPriority )                       
    2473                    ;----------------------------------------------------------------------
    2474 0000039c 9902              LDR       A2, [SP, #8]          ; [DPU_V7M3_PIPE] |1206|  ; [ORIG 16-BIT INS]
    2475 0000039e 9802              LDR       A1, [SP, #8]          ; [DPU_V7M3_PIPE] |1206|  ; [ORIG 16-BIT INS]
    2476 000003a0 6CC9              LDR       A2, [A2, #76]         ; [DPU_V7M3_PIPE] |1206|  ; [ORIG 16-BIT INS]
    2477 000003a2 6AC0              LDR       A1, [A1, #44]         ; [DPU_V7M3_PIPE] |1206|  ; [ORIG 16-BIT INS]
    2478 000003a4 4288              CMP       A1, A2                ; [DPU_V7M3_PIPE] |1206|  ; [ORIG 16-BIT INS]
    2479 000003a6 D102              BNE       ||$C$L31||            ; [DPU_V7M3_PIPE] |1206|  ; [ORIG 16-BIT INS]
    2480                            ; BRANCHCC OCCURS {||$C$L31||}   ; [] |1206| 
    2481                    ;* --------------------------------------------------------------------------*
    2482                            .dwpsn  file "../Source/tasks.c",line 1208,column 7,is_stmt,isa 1
    2483                    ;----------------------------------------------------------------------
    2484                    ; 1208 | pxTCB->uxPriority = uxNewPriority;                                     
    2485                    ;----------------------------------------------------------------------
    2486 000003a8 9801              LDR       A1, [SP, #4]          ; [DPU_V7M3_PIPE] |1208|  ; [ORIG 16-BIT INS]
    2487 000003aa 9902              LDR       A2, [SP, #8]          ; [DPU_V7M3_PIPE] |1208|  ; [ORIG 16-BIT INS]
    2488 000003ac 62C8              STR       A1, [A2, #44]         ; [DPU_V7M3_PIPE] |1208|  ; [ORIG 16-BIT INS]
    2489                            .dwpsn  file "../Source/tasks.c",line 1209,column 6,is_stmt,isa 1
    2490                    ;----------------------------------------------------------------------
    2491                    ; 1210 | else                                                                   
    2492                    ; 1212 |         mtCOVERAGE_TEST_MARKER();                                      
    2493                    ;----------------------------------------------------------------------
    2494                    ;* --------------------------------------------------------------------------*
    2495 000003ae           ||$C$L31||:    
    2496                            .dwpsn  file "../Source/tasks.c",line 1216,column 6,is_stmt,isa 1
    2497                    ;----------------------------------------------------------------------
    2498                    ; 1216 | pxTCB->uxBasePriority = uxNewPriority;                                 
    2499                    ; 1218 | #else                                                                  
    2500                    ; 1220 | pxTCB->uxPriority = uxNewPriority;                                     
    2501                    ; 1222 | #endif                                                                 
    2502                    ;----------------------------------------------------------------------
    2503 000003ae 9801              LDR       A1, [SP, #4]          ; [DPU_V7M3_PIPE] |1216|  ; [ORIG 16-BIT INS]
    2504 000003b0 9902              LDR       A2, [SP, #8]          ; [DPU_V7M3_PIPE] |1216|  ; [ORIG 16-BIT INS]
    2505 000003b2 64C8              STR       A1, [A2, #76]         ; [DPU_V7M3_PIPE] |1216|  ; [ORIG 16-BIT INS]
    2506                            .dwpsn  file "../Source/tasks.c",line 1226,column 5,is_stmt,isa 1
    2507                    ;----------------------------------------------------------------------
    2508                    ; 1226 | if( ( listGET_LIST_ITEM_VALUE( &( pxTCB->xEventListItem ) ) & taskEVENT
    2509                    ;     | _LIST_ITEM_VALUE_IN_USE ) == 0UL )                                     
    2510                    ;----------------------------------------------------------------------
    2511 000003b4 9802              LDR       A1, [SP, #8]          ; [DPU_V7M3_PIPE] |1226|  ; [ORIG 16-BIT INS]
    2512 000003b6 6980              LDR       A1, [A1, #24]         ; [DPU_V7M3_PIPE] |1226|  ; [ORIG 16-BIT INS]
    2513 000003b8 0800              LSRS      A1, A1, #32           ; [DPU_V7M3_PIPE] |1226|  ; [ORIG 16-BIT INS]
    2514 000003ba D204              BCS       ||$C$L32||            ; [DPU_V7M3_PIPE] |1226|  ; [ORIG 16-BIT INS]
    2515                            ; BRANCHCC OCCURS {||$C$L32||}   ; [] |1226| 
    2516                    ;* --------------------------------------------------------------------------*
    2517                            .dwpsn  file "../Source/tasks.c",line 1228,column 6,is_stmt,isa 1
    2518                    ;----------------------------------------------------------------------
    2519                    ; 1228 | listSET_LIST_ITEM_VALUE( &( pxTCB->xEventListItem ), ( ( TickType_t ) c
    2520                    ;     | onfigMAX_PRIORITIES - ( TickType_t ) uxNewPriority ) ); /*lint !e961 MI
    2521                    ;     | SRA exception as the casts are only redundant for some ports. */       
    2522                    ;----------------------------------------------------------------------
    2523 000003bc 9801              LDR       A1, [SP, #4]          ; [DPU_V7M3_PIPE] |1228|  ; [ORIG 16-BIT INS]
TI ARM Assembler PC v18.1.2 Thu Aug 23 17:26:18 2018

Tools Copyright (c) 1996-2017 Texas Instruments Incorporated
tasks.asm                                                            PAGE   47

    2524 000003be 9902              LDR       A2, [SP, #8]          ; [DPU_V7M3_PIPE] |1228|  ; [ORIG 16-BIT INS]
    2525 000003c0 0005F1C0          RSB       A1, A1, #5            ; [DPU_V7M3_PIPE] |1228|  ; [KEEP 32-BIT INS]
    2526 000003c4 6188              STR       A1, [A2, #24]         ; [DPU_V7M3_PIPE] |1228|  ; [ORIG 16-BIT INS]
    2527                            .dwpsn  file "../Source/tasks.c",line 1229,column 5,is_stmt,isa 1
    2528                    ;----------------------------------------------------------------------
    2529                    ; 1230 | else                                                                   
    2530                    ; 1232 |         mtCOVERAGE_TEST_MARKER();                                      
    2531                    ;----------------------------------------------------------------------
    2532                    ;* --------------------------------------------------------------------------*
    2533 000003c6           ||$C$L32||:    
    2534                            .dwpsn  file "../Source/tasks.c",line 1239,column 5,is_stmt,isa 1
    2535                    ;----------------------------------------------------------------------
    2536                    ; 1239 | if( listIS_CONTAINED_WITHIN( &( pxReadyTasksLists[ uxPriorityUsedOnEntr
    2537                    ;     | y ] ), &( pxTCB->xGenericListItem ) ) != pdFALSE )                     
    2538                    ;----------------------------------------------------------------------
    2539 000003c6 9902              LDR       A2, [SP, #8]          ; [DPU_V7M3_PIPE] |1239|  ; [ORIG 16-BIT INS]
    2540 000003c8 9B04              LDR       A4, [SP, #16]         ; [DPU_V7M3_PIPE] |1239|  ; [ORIG 16-BIT INS]
    2541 000003ca 4894              LDR       A1, $C$CON12          ; [DPU_V7M3_PIPE] |1239|  ; [ORIG 16-BIT INS]
    2542 000003cc 694A              LDR       A3, [A2, #20]         ; [DPU_V7M3_PIPE] |1239|  ; [ORIG 16-BIT INS]
    2543 000003ce 0099              LSLS      A2, A4, #2            ; [DPU_V7M3_PIPE] |1239|  ; [ORIG 16-BIT INS]
    2544 000003d0 1103EB01          ADD       A2, A2, A4, LSL #4    ; [DPU_V7M3_PIPE] |1239|  ; [KEEP 32-BIT INS]
    2545 000003d4 1809              ADDS      A2, A2, A1            ; [DPU_V7M3_PIPE] |1239|  ; [ORIG 16-BIT INS]
    2546 000003d6 2000              MOVS      A1, #0                ; [DPU_V7M3_PIPE] |1239|  ; [ORIG 16-BIT INS]
    2547 000003d8 4291              CMP       A2, A3                ; [DPU_V7M3_PIPE] |1239|  ; [ORIG 16-BIT INS]
    2548 000003da D100              BNE       ||$C$L33||            ; [DPU_V7M3_PIPE] |1239|  ; [ORIG 16-BIT INS]
    2549                            ; BRANCHCC OCCURS {||$C$L33||}   ; [] |1239| 
    2550                    ;* --------------------------------------------------------------------------*
    2551 000003dc 2001              MOVS      A1, #1                ; [DPU_V7M3_PIPE] |1239|  ; [ORIG 16-BIT INS]
    2552                    ;* --------------------------------------------------------------------------*
    2553 000003de           ||$C$L33||:    
    2554 000003de B1F0              CBZ       A1, ||$C$L35||        ; []  ; [ORIG 16-BIT INS]
    2555                            ; BRANCHCC OCCURS {||$C$L35||}   ; [] |1239| 
    2556                    ;* --------------------------------------------------------------------------*
    2557                            .dwpsn  file "../Source/tasks.c",line 1244,column 6,is_stmt,isa 1
    2558                    ;----------------------------------------------------------------------
    2559                    ; 1244 | if( uxListRemove( &( pxTCB->xGenericListItem ) ) == ( UBaseType_t ) 0 )
    2560                    ;----------------------------------------------------------------------
    2561 000003e0 9802              LDR       A1, [SP, #8]          ; [DPU_V7M3_PIPE] |1244|  ; [ORIG 16-BIT INS]
    2562 000003e2 1D00              ADDS      A1, A1, #4            ; [DPU_V7M3_PIPE] |1244|  ; [ORIG 16-BIT INS]
    2563                    $C$DW$137       .dwtag  DW_TAG_TI_branch
    2564                            .dwattr $C$DW$137, DW_AT_low_pc(0x00)
    2565                            .dwattr $C$DW$137, DW_AT_name("uxListRemove")
    2566                            .dwattr $C$DW$137, DW_AT_TI_call
    2567                    
    2568 000003e4 FFFEF7FF!         BL        uxListRemove          ; [DPU_V7M3_PIPE] |1244|  ; [KEEP 32-BIT INS]
    2569                            ; CALL OCCURS {uxListRemove }    ; [] |1244| 
    2570 000003e8 B930              CBNZ      A1, ||$C$L34||        ; []  ; [ORIG 16-BIT INS]
    2571                            ; BRANCHCC OCCURS {||$C$L34||}   ; [] |1244| 
    2572                    ;* --------------------------------------------------------------------------*
    2573                            .dwpsn  file "../Source/tasks.c",line 1249,column 7,is_stmt,isa 1
    2574                    ;----------------------------------------------------------------------
    2575                    ; 1249 | portRESET_READY_PRIORITY( uxPriorityUsedOnEntry, uxTopReadyPriority ); 
    2576                    ;----------------------------------------------------------------------
    2577 000003ea 4AA6              LDR       A3, $C$CON13          ; [DPU_V7M3_PIPE] |1249|  ; [ORIG 16-BIT INS]
    2578 000003ec 9B04              LDR       A4, [SP, #16]         ; [DPU_V7M3_PIPE] |1249|  ; [ORIG 16-BIT INS]
TI ARM Assembler PC v18.1.2 Thu Aug 23 17:26:18 2018

Tools Copyright (c) 1996-2017 Texas Instruments Incorporated
tasks.asm                                                            PAGE   48

    2579 000003ee 6811              LDR       A2, [A3, #0]          ; [DPU_V7M3_PIPE] |1249|  ; [ORIG 16-BIT INS]
    2580 000003f0 2001              MOVS      A1, #1                ; [DPU_V7M3_PIPE] |1249|  ; [ORIG 16-BIT INS]
    2581 000003f2 4098              LSLS      A1, A1, A4            ; [DPU_V7M3_PIPE] |1249|  ; [ORIG 16-BIT INS]
    2582 000003f4 4381              BICS      A2, A2, A1            ; [DPU_V7M3_PIPE] |1249|  ; [ORIG 16-BIT INS]
    2583 000003f6 6011              STR       A2, [A3, #0]          ; [DPU_V7M3_PIPE] |1249|  ; [ORIG 16-BIT INS]
    2584                            .dwpsn  file "../Source/tasks.c",line 1250,column 6,is_stmt,isa 1
    2585                    ;----------------------------------------------------------------------
    2586                    ; 1251 | else                                                                   
    2587                    ; 1253 |         mtCOVERAGE_TEST_MARKER();                                      
    2588                    ;----------------------------------------------------------------------
    2589                    ;* --------------------------------------------------------------------------*
    2590 000003f8           ||$C$L34||:    
    2591                            .dwpsn  file "../Source/tasks.c",line 1255,column 6,is_stmt,isa 1
    2592                    ;----------------------------------------------------------------------
    2593                    ; 1255 | prvAddTaskToReadyList( pxTCB );                                        
    2594                    ;----------------------------------------------------------------------
    2595 000003f8 9802              LDR       A1, [SP, #8]          ; [DPU_V7M3_PIPE] |1255|  ; [ORIG 16-BIT INS]
    2596 000003fa 4AA2              LDR       A3, $C$CON13          ; [DPU_V7M3_PIPE] |1255|  ; [ORIG 16-BIT INS]
    2597 000003fc 6AC4              LDR       V1, [A1, #44]         ; [DPU_V7M3_PIPE] |1255|  ; [ORIG 16-BIT INS]
    2598 000003fe 6813              LDR       A4, [A3, #0]          ; [DPU_V7M3_PIPE] |1255|  ; [ORIG 16-BIT INS]
    2599 00000400 9902              LDR       A2, [SP, #8]          ; [DPU_V7M3_PIPE] |1255|  ; [ORIG 16-BIT INS]
    2600 00000402 2001              MOVS      A1, #1                ; [DPU_V7M3_PIPE] |1255|  ; [ORIG 16-BIT INS]
    2601 00000404 40A0              LSLS      A1, A1, V1            ; [DPU_V7M3_PIPE] |1255|  ; [ORIG 16-BIT INS]
    2602 00000406 4318              ORRS      A1, A1, A4            ; [DPU_V7M3_PIPE] |1255|  ; [ORIG 16-BIT INS]
    2603 00000408 6010              STR       A1, [A3, #0]          ; [DPU_V7M3_PIPE] |1255|  ; [ORIG 16-BIT INS]
    2604 0000040a 4B84              LDR       A4, $C$CON12          ; [DPU_V7M3_PIPE] |1255|  ; [ORIG 16-BIT INS]
    2605 0000040c 6ACA              LDR       A3, [A2, #44]         ; [DPU_V7M3_PIPE] |1255|  ; [ORIG 16-BIT INS]
    2606 0000040e 9902              LDR       A2, [SP, #8]          ; [DPU_V7M3_PIPE] |1255|  ; [ORIG 16-BIT INS]
    2607 00000410 0090              LSLS      A1, A3, #2            ; [DPU_V7M3_PIPE] |1255|  ; [ORIG 16-BIT INS]
    2608 00000412 1D09              ADDS      A2, A2, #4            ; [DPU_V7M3_PIPE] |1255|  ; [ORIG 16-BIT INS]
    2609 00000414 1002EB00          ADD       A1, A1, A3, LSL #4    ; [DPU_V7M3_PIPE] |1255|  ; [KEEP 32-BIT INS]
    2610 00000418 18C0              ADDS      A1, A1, A4            ; [DPU_V7M3_PIPE] |1255|  ; [ORIG 16-BIT INS]
    2611                    $C$DW$138       .dwtag  DW_TAG_TI_branch
    2612                            .dwattr $C$DW$138, DW_AT_low_pc(0x00)
    2613                            .dwattr $C$DW$138, DW_AT_name("vListInsertEnd")
    2614                            .dwattr $C$DW$138, DW_AT_TI_call
    2615                    
    2616 0000041a FFFEF7FF!         BL        vListInsertEnd        ; [DPU_V7M3_PIPE] |1255|  ; [KEEP 32-BIT INS]
    2617                            ; CALL OCCURS {vListInsertEnd }  ; [] |1255| 
    2618                            .dwpsn  file "../Source/tasks.c",line 1256,column 5,is_stmt,isa 1
    2619                    ;----------------------------------------------------------------------
    2620                    ; 1257 | else                                                                   
    2621                    ; 1259 |         mtCOVERAGE_TEST_MARKER();                                      
    2622                    ;----------------------------------------------------------------------
    2623                    ;* --------------------------------------------------------------------------*
    2624 0000041e           ||$C$L35||:    
    2625                            .dwpsn  file "../Source/tasks.c",line 1262,column 5,is_stmt,isa 1
    2626                    ;----------------------------------------------------------------------
    2627                    ; 1262 | if( xYieldRequired == pdTRUE )                                         
    2628                    ; 1264 |         taskYIELD_IF_USING_PREEMPTION();                               
    2629                    ;----------------------------------------------------------------------
    2630 0000041e 9805              LDR       A1, [SP, #20]         ; [DPU_V7M3_PIPE] |1262|  ; [ORIG 16-BIT INS]
    2631 00000420 2801              CMP       A1, #1                ; [DPU_V7M3_PIPE] |1262|  ; [ORIG 16-BIT INS]
    2632 00000422 D0FF              BEQ       ||$C$L36||            ; [DPU_V7M3_PIPE] |1262|  ; [ORIG 16-BIT INS]
    2633                            ; BRANCHCC OCCURS {||$C$L36||}   ; [] |1262| 
TI ARM Assembler PC v18.1.2 Thu Aug 23 17:26:18 2018

Tools Copyright (c) 1996-2017 Texas Instruments Incorporated
tasks.asm                                                            PAGE   49

    2634                    ;* --------------------------------------------------------------------------*
    2635                            .dwpsn  file "../Source/tasks.c",line 1265,column 5,is_stmt,isa 1
    2636                    ;----------------------------------------------------------------------
    2637                    ; 1266 | else                                                                   
    2638                    ; 1268 |         mtCOVERAGE_TEST_MARKER();                                      
    2639                    ;----------------------------------------------------------------------
    2640                    ;* --------------------------------------------------------------------------*
    2641 00000424           ||$C$L36||:    
    2642                            .dwpsn  file "../Source/tasks.c",line 1273,column 5,is_stmt,isa 1
    2643                    ;----------------------------------------------------------------------
    2644                    ; 1273 | ( void ) uxPriorityUsedOnEntry;                                        
    2645                    ;----------------------------------------------------------------------
    2646                    ;* --------------------------------------------------------------------------*
    2647 00000424           ||$C$L37||:    
    2648                            .dwpsn  file "../Source/tasks.c",line 1276,column 3,is_stmt,isa 1
    2649                    ;----------------------------------------------------------------------
    2650                    ; 1276 | taskEXIT_CRITICAL();                                                   
    2651                    ;----------------------------------------------------------------------
    2652                    $C$DW$139       .dwtag  DW_TAG_TI_branch
    2653                            .dwattr $C$DW$139, DW_AT_low_pc(0x00)
    2654                            .dwattr $C$DW$139, DW_AT_name("vPortExitCritical")
    2655                            .dwattr $C$DW$139, DW_AT_TI_call
    2656                    
    2657 00000424 FFFEF7FF!         BL        vPortExitCritical     ; [DPU_V7M3_PIPE] |1276|  ; [KEEP 32-BIT INS]
    2658                            ; CALL OCCURS {vPortExitCritical }  ; [] |1276| 
    2659                            .dwpsn  file "../Source/tasks.c",line 1277,column 2,is_stmt,isa 1
    2660 00000428 B006              ADD       SP, SP, #24           ; [DPU_V7M3_PIPE]  ; [ORIG 16-BIT INS]
    2661                            .dwcfi  cfa_offset, 8
    2662                    $C$DW$140       .dwtag  DW_TAG_TI_branch
    2663                            .dwattr $C$DW$140, DW_AT_low_pc(0x00)
    2664                            .dwattr $C$DW$140, DW_AT_TI_return
    2665                    
    2666 0000042a BD10              POP       {V1, PC}              ; [DPU_V7M3_PIPE]  ; [ORIG 16-BIT INS]
    2667                            .dwcfi  cfa_offset, 0
    2668                            .dwcfi  restore_reg, 4
    2669                            ; BRANCH OCCURS                  ; [] 
    2670                            .dwattr $C$DW$127, DW_AT_TI_end_file("../Source/tasks.c")
    2671                            .dwattr $C$DW$127, DW_AT_TI_end_line(0x4fd)
    2672                            .dwattr $C$DW$127, DW_AT_TI_end_column(0x02)
    2673                            .dwendentry
    2674                            .dwendtag $C$DW$127
    2675                    
    2676                    ;******************************************************************************
    2677                    ;* CONSTANT TABLE                                                             *
    2678                    ;******************************************************************************
    2679 0000042c                   .sect   ".text"
    2680                            .align  4
    2681 0000042c 00000000! ||$C$CON10||:   .bits   xTickCount,32
    2682 00000430                   .sect   ".text"
    2683                            .clink
    2684                            .thumbfunc vTaskSuspend
    2685 00000430                   .thumb
    2686                            .global vTaskSuspend
    2687                    
    2688                    $C$DW$141       .dwtag  DW_TAG_subprogram
TI ARM Assembler PC v18.1.2 Thu Aug 23 17:26:18 2018

Tools Copyright (c) 1996-2017 Texas Instruments Incorporated
tasks.asm                                                            PAGE   50

    2689                            .dwattr $C$DW$141, DW_AT_name("vTaskSuspend")
    2690                            .dwattr $C$DW$141, DW_AT_low_pc(vTaskSuspend)
    2691                            .dwattr $C$DW$141, DW_AT_high_pc(0x00)
    2692                            .dwattr $C$DW$141, DW_AT_TI_symbol_name("vTaskSuspend")
    2693                            .dwattr $C$DW$141, DW_AT_external
    2694                            .dwattr $C$DW$141, DW_AT_TI_begin_file("../Source/tasks.c")
    2695                            .dwattr $C$DW$141, DW_AT_TI_begin_line(0x504)
    2696                            .dwattr $C$DW$141, DW_AT_TI_begin_column(0x07)
    2697                            .dwattr $C$DW$141, DW_AT_decl_file("../Source/tasks.c")
    2698                            .dwattr $C$DW$141, DW_AT_decl_line(0x504)
    2699                            .dwattr $C$DW$141, DW_AT_decl_column(0x07)
    2700                            .dwattr $C$DW$141, DW_AT_TI_max_frame_size(0x10)
    2701                            .dwpsn  file "../Source/tasks.c",line 1285,column 2,is_stmt,address vTaskSuspend,isa 1
    2702                    
    2703                            .dwfde $C$DW$CIE, vTaskSuspend
    2704                    $C$DW$142       .dwtag  DW_TAG_formal_parameter
    2705                            .dwattr $C$DW$142, DW_AT_name("xTaskToSuspend")
    2706                            .dwattr $C$DW$142, DW_AT_TI_symbol_name("xTaskToSuspend")
    2707                            .dwattr $C$DW$142, DW_AT_type(*$C$DW$T$65)
